10000370 21e1 0010000111100001 001000 movs r1, #225  ; 0xe1 A6-139
10000372 b570 1011010101110000 101101 push {r4, r5, r6, r14}
10000374 0249 0000001001001001 000000 lsls r1, r1, #9  ; A6-135
10000376 4825 0100100000100101 010010 ldr  r0, [pc, #148] ; 0x0094 A6-127
10000378 f000 1111000000000000 111100 (32-bit)
1000037a f8b8 1111100010111000 111100 bl   100004ec
1000037c 2102 0010000100000010 001000 movs r1, #2  ; 0x02 A6-139
1000037e 2000 0010000000000000 001000 movs r0, #0  ; 0x00 A6-139
10000380 f000 1111000000000000 111100 (32-bit)
10000382 f84a 1111100001001010 111100 bl   10000418
10000384 2102 0010000100000010 001000 movs r1, #2  ; 0x02 A6-139
10000386 2001 0010000000000001 001000 movs r0, #1  ; 0x01 A6-139
10000388 f000 1111000000000000 111100 (32-bit)
1000038a f846 1111100001000110 111100 bl   10000418
1000038c 2120 0010000100100000 001000 movs r1, #32  ; 0x20 A6-139
1000038e 4a1f 0100101000011111 010010 ldr  r2, [pc, #124] ; 0x007c A6-127
10000390 6993 0110100110010011 011010 ldr  r3, [r2, #24] ; 0x18 imm8, A6-158
10000392 4219 0100001000011001 010000 tst  r1, r3
10000394 d1fc 1101000111111100 110100 bne.n 0x10000390 ; PC + -4
10000396 2341 0010001101000001 001000 movs r3, #65  ; 0x41 A6-139
10000398 6013 0110000000010011 011000 str  r3, [r2, #0] ; 0x0 imm8, A6-158
1000039a 4b1d 0100101100011101 010010 ldr  r3, [pc, #116] ; 0x0074 A6-127
1000039c 2500 0010010100000000 001001 movs r5, #0  ; 0x00 A6-139
1000039e 5f5d 0101111101011101 010111 ldrsh r{}, [r{}, r{}].format(rt, rn, rm)
100003a0 2d42 0010110101000010 001011 cmp r5, #66  ; 0x42  A6-117
100003a2 d02a 1101000000101010 110100 beq.n 0x100003fa ; PC + 88
100003a4 2120 0010000100100000 001000 movs r1, #32  ; 0x20 A6-139
100003a6 4a19 0100101000011001 010010 ldr  r2, [pc, #100] ; 0x0064 A6-127
100003a8 6993 0110100110010011 011010 ldr  r3, [r2, #24] ; 0x18 imm8, A6-158
100003aa 4219 0100001000011001 010000 tst  r1, r3
100003ac d1fc 1101000111111100 110100 bne.n 0x100003a8 ; PC + -4
100003ae 2342 0010001101000010 001000 movs r3, #66  ; 0x42 A6-139
100003b0 2020 0010000000100000 001000 movs r0, #32  ; 0x20 A6-139
100003b2 6013 0110000000010011 011000 str  r3, [r2, #0] ; 0x0 imm8, A6-158
100003b4 2420 0010010000100000 001001 movs r4, #32  ; 0x20 A6-139
100003b6 2300 0010001100000000 001000 movs r3, #0  ; 0x00 A6-139
100003b8 260d 0010011000001101 001001 movs r6, #13  ; 0x0d A6-139
100003ba 4916 0100100100010110 010010 ldr  r1, [pc, #88] ; 0x0058 A6-127
100003bc 4a13 0100101000010011 010010 ldr  r2, [pc, #76] ; 0x004c A6-127
100003be 2b00 0010101100000000 001010 cmp r3, #0  ; 0x00  A6-117
100003c0 d10f 1101000100001111 110100 bne.n 0x100003e2 ; PC + 34
100003c2 4285 0100001010000101 010000 cmp  r5, r0
100003c4 d014 1101000000010100 110100 beq.n 0x100003f0 ; PC + 44
100003c6 6993 0110100110010011 011010 ldr  r3, [r2, #24] ; 0x18 imm8, A6-158
100003c8 421c 0100001000011100 010000 tst  r4, r3
100003ca d1fc 1101000111111100 110100 bne.n 0x100003c6 ; PC + -4
100003cc 6010 0110000000010000 011000 str  r0, [r2, #0] ; 0x0 imm8, A6-158
100003ce 780b 0111100000001011 011110 ldrb r3, [r1, #0]
100003d0 3101 0011000100000001 001100 adds imm A6-101
100003d2 3b0d 0011101100001101 001110 subs imm A6-164
100003d4 4258 0100001001011000 010000 rsb  r0, r3
100003d6 4143 0100000101000011 010000 adc  r3, r0
100003d8 7808 0111100000001000 011110 ldrb r0, [r1, #0]
100003da b2db 1011001011011011 101100 uxtb a6-172
100003dc 2800 0010100000000000 001010 cmp r0, #0  ; 0x00  A6-117
100003de d1ee 1101000111101110 110100 bne.n 0x100003be ; PC + -32
100003e0 bd70 1011110101110000 101111 pop {r4, r5, r6, r14}
100003e2 6993 0110100110010011 011010 ldr  r3, [r2, #24] ; 0x18 imm8, A6-158
100003e4 421c 0100001000011100 010000 tst  r4, r3
100003e6 d0f1 1101000011110001 110100 beq.n 0x100003cc ; PC + -26
100003e8 6993 0110100110010011 011010 ldr  r3, [r2, #24] ; 0x18 imm8, A6-158
100003ea 421c 0100001000011100 010000 tst  r4, r3
100003ec d1f9 1101000111111001 110100 bne.n 0x100003e2 ; PC + -10
100003ee e7ed 1110011111101101 111001 (32-bit)
100003f0 6993 0110100110010011 111001 To be implemented
100003f2 421c 0100001000011100 010000 tst  r4, r3
100003f4 d1fc 1101000111111100 110100 bne.n 0x100003f0 ; PC + -4
100003f6 6016 0110000000010110 011000 str  r6, [r2, #0] ; 0x0 imm8, A6-158
100003f8 e7e5 1110011111100101 111001 (32-bit)
100003fa 2120 0010000100100000 111001 To be implemented
100003fc 4a03 0100101000000011 010010 ldr  r2, [pc, #12] ; 0x000c A6-127
100003fe 6993 0110100110010011 011010 ldr  r3, [r2, #24] ; 0x18 imm8, A6-158
10000400 4219 0100001000011001 010000 tst  r1, r3
10000402 d1fc 1101000111111100 110100 bne.n 0x100003fe ; PC + -4
10000404 230d 0010001100001101 001000 movs r3, #13  ; 0x0d A6-139
10000406 6013 0110000000010011 011000 str  r3, [r2, #0] ; 0x0 imm8, A6-158
10000408 e7cc 1110011111001100 111001 (32-bit)
1000040a 46c0 0100011011000000 111001 To be implemented
1000040c 4000 0100000000000000 010000 and  r0, r0
1000040e 4003 0100000000000011 010000 and  r3, r0
10000410 0b1c 0000101100011100 000010 lsrs  r4, r3, #44   ; A6-137
10000412 2000 0010000000000000 001000 movs r0, #0  ; 0x00 A6-139
10000414 2638 0010011000111000 001001 movs r6, #56  ; 0x38 A6-139
10000416 1000 0001000000000000 000100 asr   r0, r0, #64   ; A6-108
10000418 4a09 0100101000001001 010010 ldr  r2, [pc, #36] ; 0x0024 A6-127
1000041a 0083 0000000010000011 000000 lsls r3, r0, #2  ; A6-135
1000041c 4694 0100011010010100 010001 mov  r2, r12
1000041e 2240 0010001001000000 001000 movs r2, #64  ; 0x40 A6-139
10000420 4463 0100010001100011 010001 adds r3, r4
10000422 b510 1011010100010000 101101 push {r4, r14}
10000424 681c 0110100000011100 011010 ldr  r4, [r3, #0] ; 0x0 imm8, A6-158
10000426 00c0 0000000011000000 000000 lsls r0, r0, #3  ; A6-135
10000428 4062 0100000001100010 010000 eors  r2, r4
1000042a 24c0 0010010011000000 001001 movs r4, #192  ; 0xc0 A6-139
1000042c 4014 0100000000010100 010000 and  r4, r2
1000042e 2280 0010001010000000 001000 movs r2, #128  ; 0x80 A6-139
10000430 0152 0000000101010010 000000 lsls r2, r2, #5  ; A6-135
10000432 4313 0100001100010011 010000 orr  r3, r2
10000434 601c 0110000000011100 011000 str  r4, [r3, #0] ; 0x0 imm8, A6-158
10000436 4b03 0100101100000011 010010 ldr  r3, [pc, #12] ; 0x000c A6-127
