0000001c 2300 0010001100000000 001000 movs r3, #0  ; 0x00
0000001e 8802 1000100000000010 100010 ldrh r2, [r0, #0] ; 0x0
00000020 429a 0100001010011010 010000 cmp  r2, r3
00000022 d003 1101000000000011 110100 beq.n 2c ; PC + 10

00000024 8843 1000100001000011 100010 ldrh r3, [r0, #2] ; 0x2
00000026 3004 0011000000000100 001100 adds r0, #4  ; 0x04
00000028 4291 0100001010010001 010000 cmp  r1, r2
0000002a d1f7 1101000111110111 110100 bne.n 1c ; PC + -14

0000002c 1c18 0001110000011000 000111 adds r0, r3, #0   ;0x0
0000002e 4770 0100011101110000 010001 bx lr

00000030 bf30 1011111100110000 101111 wfi
00000032 e7fd 1110011111111101 111001 b.n  30

00000034 46f4 0100011011110100 010001 mov  ip, sp
00000036 f000 1111000000000000 111100 (32-bit)
00000038 f805 1111100000000101 111100 bl   44

0000003a 489e 0100100010011110 010010 ldr  r0, [pc, #632] ; 0x0278
0000003c 2100 0010000100000000 001000 movs r1, #0  ; 0x00
0000003e 6001 0110000000000001 011000 str  r1, [r0, #0] ; 0x0
00000040 6041 0110000001000001 011000 str  r1, [r0, #4] ; 0x4
00000042 46e7 0100011011100111 010001 mov  pc, ip
00000044 489c 0100100010011100 010010 ldr  r0, [pc, #624] ; 0x0270
00000046 2100 0010000100000000 001000 movs r1, #0  ; 0x00
00000048 43c9 0100001111001001 010000 mvns  r1, r1
0000004a 6001 0110000000000001 011000 str  r1, [r0, #0] ; 0x0
0000004c 6041 0110000001000001 011000 str  r1, [r0, #4] ; 0x4
0000004e 4770 0100011101110000 010001 bx lr

00000050 a191 1010000110010001 101000 sub r1, pc, #580 ; #244
00000052 00a4 0000000010100100 000000 lsls  r4, r4, #2
00000054 1e09 0001111000001001 000111 subs  r1, r1, #0   ;0x0
00000056 0000 0000000000000000 000000 nop     ; movs r0, r0

00000058 4328 0100001100101000 010000 orrs  r0, r5
0000005a 2029 0010000000101001 001000 movs r0, #41  ; 0x29
0000005c 3032 0011000000110010 001100 adds r0, #50  ; 0x32
0000005e 3032 0011000000110010 001100 adds r0, #50  ; 0x32
00000060 5220 0101001000100000 010100 strh r0, [r4, r0]
00000062 7361 0111001101100001 011100 strb r1, [r4, #13]
00000064 6270 0110001001110000 011000 str  r0, [r6, #36] ; 0x24 imm5
00000066 7265 0111001001100101 011100 strb r5, [r4, #9]
00000068 7972 0111100101110010 011110 ldrb r2, [r6, #5]
0000006a 5020 0101000000100000 010100 str unimplemented form
0000006c 2069 0010000001101001 001000 movs r0, #105  ; 0x69
0000006e 7254 0111001001010100 011100 strb r4, [r2, #9]
00000070 6461 0110010001100001 011001 str  r1, [r4, #68] ; 0x44
00000072 6e69 0110111001101001 011011 ldr  r1, [r5, #100] ; 0x64
00000074 2067 0010000001100111 001000 movs r0, #103  ; 0x67
00000076 744c 0111010001001100 011101 ldrb r4, [r1, #17]
00000078 0064 0000000001100100 000000 lsls  r4, r4, #1
0000007a 3350 0011001101010000 001100 adds r3, #80  ; 0x50
0000007c 02d9 0000001011011001 000000 lsls  r1, r3, #11
0000007e 3352 0011001101010010 001100 adds r3, #82  ; 0x52
00000080 02fd 0000001011111101 000000 lsls  r5, r7, #11
00000082 334c 0011001101001100 001100 adds r3, #76  ; 0x4c
00000084 0327 0000001100100111 000000 lsls  r7, r4, #12
00000086 3354 0011001101010100 001100 adds r3, #84  ; 0x54
00000088 035f 0000001101011111 000000 lsls  r7, r3, #13
0000008a 534d 0101001101001101 010100 strh r5, [r1, r5]
0000008c 26dd 0010011011011101 001001 movs r6, #221  ; 0xdd
0000008e 3453 0011010001010011 001101 adds r4, #83  ; 0x53
00000090 26d1 0010011011010001 001001 movs r6, #209  ; 0xd1
00000092 434d 0100001101001101 010000 muls  r5, r1
00000094 2641 0010011001000001 001001 movs r6, #65  ; 0x41
00000096 3443 0011010001000011 001101 adds r4, #67  ; 0x43
00000098 2629 0010011000101001 001001 movs r6, #41  ; 0x29
0000009a 4255 0100001001010101 010000 rsb  r5, r2
0000009c 25b5 0010010110110101 001001 movs r5, #181  ; 0xb5
0000009e 5444 0101010001000100 010101 strb r4, [r0, r1]
000000a0 0185 0000000110000101 000000 lsls  r5, r0, #6
000000a2 4544 0100010101000100 010001 cmp 8, 4
000000a4 018b 0000000110001011 000000 lsls  r3, r1, #6
000000a6 5657 0101011001010111 010101 ldrsb r7, [r2, r1]
000000a8 0137 0000000100110111 000000 lsls  r7, r6, #4
000000aa 4649 0100011001001001 010001 mov  r1, r9
000000ac 24a1 0010010010100001 001001 movs r4, #161  ; 0xa1
000000ae 5845 0101100001000101 010110 ldr r5, [r0, r1]
000000b0 23f5 0010001111110101 001000 movs r3, #245  ; 0xf5
000000b2 4552 0100010101010010 010001 cmp 10, 2
000000b4 237d 0010001101111101 001000 movs r3, #125  ; 0x7d
000000b6 5052 0101000001010010 010100 str unimplemented form
000000b8 23c5 0010001111000101 001000 movs r3, #197  ; 0xc5
000000ba 4346 0100001101000110 010000 muls  r6, r0
000000bc 2361 0010001101100001 001000 movs r3, #97  ; 0x61
000000be 5843 0101100001000011 010110 ldr r3, [r0, r1]
000000c0 2331 0010001100110001 001000 movs r3, #49  ; 0x31
000000c2 4345 0100001101000101 010000 muls  r5, r0
000000c4 0045 0000000001000101 000000 lsls  r5, r0, #1
000000c6 0000 0000000000000000 000000 nop     ; movs r0, r0

000000c8 5247 0101001001000111 010100 strh r7, [r0, r1]
000000ca 0050 0000000001010000 000000 lsls  r0, r2, #1
000000cc 5243 0101001001000011 010100 strh r3, [r0, r1]
000000ce 0058 0000000001011000 000000 lsls  r0, r3, #1
000000d0 4653 0100011001010011 010001 mov  r3, r10
000000d2 01a8 0000000110101000 000000 lsls  r0, r5, #6
000000d4 4453 0100010001010011 010001 adds r3, r2
000000d6 0228 0000001000101000 000000 lsls  r0, r5, #8
000000d8 5a46 0101101001000110 010110 ldrh r6, [r0, r1]
000000da 01a6 0000000110100110 000000 lsls  r6, r4, #6
000000dc 5346 0101001101000110 010100 strh r6, [r0, r5]
000000de 2758 0010011101011000 001001 movs r7, #88  ; 0x58
000000e0 4546 0100010101000110 010001 cmp 8, 6
000000e2 2e4c 0010111001001100 001011 cmp r6, #76  ; 0x4c
000000e4 5344 0101001101000100 010100 strh r4, [r0, r5]
000000e6 2e54 0010111001010100 001011 cmp r6, #84  ; 0x54
000000e8 4544 0100010101000100 010001 cmp 8, 4
000000ea 3dac 0011110110101100 001111 subs r5, #172  ; 0xac
000000ec 0000 0000000000000000 000000 nop     ; movs r0, r0

000000ee 4873 0100100001110011 010010 ldr  r0, [pc, #460] ; 0x01cc
000000f0 6801 0110100000000001 011010 ldr  r1, [r0, #0] ; 0x0
000000f2 2900 0010100100000000 001010 cmp r1, #0  ; 0x00
000000f4 d11f 1101000100011111 110100 bne.n 136 ; PC + 66

000000f6 f7ff 1111011111111111 111101 (32-bit)
000000f8 ff9d 1111111110011101 111101 bl   34

000000fa 4971 0100100101110001 010010 ldr  r1, [pc, #452] ; 0x01c4
000000fc 4b71 0100101101110001 010010 ldr  r3, [pc, #452] ; 0x01c4
000000fe 680a 0110100000001010 011010 ldr  r2, [r1, #0] ; 0x0
00000100 421a 0100001000011010 010000 tst  r2, r3
00000102 d001 1101000000000001 110100 beq.n 108 ; PC + 6

00000104 600b 0110000000001011 011000 str  r3, [r1, #0] ; 0x0
00000106 e793 1110011110010011 111001 b.n  30

00000108 4f6f 0100111101101111 010011 ldr  r7, [pc, #444] ; 0x01bc
0000010a 4e70 0100111001110000 010011 ldr  r6, [pc, #448] ; 0x01c0
0000010c cf0f 1100111100001111 110011 ldmia r7!, {r0, r1, r2, r3}
0000010e 42b0 0100001010110000 010000 cmp  r0, r6
00000110 d107 1101000100000111 110100 bne.n 122 ; PC + 18

00000112 4059 0100000001011001 010000 eors  r1, r3
00000114 1840 0001100001000000 000110 adds r0, r0, r1
00000116 d104 1101000100000100 110100 bne.n 122 ; PC + 12

00000118 3f10 0011111100010000 001111 subs r7, #16  ; 0x10
0000011a 6038 0110000000111000 011000 str  r0, [r7, #0] ; 0x0
0000011c f382 1111001110000010 111100 (32-bit)
0000011e 8808 1000100000001000 111100 msr MSP, r2

00000120 4798 0100011110011000 010001 blx  r3

00000122 f002 1111000000000010 111100 (32-bit)
00000124 f9e1 1111100111100001 111100 bl   24e8

00000126 bf20 1011111100100000 101111 wfe
00000128 6d21 0110110100100001 011011 ldr  r1, [r4, #80] ; 0x50
0000012a 0889 0000100010001001 000010 lsrs  r1, r1, #2
0000012c d3fb 1101001111111011 110100 bcc.n 126 ; PC + -6

0000012e 6560 0110010101100000 011001 str  r0, [r4, #84] ; 0x54
00000130 bf40 1011111101000000 101111 sev ; a6-156
00000132 1c6e 0001110001101110 000111 adds r6, r5, #1   ;0x1
00000134 4730 0100011100110000 010001 bx r6

00000136 4c61 0100110001100001 010011 ldr  r4, [pc, #388] ; 0x0184
00000138 4f65 0100111101100101 010011 ldr  r7, [pc, #404] ; 0x0194
0000013a 2104 0010000100000100 001000 movs r1, #4  ; 0x04
0000013c 6139 0110000100111001 011000 str  r1, [r7, #16] ; 0x10
0000013e 6da1 0110110110100001 011011 ldr  r1, [r4, #88] ; 0x58
00000140 6d21 0110110100100001 011011 ldr  r1, [r4, #80] ; 0x50
00000142 0849 0000100001001001 000010 lsrs  r1, r1, #1
00000144 d2fb 1101001011111011 110100 bcs.n 13e ; PC + -6

00000146 a50b 1010010100001011 101001 sub r5, pc, #44 ; #2c
00000148 2000 0010000000000000 001000 movs r0, #0  ; 0x00
0000014a f7ff 1111011111111111 111101 (32-bit)
0000014c ffed 1111111111101101 111101 bl   128

0000014e 2801 0010100000000001 001010 cmp r0, #1  ; 0x01
00000150 d1f6 1101000111110110 110100 bne.n 140 ; PC + -16

00000152 f7ff 1111011111111111 111101 (32-bit)
00000154 ffe9 1111111111101001 111101 bl   128

00000156 60b8 0110000010111000 011000 str  r0, [r7, #8] ; 0x8
00000158 f7ff 1111011111111111 111101 (32-bit)
0000015a ffe6 1111111111100110 111101 bl   128

0000015c f380 1111001110000000 111100 (32-bit)
0000015e 8808 1000100000001000 111100 msr MSP, r0

00000160 f7ff 1111011111111111 111101 (32-bit)
00000162 ffe2 1111111111100010 111101 bl   128

00000164 a501 1010010100000001 101001 sub r5, pc, #4 ; #4
00000166 f7ff 1111011111111111 111101 (32-bit)
00000168 ffdf 1111111111011111 111101 bl   128

0000016a 46c0 0100011011000000 010001 nop  ; (mov  r8, r8)

0000016c 2100 0010000100000000 001000 movs r1, #0  ; 0x00
0000016e 6139 0110000100111001 011000 str  r1, [r7, #16] ; 0x10
00000170 4780 0100011110000000 010001 blx  r0

00000172 e75d 1110011101011101 111001 b.n  30

00000174 bf20 1011111100100000 101111 wfe
00000176 6d20 0110110100100000 011011 ldr  r0, [r4, #80] ; 0x50
00000178 0840 0000100001000000 000010 lsrs  r0, r0, #1
0000017a d3fb 1101001111111011 110100 bcc.n 174 ; PC + -6

0000017c 6da0 0110110110100000 011011 ldr  r0, [r4, #88] ; 0x58
0000017e 2800 0010100000000000 001010 cmp r0, #0  ; 0x00
00000180 d0de 1101000011011110 110100 beq.n 140 ; PC + -64

00000182 4770 0100011101110000 010001 bx lr

00000184 2601 0010011000000001 001001 movs r6, #1  ; 0x01
00000186 4337 0100001100110111 010000 orrs  r7, r6
00000188 47b8 0100011110111000 010001 blx  r7

0000018a be00 1011111000000000 101111 bkpt 0x0000

0000018c e7fa 1110011111111010 111001 b.n  184

0000018e 3811 0011100000010001 001110 subs r0, #17  ; 0x11
00000190 7ac0 0111101011000000 011110 strb r0, [r0, #11]
00000192 bd00 1011110100000000 101111 pop {lr}
00000194 b500 1011010100000000 101101 push {lr}
00000196 4042 0100000001000010 010000 eors  r2, r0
00000198 2a00 0010101000000000 001010 cmp r2, #0  ; 0x00
0000019a f000 1111000000000000 111100 (32-bit)
0000019c f802 1111100000000010 111100 bl   1a2

0000019e d2f6 1101001011110110 110100 bcs.n 18e ; PC + -16

000001a0 468e 0100011010001110 010001 mov  sp, r1
000001a2 4670 0100011001110000 010001 mov  r0, sp
000001a4 4700 0100011100000000 010001 bx r0

000001a6 0020 0000000000100000 000000 movs r0, r4
000001a8 2b69 0010101101101001 001010 cmp r3, #105  ; 0x69
000001aa 0000 0000000000000000 000000 nop     ; movs r0, r0

000001ac 2b65 0010101101100101 001010 cmp r3, #101  ; 0x65
000001ae 0000 0000000000000000 000000 nop     ; movs r0, r0

000001b0 2c31 0010110000110001 001011 cmp r4, #49  ; 0x31
000001b2 0000 0000000000000000 000000 nop     ; movs r0, r0

000001b4 2cfd 0010110011111101 001011 cmp r4, #253  ; 0xfd
000001b6 0000 0000000000000000 000000 nop     ; movs r0, r0

000001b8 2827 0010100000100111 001010 cmp r0, #39  ; 0x27
000001ba 0000 0000000000000000 000000 nop     ; movs r0, r0

000001bc 2827 0010100000100111 001010 cmp r0, #39  ; 0x27
000001be 0000 0000000000000000 000000 nop     ; movs r0, r0

000001c0 2db1 0010110110110001 001011 cmp r5, #177  ; 0xb1
000001c2 0000 0000000000000000 000000 nop     ; movs r0, r0

000001c4 284d 0010100001001101 001010 cmp r0, #77  ; 0x4d
000001c6 0000 0000000000000000 000000 nop     ; movs r0, r0

000001c8 284f 0010100001001111 001010 cmp r0, #79  ; 0x4f
000001ca 0000 0000000000000000 000000 nop     ; movs r0, r0

000001cc 2881 0010100010000001 001010 cmp r0, #129  ; 0x81
000001ce 0000 0000000000000000 000000 nop     ; movs r0, r0

000001d0 2883 0010100010000011 001010 cmp r0, #131  ; 0x83
000001d2 0000 0000000000000000 000000 nop     ; movs r0, r0

000001d4 28d7 0010100011010111 001010 cmp r0, #215  ; 0xd7
000001d6 0000 0000000000000000 000000 nop     ; movs r0, r0

000001d8 28d9 0010100011011001 001010 cmp r0, #217  ; 0xd9
000001da 0000 0000000000000000 000000 nop     ; movs r0, r0

000001dc 28e7 0010100011100111 001010 cmp r0, #231  ; 0xe7
000001de 0000 0000000000000000 000000 nop     ; movs r0, r0

000001e0 28e9 0010100011101001 001010 cmp r0, #233  ; 0xe9
000001e2 0000 0000000000000000 000000 nop     ; movs r0, r0

000001e4 29bf 0010100110111111 001010 cmp r1, #191  ; 0xbf
000001e6 0000 0000000000000000 000000 nop     ; movs r0, r0

000001e8 2975 0010100101110101 001010 cmp r1, #117  ; 0x75
000001ea 0000 0000000000000000 000000 nop     ; movs r0, r0

000001ec 29dd 0010100111011101 001010 cmp r1, #221  ; 0xdd
000001ee 0000 0000000000000000 000000 nop     ; movs r0, r0

000001f0 0031 0000000000110001 000000 movs r1, r6
000001f2 0000 0000000000000000 000000 nop     ; movs r0, r0

000001f4 29e5 0010100111100101 001010 cmp r1, #229  ; 0xe5
000001f6 0000 0000000000000000 000000 nop     ; movs r0, r0

000001f8 2a4f 0010101001001111 001010 cmp r2, #79  ; 0x4f
000001fa 0000 0000000000000000 000000 nop     ; movs r0, r0

000001fc 280b 0010100000001011 001010 cmp r0, #11  ; 0x0b
000001fe 0000 0000000000000000 000000 nop     ; movs r0, r0

00000200 2a73 0010101001110011 001010 cmp r2, #115  ; 0x73
00000202 0000 0000000000000000 000000 nop     ; movs r0, r0

00000204 28af 0010100010101111 001010 cmp r0, #175  ; 0xaf
00000206 0000 0000000000000000 000000 nop     ; movs r0, r0

00000208 28b1 0010100010110001 001010 cmp r0, #177  ; 0xb1
0000020a 0000 0000000000000000 000000 nop     ; movs r0, r0

0000020c 289d 0010100010011101 001010 cmp r0, #157  ; 0x9d
0000020e 0000 0000000000000000 000000 nop     ; movs r0, r0

00000210 289f 0010100010011111 001010 cmp r0, #159  ; 0x9f
00000212 0000 0000000000000000 000000 nop     ; movs r0, r0

00000214 3581 0011010110000001 001101 adds r5, #129  ; 0x81
00000216 0000 0000000000000000 000000 nop     ; movs r0, r0

00000218 3583 0011010110000011 001101 adds r5, #131  ; 0x83
0000021a 0000 0000000000000000 000000 nop     ; movs r0, r0

0000021c 358b 0011010110001011 001101 adds r5, #139  ; 0x8b
0000021e 0000 0000000000000000 000000 nop     ; movs r0, r0

00000220 358d 0011010110001101 001101 adds r5, #141  ; 0x8d
00000222 0000 0000000000000000 000000 nop     ; movs r0, r0

00000224 363d 0011011000111101 001101 adds r6, #61  ; 0x3d
00000226 0000 0000000000000000 000000 nop     ; movs r0, r0

00000228 2e61 0010111001100001 001011 cmp r6, #97  ; 0x61
0000022a 0000 0000000000000000 000000 nop     ; movs r0, r0

0000022c 2e55 0010111001010101 001011 cmp r6, #85  ; 0x55
0000022e 0000 0000000000000000 000000 nop     ; movs r0, r0

00000230 2fbd 0010111110111101 001011 cmp r7, #189  ; 0xbd
00000232 0000 0000000000000000 000000 nop     ; movs r0, r0

00000234 3119 0011000100011001 001100 adds r1, #25  ; 0x19
00000236 0000 0000000000000000 000000 nop     ; movs r0, r0

00000238 346b 0011010001101011 001101 adds r4, #107  ; 0x6b
0000023a 0000 0000000000000000 000000 nop     ; movs r0, r0

0000023c 346b 0011010001101011 001101 adds r4, #107  ; 0x6b
0000023e 0000 0000000000000000 000000 nop     ; movs r0, r0

00000240 32dd 0011001011011101 001100 adds r2, #221  ; 0xdd
00000242 0000 0000000000000000 000000 nop     ; movs r0, r0

00000244 3565 0011010101100101 001101 adds r5, #101  ; 0x65
00000246 0000 0000000000000000 000000 nop     ; movs r0, r0

00000248 3567 0011010101100111 001101 adds r5, #103  ; 0x67
0000024a 0000 0000000000000000 000000 nop     ; movs r0, r0

0000024c 3573 0011010101110011 001101 adds r5, #115  ; 0x73
0000024e 0000 0000000000000000 000000 nop     ; movs r0, r0

00000250 3575 0011010101110101 001101 adds r5, #117  ; 0x75
00000252 0000 0000000000000000 000000 nop     ; movs r0, r0

00000254 36c3 0011011011000011 001101 adds r6, #195  ; 0xc3
00000256 0000 0000000000000000 000000 nop     ; movs r0, r0

00000258 36c5 0011011011000101 001101 adds r6, #197  ; 0xc5
0000025a 0000 0000000000000000 000000 nop     ; movs r0, r0

0000025c 36bb 0011011010111011 001101 adds r6, #187  ; 0xbb
0000025e 0000 0000000000000000 000000 nop     ; movs r0, r0

00000260 36bd 0011011010111101 001101 adds r6, #189  ; 0xbd
00000262 0000 0000000000000000 000000 nop     ; movs r0, r0

00000264 3831 0011100000110001 001110 subs r0, #49  ; 0x31
00000266 0000 0000000000000000 000000 nop     ; movs r0, r0

00000268 3841 0011100001000001 001110 subs r0, #65  ; 0x41
0000026a 0000 0000000000000000 000000 nop     ; movs r0, r0

0000026c 3811 0011100000010001 001110 subs r0, #17  ; 0x11
0000026e 0000 0000000000000000 000000 nop     ; movs r0, r0

00000270 0031 0000000000110001 000000 movs r1, r6
00000272 0000 0000000000000000 000000 nop     ; movs r0, r0

00000274 3b45 0011101101000101 001110 subs r3, #69  ; 0x45
00000276 0000 0000000000000000 000000 nop     ; movs r0, r0

00000278 3be1 0011101111100001 001110 subs r3, #225  ; 0xe1
0000027a 0000 0000000000000000 000000 nop     ; movs r0, r0

0000027c 346f 0011010001101111 001101 adds r4, #111  ; 0x6f
0000027e 0000 0000000000000000 000000 nop     ; movs r0, r0

00000280 3931 0011100100110001 001110 subs r1, #49  ; 0x31
00000282 0000 0000000000000000 000000 nop     ; movs r0, r0

00000284 36d1 0011011011010001 001101 adds r6, #209  ; 0xd1
00000286 0000 0000000000000000 000000 nop     ; movs r0, r0

00000288 36d3 0011011011010011 001101 adds r6, #211  ; 0xd3
0000028a 0000 0000000000000000 000000 nop     ; movs r0, r0

0000028c 36cb 0011011011001011 001101 adds r6, #203  ; 0xcb
0000028e 0000 0000000000000000 000000 nop     ; movs r0, r0

00000290 36cd 0011011011001101 001101 adds r6, #205  ; 0xcd
00000292 0000 0000000000000000 000000 nop     ; movs r0, r0

00000294 35c1 0011010111000001 001101 adds r5, #193  ; 0xc1
00000296 0000 0000000000000000 000000 nop     ; movs r0, r0

00000298 35c3 0011010111000011 001101 adds r5, #195  ; 0xc3
0000029a 0000 0000000000000000 000000 nop     ; movs r0, r0

0000029c 35db 0011010111011011 001101 adds r5, #219  ; 0xdb
0000029e 0000 0000000000000000 000000 nop     ; movs r0, r0

000002a0 35dd 0011010111011101 001101 adds r5, #221  ; 0xdd
000002a2 0000 0000000000000000 000000 nop     ; movs r0, r0

000002a4 3663 0011011001100011 001101 adds r6, #99  ; 0x63
000002a6 0000 0000000000000000 000000 nop     ; movs r0, r0

000002a8 480a 0100100000001010 010010 ldr  r0, [pc, #40] ; 0x0028
000002aa f380 1111001110000000 111100 (32-bit)
000002ac 8808 1000100000001000 111100 msr MSP, r0

000002ae f001 1111000000000001 111100 (32-bit)
000002b0 ff1b 1111111100011011 111100 bl   20e8

000002b2 0000 0000000000000000 000000 nop     ; movs r0, r0

000002b4 4000 0100000000000000 010000 ands  r0, r0
000002b6 4000 0100000000000000 010000 ands  r0, r0
000002b8 80a0 1000000010100000 100000 A5-82 1000 000
000002ba 4000 0100000000000000 010000 ands  r0, r0
000002bc 0000 0000000000000000 000000 nop     ; movs r0, r0

000002be d000 1101000000000000 110100 beq.n 2c2 ; PC + 4

000002c0 4008 0100000000001000 010000 ands  r0, r1
000002c2 4006 0100000000000110 010000 ands  r6, r0
000002c4 0000 0000000000000000 000000 nop     ; movs r0, r0

000002c6 0100 0000000100000000 000000 lsls  r0, r0, #4
000002c8 801c 1000000000011100 100000 A5-82 1000 000
000002ca 4005 0100000000000101 010000 ands  r5, r0
000002cc c0d3 1100000011010011 110000 stmia r0!, {r0, r1, r4, r6, r7}
000002ce b007 1011000000000111 101100 add r0, sp, #28
000002d0 ed00 1110110100000000 111011 (32-bit)
000002d2 e000 1110000000000000 111011 To be implemented

000002d4 08b0 0000100010110000 000010 lsrs  r0, r6, #2
000002d6 5010 0101000000010000 010100 str unimplemented form
000002d8 4933 0100100100110011 010010 ldr  r1, [pc, #204] ; 0x00cc
000002da 0842 0000100001000010 000010 lsrs  r2, r0, #1
000002dc 400a 0100000000001010 010000 ands  r2, r1
000002de 0883 0000100010000011 000010 lsrs  r3, r0, #2
000002e0 400b 0100000000001011 010000 ands  r3, r1
000002e2 4008 0100000000001000 010000 ands  r0, r1
000002e4 1880 0001100010000000 000110 adds r0, r0, r2
000002e6 18c0 0001100011000000 000110 adds r0, r0, r3
000002e8 08c1 0000100011000001 000010 lsrs  r1, r0, #3
000002ea 1840 0001100001000000 000110 adds r0, r0, r1
000002ec 492f 0100100100101111 010010 ldr  r1, [pc, #188] ; 0x00bc
000002ee 4008 0100000000001000 010000 ands  r0, r1
000002f0 0981 0000100110000001 000010 lsrs  r1, r0, #6
000002f2 1840 0001100001000000 000110 adds r0, r0, r1
000002f4 492e 0100100100101110 010010 ldr  r1, [pc, #184] ; 0x00b8
000002f6 4348 0100001101001000 010000 muls  r0, r1
000002f8 0e80 0000111010000000 000011 lsrs  r0, r0, #26
000002fa 4770 0100011101110000 010001 bx lr

000002fc 4a2d 0100101000101101 010010 ldr  r2, [pc, #180] ; 0x00b4
000002fe 0851 0000100001010001 000010 lsrs  r1, r2, #1
00000300 4051 0100000001010001 010000 eors  r1, r2
00000302 0043 0000000001000011 000000 lsls  r3, r0, #1
00000304 400b 0100000000001011 010000 ands  r3, r1
00000306 4008 0100000000001000 010000 ands  r0, r1
00000308 0840 0000100001000000 000010 lsrs  r0, r0, #1
0000030a 4318 0100001100011000 010000 orrs  r0, r3
0000030c 0083 0000000010000011 000000 lsls  r3, r0, #2
0000030e 4013 0100000000010011 010000 ands  r3, r2
00000310 4010 0100000000010000 010000 ands  r0, r2
00000312 0880 0000100010000000 000010 lsrs  r0, r0, #2
00000314 4303 0100001100000011 010000 orrs  r3, r0
00000316 4a28 0100101000101000 010010 ldr  r2, [pc, #160] ; 0x00a0
00000318 0118 0000000100011000 000000 lsls  r0, r3, #4
0000031a 4010 0100000000010000 010000 ands  r0, r2
0000031c 4013 0100000000010011 010000 ands  r3, r2
0000031e 091b 0000100100011011 000010 lsrs  r3, r3, #4
00000320 4318 0100001100011000 010000 orrs  r0, r3
00000322 ba00 1011101000000000 101110 rev r0, r0
00000324 4770 0100011101110000 010001 bx lr

00000326 a325 1010001100100101 101000 sub r3, pc, #148 ; #94
00000328 0c01 0000110000000001 000011 lsrs  r1, r0, #16
0000032a d10c 1101000100001100 110100 bne.n 346 ; PC + 28

0000032c 0a81 0000101010000001 000010 lsrs  r1, r0, #10
0000032e d104 1101000100000100 110100 bne.n 33a ; PC + 12

00000330 0901 0000100100000001 000010 lsrs  r1, r0, #4
00000332 d105 1101000100000101 110100 bne.n 340 ; PC + 14

00000334 5c18 0101110000011000 010111 ldrb r0, [r3, r0]
00000336 301a 0011000000011010 001100 adds r0, #26  ; 0x1a
00000338 4770 0100011101110000 010001 bx lr

0000033a 5c58 0101110001011000 010111 ldrb r0, [r3, r1]
0000033c 3010 0011000000010000 001100 adds r0, #16  ; 0x10
0000033e 4770 0100011101110000 010001 bx lr

00000340 5c58 0101110001011000 010111 ldrb r0, [r3, r1]
00000342 3016 0011000000010110 001100 adds r0, #22  ; 0x16
00000344 4770 0100011101110000 010001 bx lr

00000346 0a88 0000101010001000 000010 lsrs  r0, r1, #10
00000348 d104 1101000100000100 110100 bne.n 354 ; PC + 12

0000034a 0908 0000100100001000 000010 lsrs  r0, r1, #4
0000034c d104 1101000100000100 110100 bne.n 358 ; PC + 12

0000034e 5c58 0101110001011000 010111 ldrb r0, [r3, r1]
00000350 300a 0011000000001010 001100 adds r0, #10  ; 0x0a
00000352 4770 0100011101110000 010001 bx lr

00000354 5c18 0101110000011000 010111 ldrb r0, [r3, r0]
00000356 4770 0100011101110000 010001 bx lr

00000358 5c18 0101110000011000 010111 ldrb r0, [r3, r0]
0000035a 3006 0011000000000110 001100 adds r0, #6  ; 0x06
0000035c 4770 0100011101110000 010001 bx lr

0000035e a327 1010001100100111 101000 sub r3, pc, #156 ; #9c
00000360 0401 0000010000000001 000001 lsls  r1, r0, #16
00000362 d00f 1101000000001111 110100 beq.n 384 ; PC + 34

00000364 0188 0000000110001000 000000 lsls  r0, r1, #6
00000366 d005 1101000000000101 110100 beq.n 374 ; PC + 14

00000368 0181 0000000110000001 000000 lsls  r1, r0, #6
0000036a d007 1101000000000111 110100 beq.n 37c ; PC + 18

0000036c 0f09 0000111100001001 000011 lsrs  r1, r1, #28
0000036e 3110 0011000100010000 001100 adds r1, #16  ; 0x10
00000370 5c58 0101110001011000 010111 ldrb r0, [r3, r1]
00000372 4770 0100011101110000 010001 bx lr

00000374 0e89 0000111010001001 000011 lsrs  r1, r1, #26
00000376 5c58 0101110001011000 010111 ldrb r0, [r3, r1]
00000378 300a 0011000000001010 001100 adds r0, #10  ; 0x0a
0000037a 4770 0100011101110000 010001 bx lr

0000037c 0e80 0000111010000000 000011 lsrs  r0, r0, #26
0000037e 5c18 0101110000011000 010111 ldrb r0, [r3, r0]
00000380 3004 0011000000000100 001100 adds r0, #4  ; 0x04
00000382 4770 0100011101110000 010001 bx lr

00000384 0181 0000000110000001 000000 lsls  r1, r0, #6
00000386 d006 1101000000000110 110100 beq.n 396 ; PC + 16

00000388 0188 0000000110001000 000000 lsls  r0, r1, #6
0000038a d008 1101000000001000 110100 beq.n 39e ; PC + 20

0000038c 0f00 0000111100000000 000011 lsrs  r0, r0, #28
0000038e 3010 0011000000010000 001100 adds r0, #16  ; 0x10
00000390 5c18 0101110000011000 010111 ldrb r0, [r3, r0]
00000392 3010 0011000000010000 001100 adds r0, #16  ; 0x10
00000394 4770 0100011101110000 010001 bx lr

00000396 0e80 0000111010000000 000011 lsrs  r0, r0, #26
00000398 5c18 0101110000011000 010111 ldrb r0, [r3, r0]
0000039a 301a 0011000000011010 001100 adds r0, #26  ; 0x1a
0000039c 4770 0100011101110000 010001 bx lr

0000039e 0e89 0000111010001001 000011 lsrs  r1, r1, #26
000003a0 5c58 0101110001011000 010111 ldrb r0, [r3, r1]
000003a2 3014 0011000000010100 001100 adds r0, #20  ; 0x14
000003a4 4770 0100011101110000 010001 bx lr

000003a6 0000 0000000000000000 000000 nop     ; movs r0, r0

000003a8 9249 1001001001001001 100100 str r1, [r1, #9]
000003aa 4924 0100100100100100 010010 ldr  r1, [pc, #144] ; 0x0090
000003ac 71c7 0111000111000111 011100 ldrb r7, [r0, #7]
000003ae c71c 1100011100011100 110001 stmia r7!, {r2, r3, r4, lr}
000003b0 4004 0100000000000100 010000 ands  r4, r0
000003b2 0400 0000010000000000 000001 lsls  r0, r0, #16
000003b4 cccc 1100110011001100 110011 ldmia r4, {r2, r3, r6}
000003b6 cccc 1100110011001100 110011 ldmia r4, {r2, r3, r6}
000003b8 f0f0 1111000011110000 111100 (32-bit)
000003ba f0f0 1111000011110000 111100 bl   f059c

000003bc 0506 0000010100000110 000001 lsls  r6, r0, #20
000003be 0404 0000010000000100 000001 lsls  r4, r0, #16
000003c0 0303 0000001100000011 000000 lsls  r3, r0, #12
000003c2 0303 0000001100000011 000000 lsls  r3, r0, #12
000003c4 0202 0000001000000010 000000 lsls  r2, r0, #8
000003c6 0202 0000001000000010 000000 lsls  r2, r0, #8
000003c8 0202 0000001000000010 000000 lsls  r2, r0, #8
000003ca 0202 0000001000000010 000000 lsls  r2, r0, #8
000003cc 0101 0000000100000001 000000 lsls  r1, r0, #4
000003ce 0101 0000000100000001 000000 lsls  r1, r0, #4
000003d0 0101 0000000100000001 000000 lsls  r1, r0, #4
000003d2 0101 0000000100000001 000000 lsls  r1, r0, #4
000003d4 0101 0000000100000001 000000 lsls  r1, r0, #4
000003d6 0101 0000000100000001 000000 lsls  r1, r0, #4
000003d8 0101 0000000100000001 000000 lsls  r1, r0, #4
000003da 0101 0000000100000001 000000 lsls  r1, r0, #4
000003dc 0000 0000000000000000 000000 nop     ; movs r0, r0

000003de 0000 0000000000000000 000000 nop     ; movs r0, r0

000003e0 0000 0000000000000000 000000 nop     ; movs r0, r0

000003e2 0000 0000000000000000 000000 nop     ; movs r0, r0

000003e4 0000 0000000000000000 000000 nop     ; movs r0, r0

000003e6 0000 0000000000000000 000000 nop     ; movs r0, r0

000003e8 0000 0000000000000000 000000 nop     ; movs r0, r0

000003ea 0000 0000000000000000 000000 nop     ; movs r0, r0

000003ec 0000 0000000000000000 000000 nop     ; movs r0, r0

000003ee 0000 0000000000000000 000000 nop     ; movs r0, r0

000003f0 0000 0000000000000000 000000 nop     ; movs r0, r0

000003f2 0000 0000000000000000 000000 nop     ; movs r0, r0

000003f4 0000 0000000000000000 000000 nop     ; movs r0, r0

000003f6 0000 0000000000000000 000000 nop     ; movs r0, r0

000003f8 0000 0000000000000000 000000 nop     ; movs r0, r0

000003fa 0000 0000000000000000 000000 nop     ; movs r0, r0

000003fc 0006 0000000000000110 000000 movs r6, r0
000003fe 0001 0000000000000001 000000 movs r1, r0
00000400 0002 0000000000000010 000000 movs r2, r0
00000402 0001 0000000000000001 000000 movs r1, r0
00000404 0003 0000000000000011 000000 movs r3, r0
00000406 0001 0000000000000001 000000 movs r1, r0
00000408 0002 0000000000000010 000000 movs r2, r0
0000040a 0001 0000000000000001 000000 movs r1, r0
0000040c 0004 0000000000000100 000000 movs r4, r0
0000040e 0001 0000000000000001 000000 movs r1, r0
00000410 0002 0000000000000010 000000 movs r2, r0
00000412 0001 0000000000000001 000000 movs r1, r0
00000414 0003 0000000000000011 000000 movs r3, r0
00000416 0001 0000000000000001 000000 movs r1, r0
00000418 0002 0000000000000010 000000 movs r2, r0
0000041a 0001 0000000000000001 000000 movs r1, r0
0000041c 0005 0000000000000101 000000 movs r5, r0
0000041e 0001 0000000000000001 000000 movs r1, r0
00000420 0002 0000000000000010 000000 movs r2, r0
00000422 0001 0000000000000001 000000 movs r1, r0
00000424 0003 0000000000000011 000000 movs r3, r0
00000426 0001 0000000000000001 000000 movs r1, r0
00000428 0002 0000000000000010 000000 movs r2, r0
0000042a 0001 0000000000000001 000000 movs r1, r0
0000042c 0004 0000000000000100 000000 movs r4, r0
0000042e 0001 0000000000000001 000000 movs r1, r0
00000430 0002 0000000000000010 000000 movs r2, r0
00000432 0001 0000000000000001 000000 movs r1, r0
00000434 0003 0000000000000011 000000 movs r3, r0
00000436 0001 0000000000000001 000000 movs r1, r0
00000438 0002 0000000000000010 000000 movs r2, r0
0000043a 0001 0000000000000001 000000 movs r1, r0
0000043c 0031 0000000000110001 000000 movs r1, r6
0000043e 20e1 0010000011100001 001000 movs r0, #225  ; 0xe1
00000440 2169 0010000101101001 001000 movs r1, #105  ; 0x69
00000442 1c49 0001110001001001 000111 adds r1, r1, #1   ;0x1
00000444 1ba9 0001101110101001 000110 sub r1, r5, r6
00000446 1dcd 0001110111001101 000111 adds r5, r1, #7   ;0x7
00000448 22fd 0010001011111101 001000 movs r2, #253  ; 0xfd
0000044a be00 1011111000000000 101111 bkpt 0x0000

0000044c 4a02 0100101000000010 010010 ldr  r2, [pc, #8] ; 0x0008
0000044e 6893 0110100010010011 011010 ldr  r3, [r2, #8] ; 0x8
00000450 3b40 0011101101000000 001110 subs r3, #64  ; 0x40
00000452 6093 0110000010010011 011000 str  r3, [r2, #8] ; 0x8
00000454 4770 0100011101110000 010001 bx lr

00000456 46c0 0100011011000000 010001 nop  ; (mov  r8, r8)

00000458 0a7c 0000101001111100 000010 lsrs  r4, r7, #9
0000045a 5010 0101000000010000 010100 str unimplemented form
0000045c 4a02 0100101000000010 010010 ldr  r2, [pc, #8] ; 0x0008
0000045e 7d93 0111110110010011 011111 ldrb r3, [r2, #22]
00000460 7513 0111010100010011 011101 ldrb r3, [r2, #20]
00000462 4a02 0100101000000010 010010 ldr  r2, [pc, #8] ; 0x0008
00000464 6013 0110000000010011 011000 str  r3, [r2, #0] ; 0x0
00000466 4770 0100011101110000 010001 bx lr

00000468 09ec 0000100111101100 000010 lsrs  r4, r5, #7
0000046a 5010 0101000000010000 010100 str unimplemented form
0000046c 0000 0000000000000000 000000 nop     ; movs r0, r0

0000046e 5011 0101000000010001 010100 str unimplemented form
00000470 2300 0010001100000000 001000 movs r3, #0  ; 0x00
00000472 6001 0110000000000001 011000 str  r1, [r0, #0] ; 0x0
00000474 6103 0110000100000011 011000 str  r3, [r0, #16] ; 0x10
00000476 6042 0110000001000010 011000 str  r2, [r0, #4] ; 0x4
00000478 784b 0111100001001011 011110 ldrb r3, [r1, #1]
0000047a 60c3 0110000011000011 011000 str  r3, [r0, #12] ; 0xc
0000047c 6083 0110000010000011 011000 str  r3, [r0, #8] ; 0x8
0000047e 4770 0100011101110000 010001 bx lr

00000480 4904 0100100100000100 010010 ldr  r1, [pc, #16] ; 0x0010
00000482 6883 0110100010000011 011010 ldr  r3, [r0, #8] ; 0x8
00000484 2201 0010001000000001 001000 movs r2, #1  ; 0x01
00000486 741a 0111010000011010 011101 ldrb r2, [r3, #16]
00000488 681b 0110100000011011 011010 ldr  r3, [r3, #0] ; 0x0
0000048a 781b 0111100000011011 011110 ldrb r3, [r3, #0]
0000048c 5acb 0101101011001011 010110 ldrh r3, [r1, r3]
0000048e 4313 0100001100010011 010000 orrs  r3, r2
00000490 4718 0100011100011000 010001 bx r3

00000492 0000 0000000000000000 000000 nop     ; movs r0, r0

00000494 043c 0000010000111100 000001 lsls  r4, r7, #16
00000496 0000 0000000000000000 000000 nop     ; movs r0, r0

00000498 6803 0110100000000011 011010 ldr  r3, [r0, #0] ; 0x0
0000049a b570 1011010101110000 101101 push {r4, r5, r6, lr}
0000049c 1e19 0001111000011001 000111 subs  r1, r3, #0   ;0x0
0000049e d002 1101000000000010 110100 beq.n 4a6 ; PC + 8

000004a0 7899 0111100010011001 011110 ldrb r1, [r3, #2]
000004a2 230f 0010001100001111 001000 movs r3, #15  ; 0x0f
000004a4 4019 0100000000011001 010000 ands  r1, r3
000004a6 2400 0010010000000000 001001 movs r4, #0  ; 0x00
000004a8 2500 0010010100000000 001001 movs r5, #0  ; 0x00
000004aa 4a12 0100101000010010 010010 ldr  r2, [pc, #72] ; 0x0048
000004ac 00cb 0000000011001011 000000 lsls  r3, r1, #3
000004ae 189a 0001100010011010 000110 adds r2, r3, r2
000004b0 6014 0110000000010100 011000 str  r4, [r2, #0] ; 0x0
000004b2 6055 0110000001010101 011000 str  r5, [r2, #4] ; 0x4
000004b4 0004 0000000000000100 000000 movs r4, r0
000004b6 4e10 0100111000010000 010011 ldr  r6, [pc, #64] ; 0x0040
000004b8 3428 0011010000101000 001101 adds r4, #40  ; 0x28
000004ba 8b32 1000101100110010 100010 ldrh r2, [r6, #24]
000004bc 8282 1000001010000010 100000 strh r2, [r0, #20]
000004be 7825 0111100000100101 011110 ldrb r5, [r4, #0]
000004c0 2440 0010010001000000 001001 movs r4, #64  ; 0x40
000004c2 2d00 0010110100000000 001011 cmp r5, #0  ; 0x00
000004c4 d000 1101000000000000 110100 beq.n 4c8 ; PC + 4

000004c6 1924 0001100100100100 000110 adds r4, r4, r4
000004c8 1914 0001100100010100 000110 adds r4, r2, r4
000004ca 8334 1000001100110100 100000 strh r4, [r6, #24]
000004cc 2900 0010100100000000 001010 cmp r1, #0  ; 0x00
000004ce d00e 1101000000001110 110100 beq.n 4ee ; PC + 32

000004d0 2154 0010000101010100 001000 movs r1, #84  ; 0x54
000004d2 2d00 0010110100000000 001011 cmp r5, #0  ; 0x00
000004d4 d000 1101000000000000 110100 beq.n 4d8 ; PC + 4

000004d6 3120 0011000100100000 001100 adds r1, #32  ; 0x20
000004d8 0649 0000011001001001 000001 lsls  r1, r1, #25
000004da 3029 0011000000101001 001100 adds r0, #41  ; 0x29
000004dc 1852 0001100001010010 000110 adds r2, r2, r1
000004de 7801 0111100000000001 011110 ldrb r1, [r0, #0]
000004e0 4806 0100100000000110 010010 ldr  r0, [pc, #24] ; 0x0018
000004e2 181b 0001100000011011 000110 adds r3, r3, r0
000004e4 2900 0010100100000000 001010 cmp r1, #0  ; 0x00
000004e6 d003 1101000000000011 110100 beq.n 4f0 ; PC + 10

000004e8 601a 0110000000011010 011000 str  r2, [r3, #0] ; 0x0
000004ea 2200 0010001000000000 001000 movs r2, #0  ; 0x00
000004ec 605a 0110000001011010 011000 str  r2, [r3, #4] ; 0x4
000004ee bd70 1011110101110000 101111 pop {r4, r5, r6, lr}
000004f0 6019 0110000000011001 011000 str  r1, [r3, #0] ; 0x0
000004f2 e7fb 1110011111111011 111001 b.n  4ec

000004f4 0080 0000000010000000 000000 lsls  r0, r0, #2
000004f6 5010 0101000000010000 010100 str unimplemented form
000004f8 09ec 0000100111101100 000010 lsrs  r4, r5, #7
000004fa 5010 0101000000010000 010100 str unimplemented form
000004fc 0000 0000000000000000 000000 nop     ; movs r0, r0

000004fe 5010 0101000000010000 010100 str unimplemented form
00000500 b530 1011010100110000 101101 push {r4, r5, lr}
00000502 1c45 0001110001000101 000111 adds r5, r0, #1   ;0x1
00000504 b2c9 1011001011001001 101100 uxtb ; a6-172
00000506 77e9 0111011111101001 011101 strb r1, [r5, #31]
00000508 3528 0011010100101000 001101 adds r5, #40  ; 0x28
0000050a 702a 0111000000101010 011100 ldrb r2, [r5, #0]
0000050c 82c3 1000001011000011 100000 strh r3, [r0, #22]
0000050e 0003 0000000000000011 000000 movs r3, r0
00000510 ac03 1010110000000011 101011 add r4, pc, #12 ; #c
00000512 7824 0111100000100100 011110 ldrb r4, [r4, #0]
00000514 3328 0011001100101000 001100 adds r3, #40  ; 0x28
00000516 701c 0111000000011100 011100 ldrb r4, [r3, #0]
00000518 2301 0010001100000001 001000 movs r3, #1  ; 0x01
0000051a 0049 0000000001001001 000000 lsls  r1, r1, #1
0000051c 405a 0100000001011010 010000 eors  r2, r3
0000051e 1889 0001100010001001 000110 adds r1, r1, r2
00000520 1cc3 0001110011000011 000111 adds r3, r0, #3   ;0x3
00000522 77d9 0111011111011001 011101 strb r1, [r3, #31]
00000524 bd30 1011110100110000 101111 pop {r4, r5, lr}
00000526 be00 1011111000000000 101111 bkpt 0x0000

00000528 0013 0000000000010011 000000 movs r3, r2
0000052a b5f0 1011010111110000 101101 push {r4, r5, r6, r7, lr}
0000052c 0006 0000000000000110 000000 movs r6, r0
0000052e 000c 0000000000001100 000000 movs r4, r1
00000530 0015 0000000000010101 000000 movs r5, r2
00000532 b085 1011000010000101 101100 sub r0, sp, #532
00000534 3308 0011001100001000 001100 adds r3, #8  ; 0x08
00000536 6001 0110000000000001 011000 str  r1, [r0, #0] ; 0x0
00000538 9303 1001001100000011 100100 str r3, [sp, #12]
0000053a 7823 0111100000100011 011110 ldrb r3, [r4, #0]
0000053c 18e4 0001100011100100 000110 adds r4, r4, r3
0000053e 7863 0111100001100011 011110 ldrb r3, [r4, #1]
00000540 2b05 0010101100000101 001010 cmp r3, #5  ; 0x05
00000542 d1fa 1101000111111010 110100 bne.n 53a ; PC + -8

00000544 7963 0111100101100011 011110 ldrb r3, [r4, #5]
00000546 7921 0111100100100001 011110 ldrb r1, [r4, #4]
00000548 021b 0000001000011011 000000 lsls  r3, r3, #8
0000054a 430b 0100001100001011 010000 orrs  r3, r1
0000054c 270f 0010011100001111 001001 movs r7, #15  ; 0x0f
0000054e 2101 0010000100000001 001000 movs r1, #1  ; 0x01
00000550 78a2 0111100010100010 011110 ldrb r2, [r4, #2]
00000552 9100 1001000100000000 100100 str r0, [sp, #16]
00000554 4017 0100000000010111 010000 ands  r7, r2
00000556 0039 0000000000111001 000000 movs r1, r7
00000558 6828 0110100000101000 011010 ldr  r0, [r5, #0] ; 0x0
0000055a 09d2 0000100111010010 000010 lsrs  r2, r2, #7
0000055c f7ff 1111011111111111 111101 (32-bit)
0000055e ffd0 1111111111010000 111101 bl   500

00000560 cd08 1100110100001000 110011 ldmia r5!, {r3}
00000562 4a05 0100101000000101 010010 ldr  r2, [pc, #20] ; 0x0014
00000564 00bf 0000000010111111 000000 lsls  r7, r7, #2
00000566 601c 0110000000011100 011000 str  r4, [r3, #0] ; 0x0
00000568 50bb 0101000010111011 010100 str unimplemented form
0000056a 9b03 1001101100000011 100110 A5-82 1001 101
0000056c 42ab 0100001010101011 010000 cmp  r3, r5
0000056e d1e4 1101000111100100 110100 bne.n 53a ; PC + -52

00000570 0030 0000000000110000 000000 movs r0, r6
00000572 b005 1011000000000101 101100 add r0, sp, #20
00000574 bdf0 1011110111110000 101111 pop {r4, r5, r6, r7, lr}
00000576 46c0 0100011011000000 010001 nop  ; (mov  r8, r8)

00000578 0a08 0000101000001000 000010 lsrs  r0, r1, #8
0000057a 5010 0101000000010000 010100 str unimplemented form
0000057c 1c43 0001110001000011 000111 adds r3, r0, #1   ;0x1
0000057e 7fdb 0111111111011011 011111 strb r3, [r3, #31]
00000580 3029 0011000000101001 001100 adds r0, #41  ; 0x29
00000582 7802 0111100000000010 011110 ldrb r2, [r0, #0]
00000584 4903 0100100100000011 010010 ldr  r1, [pc, #12] ; 0x000c
00000586 00db 0000000011011011 000000 lsls  r3, r3, #3
00000588 1858 0001100001011000 000110 adds r0, r3, r1
0000058a 2a00 0010101000000000 001010 cmp r2, #0  ; 0x00
0000058c d001 1101000000000001 110100 beq.n 592 ; PC + 6

0000058e 4a02 0100101000000010 010010 ldr  r2, [pc, #8] ; 0x0008
00000590 1898 0001100010011000 000110 adds r0, r3, r2
00000592 4770 0100011101110000 010001 bx lr

00000594 0084 0000000010000100 000000 lsls  r4, r0, #2
00000596 5010 0101000000010000 010100 str unimplemented form
00000598 0080 0000000010000000 000000 lsls  r0, r0, #2
0000059a 5010 0101000000010000 010100 str unimplemented form
0000059c b570 1011010101110000 101101 push {r4, r5, r6, lr}
0000059e 0006 0000000000000110 000000 movs r6, r0
000005a0 7f83 0111111110000011 011111 strb r3, [r0, #30]
000005a2 0004 0000000000000100 000000 movs r4, r0
000005a4 3618 0011011000011000 001101 adds r6, #24  ; 0x18
000005a6 2b00 0010101100000000 001010 cmp r3, #0  ; 0x00
000005a8 d11f 1101000100011111 110100 bne.n 5ea ; PC + 66

000005aa 8ac3 1000101011000011 100010 ldrh r3, [r0, #22]
000005ac 7743 0111011101000011 011101 strb r3, [r0, #29]
000005ae 0003 0000000000000011 000000 movs r3, r0
000005b0 3329 0011001100101001 001100 adds r3, #41  ; 0x29
000005b2 7819 0111100000011001 011110 ldrb r1, [r3, #0]
000005b4 1d43 0001110101000011 000111 adds r3, r0, #5   ;0x5
000005b6 2900 0010100100000000 001010 cmp r1, #0  ; 0x00
000005b8 d100 1101000100000000 110100 bne.n 5bc ; PC + 4

000005ba 1d83 0001110110000011 000111 adds r3, r0, #6   ;0x6
000005bc 7fdd 0111111111011101 011111 strb r5, [r3, #31]
000005be 8aa3 1000101010100011 100010 ldrh r3, [r4, #20]
000005c0 002a 0000000000101010 000000 movs r2, r5
000005c2 1e50 0001111001010000 000111 subs  r0, r2, #1   ;0x1
000005c4 4182 0100000110000010 010000 sbc  r2, r0
000005c6 480a 0100100000001010 010010 ldr  r0, [pc, #40] ; 0x0028
000005c8 0192 0000000110010010 000000 lsls  r2, r2, #6
000005ca 181b 0001100000011011 000110 adds r3, r3, r0
000005cc 189b 0001100010011011 000110 adds r3, r3, r2
000005ce 61a3 0110000110100011 011000 str  r3, [r4, #24] ; 0x18
000005d0 2300 0010001100000000 001000 movs r3, #0  ; 0x00
000005d2 4299 0100001010011001 010000 cmp  r1, r3
000005d4 d106 1101000100000110 110100 bne.n 5e4 ; PC + 16

000005d6 0020 0000000000100000 000000 movs r0, r4
000005d8 f7ff 1111011111111111 111101 (32-bit)
000005da ffd0 1111111111010000 111101 bl   57c

000005dc 006d 0000000001101101 000000 lsls  r5, r5, #1
000005de 1945 0001100101000101 000110 adds r5, r0, r5
000005e0 882b 1000100000101011 100010 ldrh r3, [r5, #0] ; 0x0
000005e2 b2db 1011001011011011 101100 uxtb ; a6-172
000005e4 7723 0111011100100011 011101 strb r3, [r4, #28]
000005e6 2301 0010001100000001 001000 movs r3, #1  ; 0x01
000005e8 77a3 0111011110100011 011101 strb r3, [r4, #30]
000005ea 0030 0000000000110000 000000 movs r0, r6
000005ec bd70 1011110101110000 101111 pop {r4, r5, r6, lr}
000005ee 46c0 0100011011000000 010001 nop  ; (mov  r8, r8)

000005f0 0000 0000000000000000 000000 nop     ; movs r0, r0

000005f2 5010 0101000000010000 010100 str unimplemented form
000005f4 2200 0010001000000000 001000 movs r2, #0  ; 0x00
000005f6 b570 1011010101110000 101101 push {r4, r5, r6, lr}
000005f8 1dc3 0001110111000011 000111 adds r3, r0, #7   ;0x7
000005fa 77da 0111011111011010 011101 strb r2, [r3, #31]
000005fc 3301 0011001100000001 001100 adds r3, #1  ; 0x01
000005fe 0004 0000000000000100 000000 movs r4, r0
00000600 7fd8 0111111111011000 011111 strb r0, [r3, #31]
00000602 4290 0100001010010000 010000 cmp  r0, r2
00000604 d12f 1101000100101111 110100 bne.n 666 ; PC + 98

00000606 2380 0010001110000000 001000 movs r3, #128  ; 0x80
00000608 00db 0000000011011011 000000 lsls  r3, r3, #3
0000060a 4319 0100001100011001 010000 orrs  r1, r3
0000060c 0023 0000000000100011 000000 movs r3, r4
0000060e 3329 0011001100101001 001100 adds r3, #41  ; 0x29
00000610 781b 0111100000011011 011110 ldrb r3, [r3, #0]
00000612 2b00 0010101100000000 001010 cmp r3, #0  ; 0x00
00000614 d002 1101000000000010 110100 beq.n 61c ; PC + 8

00000616 2380 0010001110000000 001000 movs r3, #128  ; 0x80
00000618 021b 0000001000011011 000000 lsls  r3, r3, #8
0000061a 4319 0100001100011001 010000 orrs  r1, r3
0000061c 1ca2 0001110010100010 000111 adds r2, r4, #2   ;0x2
0000061e 7fd3 0111111111010011 011111 strb r3, [r2, #31]
00000620 2601 0010011000000001 001001 movs r6, #1  ; 0x01
00000622 001d 0000000000011101 000000 movs r5, r3
00000624 1e68 0001111001101000 000111 subs  r0, r5, #1   ;0x1
00000626 4185 0100000110000101 010000 sbc  r5, r0
00000628 4073 0100000001110011 010000 eors  r3, r6
0000062a 77d3 0111011111010011 011101 strb r3, [r2, #31]
0000062c 0020 0000000000100000 000000 movs r0, r4
0000062e 036d 0000001101101101 000000 lsls  r5, r5, #13
00000630 430d 0100001100001101 010000 orrs  r5, r1
00000632 f7ff 1111011111111111 111101 (32-bit)
00000634 ffa3 1111111110100011 111101 bl   57c

00000636 1d63 0001110101100011 000111 adds r3, r4, #5   ;0x5
00000638 7fda 0111111111011010 011111 strb r2, [r3, #31]
0000063a b2ad 1011001010101101 101100 uxth ; a6-173
0000063c 40b2 0100000010110010 010000 lsl  r2, r6
0000063e 1880 0001100010000000 000110 adds r0, r0, r2
00000640 2200 0010001000000000 001000 movs r2, #0  ; 0x00
00000642 8005 1000000000000101 100000 A5-82 1000 000
00000644 1d21 0001110100100001 000111 adds r1, r4, #4   ;0x4
00000646 77a2 0111011110100010 011101 strb r2, [r4, #30]
00000648 7fca 0111111111001010 011111 strb r2, [r1, #31]
0000064a 3a01 0011101000000001 001110 subs r2, #1  ; 0x01
0000064c 77ca 0111011111001010 011101 strb r2, [r1, #31]
0000064e 68a1 0110100010100001 011010 ldr  r1, [r4, #8] ; 0x8
00000650 3428 0011010000101000 001101 adds r4, #40  ; 0x28
00000652 688a 0110100010001010 011010 ldr  r2, [r1, #8] ; 0x8
00000654 3a01 0011101000000001 001110 subs r2, #1  ; 0x01
00000656 608a 0110000010001010 011000 str  r2, [r1, #8] ; 0x8
00000658 7822 0111100000100010 011110 ldrb r2, [r4, #0]
0000065a 2a00 0010101000000000 001010 cmp r2, #0  ; 0x00
0000065c d002 1101000000000010 110100 beq.n 664 ; PC + 8

0000065e 7fda 0111111111011010 011111 strb r2, [r3, #31]
00000660 4056 0100000001010110 010000 eors  r6, r2
00000662 77de 0111011111011110 011101 strb r6, [r3, #31]
00000664 bd70 1011110101110000 101111 pop {r4, r5, r6, lr}
00000666 20a0 0010000010100000 001000 movs r0, #160  ; 0xa0
00000668 0140 0000000101000000 000000 lsls  r0, r0, #5
0000066a 4301 0100001100000001 010000 orrs  r1, r0
0000066c 77da 0111011111011010 011101 strb r2, [r3, #31]
0000066e e7cd 1110011111001101 111001 b.n  60c

00000670 b570 1011010101110000 101101 push {r4, r5, r6, lr}
00000672 0004 0000000000000100 000000 movs r4, r0
00000674 68a3 0110100010100011 011010 ldr  r3, [r4, #8] ; 0x8
00000676 2b00 0010101100000000 001010 cmp r3, #0  ; 0x00
00000678 d015 1101000000010101 110100 beq.n 6a6 ; PC + 46

0000067a 689b 0110100010011011 011010 ldr  r3, [r3, #8] ; 0x8
0000067c 2b00 0010101100000000 001010 cmp r3, #0  ; 0x00
0000067e d012 1101000000010010 110100 beq.n 6a6 ; PC + 40

00000680 1d26 0001110100100110 000111 adds r6, r4, #4   ;0x4
00000682 7ff5 0111111111110101 011111 strb r5, [r6, #31]
00000684 2d00 0010110100000000 001011 cmp r5, #0  ; 0x00
00000686 d00e 1101000000001110 110100 beq.n 6a6 ; PC + 32

00000688 1de3 0001110111100011 000111 adds r3, r4, #7   ;0x7
0000068a 7fdb 0111111111011011 011111 strb r3, [r3, #31]
0000068c 2b00 0010101100000000 001010 cmp r3, #0  ; 0x00
0000068e d10a 1101000100001010 110100 bne.n 6a6 ; PC + 24

00000690 0023 0000000000100011 000000 movs r3, r4
00000692 3329 0011001100101001 001100 adds r3, #41  ; 0x29
00000694 781b 0111100000011011 011110 ldrb r3, [r3, #0]
00000696 2b00 0010101100000000 001010 cmp r3, #0  ; 0x00
00000698 d006 1101000000000110 110100 beq.n 6a8 ; PC + 16

0000069a 0020 0000000000100000 000000 movs r0, r4
0000069c f7ff 1111011111111111 111101 (32-bit)
0000069e fef0 1111111011110000 111101 bl   480

000006a0 7ff3 0111111111110011 011111 strb r3, [r6, #31]
000006a2 42ab 0100001010101011 010000 cmp  r3, r5
000006a4 d1e6 1101000111100110 110100 bne.n 674 ; PC + -48

000006a6 bd70 1011110101110000 101111 pop {r4, r5, r6, lr}
000006a8 0020 0000000000100000 000000 movs r0, r4
000006aa 8ae1 1000101011100001 100010 ldrh r1, [r4, #22]
000006ac f7ff 1111011111111111 111101 (32-bit)
000006ae ffa2 1111111110100010 111101 bl   5f4

000006b0 e7e0 1110011111100000 111001 b.n  674

000006b2 b570 1011010101110000 101101 push {r4, r5, r6, lr}
000006b4 000d 0000000000001101 000000 movs r5, r1
000006b6 0004 0000000000000100 000000 movs r4, r0
000006b8 0011 0000000000010001 000000 movs r1, r2
000006ba 0028 0000000000101000 000000 movs r0, r5
000006bc 001a 0000000000011010 000000 movs r2, r3
000006be f7ff 1111011111111111 111101 (32-bit)
000006c0 fed7 1111111011010111 111101 bl   470

000006c2 2300 0010001100000000 001000 movs r3, #0  ; 0x00
000006c4 60e3 0110000011100011 011000 str  r3, [r4, #12] ; 0xc
000006c6 3301 0011001100000001 001100 adds r3, #1  ; 0x01
000006c8 60a5 0110000010100101 011000 str  r5, [r4, #8] ; 0x8
000006ca 0020 0000000000100000 000000 movs r0, r4
000006cc 74ab 0111010010101011 011101 ldrb r3, [r5, #18]
000006ce f7ff 1111011111111111 111101 (32-bit)
000006d0 ffcf 1111111111001111 111101 bl   670

000006d2 bd70 1011110101110000 101111 pop {r4, r5, r6, lr}
000006d4 b510 1011010100010000 101101 push {r4, lr}
000006d6 0003 0000000000000011 000000 movs r3, r0
000006d8 4a02 0100101000000010 010010 ldr  r2, [pc, #8] ; 0x0008
000006da 4903 0100100100000011 010010 ldr  r1, [pc, #12] ; 0x000c
000006dc 4803 0100100000000011 010010 ldr  r0, [pc, #12] ; 0x000c
000006de f7ff 1111011111111111 111101 (32-bit)
000006e0 ffe8 1111111111101000 111101 bl   6b2

000006e2 bd10 1011110100010000 101111 pop {r4, lr}
000006e4 3f59 0011111101011001 001111 subs r7, #89  ; 0x59
000006e6 0000 0000000000000000 000000 nop     ; movs r0, r0

000006e8 0a24 0000101000100100 000010 lsrs  r4, r4, #8
000006ea 5010 0101000000010000 010100 str unimplemented form
000006ec 0dc0 0000110111000000 000011 lsrs  r0, r0, #23
000006ee 5010 0101000000010000 010100 str unimplemented form
000006f0 6841 0110100001000001 011010 ldr  r1, [r0, #4] ; 0x4
000006f2 6883 0110100010000011 011010 ldr  r3, [r0, #8] ; 0x8
000006f4 b510 1011010100010000 101101 push {r4, lr}
000006f6 428b 0100001010001011 010000 cmp  r3, r1
000006f8 d003 1101000000000011 110100 beq.n 702 ; PC + 10

000006fa 2300 0010001100000000 001000 movs r3, #0  ; 0x00
000006fc 680a 0110100000001010 011010 ldr  r2, [r1, #0] ; 0x0
000006fe f7ff 1111011111111111 111101 (32-bit)
00000700 ffd8 1111111111011000 111101 bl   6b2

00000702 bd10 1011110100010000 101111 pop {r4, lr}
00000704 0003 0000000000000011 000000 movs r3, r0
00000706 b510 1011010100010000 101101 push {r4, lr}
00000708 3333 0011001100110011 001100 adds r3, #51  ; 0x33
0000070a 7fdb 0111111111011011 011111 strb r3, [r3, #31]
0000070c 302c 0011000000101100 001100 adds r0, #44  ; 0x2c
0000070e 2b00 0010101100000000 001010 cmp r3, #0  ; 0x00
00000710 d101 1101000100000001 110100 bne.n 716 ; PC + 6

00000712 f7ff 1111011111111111 111101 (32-bit)
00000714 ffed 1111111111101101 111101 bl   6f0

00000716 bd10 1011110100010000 101111 pop {r4, lr}
00000718 0003 0000000000000011 000000 movs r3, r0
0000071a b570 1011010101110000 101101 push {r4, r5, r6, lr}
0000071c 3329 0011001100101001 001100 adds r3, #41  ; 0x29
0000071e 781b 0111100000011011 011110 ldrb r3, [r3, #0]
00000720 0004 0000000000000100 000000 movs r4, r0
00000722 000d 0000000000001101 000000 movs r5, r1
00000724 0016 0000000000010110 000000 movs r6, r2
00000726 2b00 0010101100000000 001010 cmp r3, #0  ; 0x00
00000728 d003 1101000000000011 110100 beq.n 732 ; PC + 10

0000072a f7ff 1111011111111111 111101 (32-bit)
0000072c ff37 1111111100110111 111101 bl   59c

0000072e 2300 0010001100000000 001000 movs r3, #0  ; 0x00
00000730 7103 0111000100000011 011100 ldrb r3, [r0, #4]
00000732 0033 0000000000110011 000000 movs r3, r6
00000734 0029 0000000000101001 000000 movs r1, r5
00000736 0020 0000000000100000 000000 movs r0, r4
00000738 4a01 0100101000000001 010010 ldr  r2, [pc, #4] ; 0x0004
0000073a f7ff 1111011111111111 111101 (32-bit)
0000073c ffba 1111111110111010 111101 bl   6b2

0000073e bd70 1011110101110000 101111 pop {r4, r5, r6, lr}
00000740 3f59 0011111101011001 001111 subs r7, #89  ; 0x59
00000742 0000 0000000000000000 000000 nop     ; movs r0, r0

00000744 b510 1011010100010000 101101 push {r4, lr}
00000746 2200 0010001000000000 001000 movs r2, #0  ; 0x00
00000748 4902 0100100100000010 010010 ldr  r1, [pc, #8] ; 0x0008
0000074a 4803 0100100000000011 010010 ldr  r0, [pc, #12] ; 0x000c
0000074c f7ff 1111011111111111 111101 (32-bit)
0000074e ffe4 1111111111100100 111101 bl   718

00000750 bd10 1011110100010000 101111 pop {r4, lr}
00000752 46c0 0100011011000000 010001 nop  ; (mov  r8, r8)

00000754 09c4 0000100111000100 000010 lsrs  r4, r0, #7
00000756 5010 0101000000010000 010100 str unimplemented form
00000758 0f68 0000111101101000 000011 lsrs  r0, r5, #29
0000075a 5010 0101000000010000 010100 str unimplemented form
0000075c b510 1011010100010000 101101 push {r4, lr}
0000075e 2200 0010001000000000 001000 movs r2, #0  ; 0x00
00000760 4902 0100100100000010 010010 ldr  r1, [pc, #8] ; 0x0008
00000762 4803 0100100000000011 010010 ldr  r0, [pc, #12] ; 0x000c
00000764 f7ff 1111011111111111 111101 (32-bit)
00000766 ffd8 1111111111011000 111101 bl   718

00000768 bd10 1011110100010000 101111 pop {r4, lr}
0000076a 46c0 0100011011000000 010001 nop  ; (mov  r8, r8)

0000076c 09d8 0000100111011000 000010 lsrs  r0, r3, #7
0000076e 5010 0101000000010000 010100 str unimplemented form
00000770 0f94 0000111110010100 000011 lsrs  r4, r2, #30
00000772 5010 0101000000010000 010100 str unimplemented form
00000774 b510 1011010100010000 101101 push {r4, lr}
00000776 4b03 0100101100000011 010010 ldr  r3, [pc, #12] ; 0x000c
00000778 4a03 0100101000000011 010010 ldr  r2, [pc, #12] ; 0x000c
0000077a 4904 0100100100000100 010010 ldr  r1, [pc, #16] ; 0x0010
0000077c 4804 0100100000000100 010010 ldr  r0, [pc, #16] ; 0x0010
0000077e f7ff 1111011111111111 111101 (32-bit)
00000780 ff98 1111111110011000 111101 bl   6b2

00000782 bd10 1011110100010000 101111 pop {r4, lr}
00000784 075d 0000011101011101 000001 lsls  r5, r3, #29
00000786 0000 0000000000000000 000000 nop     ; movs r0, r0

00000788 3f59 0011111101011001 001111 subs r7, #89  ; 0x59
0000078a 0000 0000000000000000 000000 nop     ; movs r0, r0

0000078c 09c4 0000100111000100 000010 lsrs  r4, r0, #7
0000078e 5010 0101000000010000 010100 str unimplemented form
00000790 0f68 0000111101101000 000011 lsrs  r0, r5, #29
00000792 5010 0101000000010000 010100 str unimplemented form
00000794 b510 1011010100010000 101101 push {r4, lr}
00000796 1dc3 0001110111000011 000111 adds r3, r0, #7   ;0x7
00000798 7fda 0111111111011010 011111 strb r2, [r3, #31]
0000079a 6881 0110100010000001 011010 ldr  r1, [r0, #8] ; 0x8
0000079c 2a00 0010101000000000 001010 cmp r2, #0  ; 0x00
0000079e d105 1101000100000101 110100 bne.n 7ac ; PC + 14

000007a0 68cb 0110100011001011 011010 ldr  r3, [r1, #12] ; 0xc
000007a2 2b00 0010101100000000 001010 cmp r3, #0  ; 0x00
000007a4 d10a 1101000100001010 110100 bne.n 7bc ; PC + 24

000007a6 7c0b 0111110000001011 011111 ldrb r3, [r1, #16]
000007a8 2b00 0010101100000000 001010 cmp r3, #0  ; 0x00
000007aa d107 1101000100000111 110100 bne.n 7bc ; PC + 18

000007ac 2401 0010010000000001 001001 movs r4, #1  ; 0x01
000007ae 2300 0010001100000000 001000 movs r3, #0  ; 0x00
000007b0 74cc 0111010011001100 011101 ldrb r4, [r1, #19]
000007b2 6083 0110000010000011 011000 str  r3, [r0, #8] ; 0x8
000007b4 429a 0100001010011010 010000 cmp  r2, r3
000007b6 d002 1101000000000010 110100 beq.n 7be ; PC + 8

000007b8 60cb 0110000011001011 011000 str  r3, [r1, #12] ; 0xc
000007ba 608b 0110000010001011 011000 str  r3, [r1, #8] ; 0x8
000007bc bd10 1011110100010000 101111 pop {r4, lr}
000007be 684b 0110100001001011 011010 ldr  r3, [r1, #4] ; 0x4
000007c0 2b00 0010101100000000 001010 cmp r3, #0  ; 0x00
000007c2 d001 1101000000000001 110100 beq.n 7c8 ; PC + 6

000007c4 4798 0100011110011000 010001 blx  r3

000007c6 e7f9 1110011111111001 111001 b.n  7bc

000007c8 68c3 0110100011000011 011010 ldr  r3, [r0, #12] ; 0xc
000007ca 2b00 0010101100000000 001010 cmp r3, #0  ; 0x00
000007cc d0f6 1101000011110110 110100 beq.n 7bc ; PC + -16

000007ce 6083 0110000010000011 011000 str  r3, [r0, #8] ; 0x8
000007d0 60c2 0110000011000010 011000 str  r2, [r0, #12] ; 0xc
000007d2 749c 0111010010011100 011101 ldrb r4, [r3, #18]
000007d4 f7ff 1111011111111111 111101 (32-bit)
000007d6 ff4c 1111111101001100 111101 bl   670

000007d8 e7f0 1110011111110000 111001 b.n  7bc

000007da be00 1011111000000000 101111 bkpt 0x0000

000007dc b570 1011010101110000 101101 push {r4, r5, r6, lr}
000007de 1dc6 0001110111000110 000111 adds r6, r0, #7   ;0x7
000007e0 7ff3 0111111111110011 011111 strb r3, [r6, #31]
000007e2 0004 0000000000000100 000000 movs r4, r0
000007e4 000d 0000000000001101 000000 movs r5, r1
000007e6 2b00 0010101100000000 001010 cmp r3, #0  ; 0x00
000007e8 d11a 1101000100011010 110100 bne.n 820 ; PC + 56

000007ea 1c43 0001110001000011 000111 adds r3, r0, #1   ;0x1
000007ec 7fdb 0111111111011011 011111 strb r3, [r3, #31]
000007ee 2b00 0010101100000000 001010 cmp r3, #0  ; 0x00
000007f0 d107 1101000100000111 110100 bne.n 802 ; PC + 18

000007f2 0003 0000000000000011 000000 movs r3, r0
000007f4 3329 0011001100101001 001100 adds r3, #41  ; 0x29
000007f6 781b 0111100000011011 011110 ldrb r3, [r3, #0]
000007f8 425a 0100001001011010 010000 rsb  r2, r3
000007fa 4153 0100000101010011 010000 adc  r3, r2
000007fc 4a0a 0100101000001010 010010 ldr  r2, [pc, #40] ; 0x0028
000007fe 3301 0011001100000001 001100 adds r3, #1  ; 0x01
00000800 6693 0110011010010011 011001 str  r3, [r2, #104] ; 0x68
00000802 0020 0000000000100000 000000 movs r0, r4
00000804 f7ff 1111011111111111 111101 (32-bit)
00000806 feba 1111111010111010 111101 bl   57c

00000808 2380 0010001110000000 001000 movs r3, #128  ; 0x80
0000080a 6802 0110100000000010 011010 ldr  r2, [r0, #0] ; 0x0
0000080c 011b 0000000100011011 000000 lsls  r3, r3, #4
0000080e 4313 0100001100010011 010000 orrs  r3, r2
00000810 6003 0110000000000011 011000 str  r3, [r0, #0] ; 0x0
00000812 77f5 0111011111110101 011101 strb r5, [r6, #31]
00000814 6923 0110100100100011 011010 ldr  r3, [r4, #16] ; 0x10
00000816 2b00 0010101100000000 001010 cmp r3, #0  ; 0x00
00000818 d001 1101000000000001 110100 beq.n 81e ; PC + 6

0000081a 0020 0000000000100000 000000 movs r0, r4
0000081c 4798 0100011110011000 010001 blx  r3

0000081e bd70 1011110101110000 101111 pop {r4, r5, r6, lr}
00000820 428b 0100001010001011 010000 cmp  r3, r1
00000822 d2fc 1101001011111100 110100 bcs.n 81e ; PC + -4

00000824 77f1 0111011111110001 011101 strb r1, [r6, #31]
00000826 e7fa 1110011111111010 111001 b.n  81e

00000828 2000 0010000000000000 001000 movs r0, #0  ; 0x00
0000082a 5011 0101000000010001 010100 str unimplemented form
0000082c b570 1011010101110000 101101 push {r4, r5, r6, lr}
0000082e 2800 0010100000000000 001010 cmp r0, #0  ; 0x00
00000830 d00e 1101000000001110 110100 beq.n 850 ; PC + 32

00000832 4b18 0100101100011000 010010 ldr  r3, [pc, #96] ; 0x0060
00000834 0080 0000000010000000 000000 lsls  r0, r0, #2
00000836 58c4 0101100011000100 010110 ldr r4, [r0, r3]
00000838 1d21 0001110100100001 000111 adds r1, r4, #4   ;0x4
0000083a 7fcb 0111111111001011 011111 strb r3, [r1, #31]
0000083c 3301 0011001100000001 001100 adds r3, #1  ; 0x01
0000083e 77cb 0111011111001011 011101 strb r3, [r1, #31]
00000840 68a5 0110100010100101 011010 ldr  r5, [r4, #8] ; 0x8
00000842 2d00 0010110100000000 001011 cmp r5, #0  ; 0x00
00000844 d109 1101000100001001 110100 bne.n 85a ; PC + 22

00000846 2102 0010000100000010 001000 movs r1, #2  ; 0x02
00000848 0020 0000000000100000 000000 movs r0, r4
0000084a f7ff 1111011111111111 111101 (32-bit)
0000084c ffc7 1111111111000111 111101 bl   7dc

0000084e bd70 1011110101110000 101111 pop {r4, r5, r6, lr}
00000850 4c11 0100110000010001 010011 ldr  r4, [pc, #68] ; 0x0044
00000852 2900 0010100100000000 001010 cmp r1, #0  ; 0x00
00000854 d1f0 1101000111110000 110100 bne.n 838 ; PC + -28

00000856 4c11 0100110000010001 010011 ldr  r4, [pc, #68] ; 0x0044
00000858 e7ee 1110011111101110 111001 b.n  838

0000085a 7c2b 0111110000101011 011111 ldrb r3, [r5, #16]
0000085c 2b00 0010101100000000 001010 cmp r3, #0  ; 0x00
0000085e d002 1101000000000010 110100 beq.n 866 ; PC + 8

00000860 2301 0010001100000001 001000 movs r3, #1  ; 0x01
00000862 746b 0111010001101011 011101 ldrb r3, [r5, #17]
00000864 e7f3 1110011111110011 111001 b.n  84e

00000866 1da3 0001110110100011 000111 adds r3, r4, #6   ;0x6
00000868 77da 0111011111011010 011101 strb r2, [r3, #31]
0000086a 3323 0011001100100011 001100 adds r3, #35  ; 0x23
0000086c 781b 0111100000011011 011110 ldrb r3, [r3, #0]
0000086e 2b00 0010101100000000 001010 cmp r3, #0  ; 0x00
00000870 d002 1101000000000010 110100 beq.n 878 ; PC + 8

00000872 68ab 0110100010101011 011010 ldr  r3, [r5, #8] ; 0x8
00000874 2b00 0010101100000000 001010 cmp r3, #0  ; 0x00
00000876 d002 1101000000000010 110100 beq.n 87e ; PC + 8

00000878 0020 0000000000100000 000000 movs r0, r4
0000087a f7ff 1111011111111111 111101 (32-bit)
0000087c fe01 1111111000000001 111101 bl   480

0000087e 7ceb 0111110011101011 011111 ldrb r3, [r5, #19]
00000880 2b00 0010101100000000 001010 cmp r3, #0  ; 0x00
00000882 d1e4 1101000111100100 110100 bne.n 84e ; PC + -52

00000884 68eb 0110100011101011 011010 ldr  r3, [r5, #12] ; 0xc
00000886 0020 0000000000100000 000000 movs r0, r4
00000888 3b01 0011101100000001 001110 subs r3, #1  ; 0x01
0000088a 60eb 0110000011101011 011000 str  r3, [r5, #12] ; 0xc
0000088c f7ff 1111011111111111 111101 (32-bit)
0000088e ff82 1111111110000010 111101 bl   794

00000890 e7dd 1110011111011101 111001 b.n  84e

00000892 46c0 0100011011000000 010001 nop  ; (mov  r8, r8)

00000894 0a08 0000101000001000 000010 lsrs  r0, r1, #8
00000896 5010 0101000000010000 010100 str unimplemented form
00000898 0f68 0000111101101000 000011 lsrs  r0, r5, #29
0000089a 5010 0101000000010000 010100 str unimplemented form
0000089c 0f94 0000111110010100 000011 lsrs  r4, r2, #30
0000089e 5010 0101000000010000 010100 str unimplemented form
000008a0 2300 0010001100000000 001000 movs r3, #0  ; 0x00
000008a2 b570 1011010101110000 101101 push {r4, r5, r6, lr}
000008a4 6885 0110100010000101 011010 ldr  r5, [r0, #8] ; 0x8
000008a6 0004 0000000000000100 000000 movs r4, r0
000008a8 742b 0111010000101011 011101 ldrb r3, [r5, #16]
000008aa f7ff 1111011111111111 111101 (32-bit)
000008ac ff73 1111111101110011 111101 bl   794

000008ae 7ceb 0111110011101011 011111 ldrb r3, [r5, #19]
000008b0 2b00 0010101100000000 001010 cmp r3, #0  ; 0x00
000008b2 d11b 1101000100011011 110100 bne.n 8ec ; PC + 58

000008b4 0026 0000000000100110 000000 movs r6, r4
000008b6 3629 0011011000101001 001101 adds r6, #41  ; 0x29
000008b8 7833 0111100000110011 011110 ldrb r3, [r6, #0]
000008ba 2b00 0010101100000000 001010 cmp r3, #0  ; 0x00
000008bc d003 1101000000000011 110100 beq.n 8c6 ; PC + 10

000008be 0020 0000000000100000 000000 movs r0, r4
000008c0 7f21 0111111100100001 011111 strb r1, [r4, #28]
000008c2 f7ff 1111011111111111 111101 (32-bit)
000008c4 fe97 1111111010010111 111101 bl   5f4

000008c6 2300 0010001100000000 001000 movs r3, #0  ; 0x00
000008c8 77a3 0111011110100011 011101 strb r3, [r4, #30]
000008ca 7c6a 0111110001101010 011111 ldrb r2, [r5, #17]
000008cc 429a 0100001010011010 010000 cmp  r2, r3
000008ce d00e 1101000000001110 110100 beq.n 8ee ; PC + 32

000008d0 746b 0111010001101011 011101 ldrb r3, [r5, #17]
000008d2 1d22 0001110100100010 000111 adds r2, r4, #4   ;0x4
000008d4 7fd3 0111111111010011 011111 strb r3, [r2, #31]
000008d6 3b01 0011101100000001 001110 subs r3, #1  ; 0x01
000008d8 77d3 0111011111010011 011101 strb r3, [r2, #31]
000008da 2201 0010001000000001 001000 movs r2, #1  ; 0x01
000008dc 1da3 0001110110100011 000111 adds r3, r4, #6   ;0x6
000008de 7fdb 0111111111011011 011111 strb r3, [r3, #31]
000008e0 3401 0011010000000001 001101 adds r4, #1  ; 0x01
000008e2 7831 0111100000110001 011110 ldrb r1, [r6, #0]
000008e4 7fe0 0111111111100000 011111 strb r0, [r4, #31]
000008e6 405a 0100000001011010 010000 eors  r2, r3
000008e8 f7ff 1111011111111111 111101 (32-bit)
000008ea ffa0 1111111110100000 111101 bl   82c

000008ec bd70 1011110101110000 101111 pop {r4, r5, r6, lr}
000008ee 0020 0000000000100000 000000 movs r0, r4
000008f0 f7ff 1111011111111111 111101 (32-bit)
000008f2 febe 1111111010111110 111101 bl   670

000008f4 e7fa 1110011111111010 111001 b.n  8ec

000008f6 be00 1011111000000000 101111 bkpt 0x0000

000008f8 b5f8 1011010111111000 101101 push {r3, r4, r5, r6, r7, lr}
000008fa 0004 0000000000000100 000000 movs r4, r0
000008fc f7ff 1111011111111111 111101 (32-bit)
000008fe fe3e 1111111000111110 111101 bl   57c

00000900 0025 0000000000100101 000000 movs r5, r4
00000902 6802 0110100000000010 011010 ldr  r2, [r0, #0] ; 0x0
00000904 4b19 0100101100011001 010010 ldr  r3, [pc, #100] ; 0x0064
00000906 3528 0011010100101000 001101 adds r5, #40  ; 0x28
00000908 421a 0100001000011010 010000 tst  r2, r3
0000090a d01d 1101000000011101 110100 beq.n 948 ; PC + 62

0000090c 782b 0111100000101011 011110 ldrb r3, [r5, #0]
0000090e 2b00 0010101100000000 001010 cmp r3, #0  ; 0x00
00000910 d003 1101000000000011 110100 beq.n 91a ; PC + 10

00000912 1d23 0001110100100011 000111 adds r3, r4, #4   ;0x4
00000914 7fdb 0111111111011011 011111 strb r3, [r3, #31]
00000916 2b01 0010101100000001 001010 cmp r3, #1  ; 0x01
00000918 d104 1101000100000100 110100 bne.n 924 ; PC + 12

0000091a 2301 0010001100000001 001000 movs r3, #1  ; 0x01
0000091c 1ca2 0001110010100010 000111 adds r2, r4, #2   ;0x2
0000091e 7fd1 0111111111010001 011111 strb r1, [r2, #31]
00000920 404b 0100000001001011 010000 eors  r3, r1
00000922 77d3 0111011111010011 011101 strb r3, [r2, #31]
00000924 1ce3 0001110011100011 000111 adds r3, r4, #3   ;0x3
00000926 7fda 0111111111011010 011111 strb r2, [r3, #31]
00000928 2301 0010001100000001 001000 movs r3, #1  ; 0x01
0000092a 4093 0100000010010011 010000 lsl  r3, r2
0000092c 4910 0100100100010000 010010 ldr  r1, [pc, #64] ; 0x0040
0000092e 4a11 0100101000010001 010010 ldr  r2, [pc, #68] ; 0x0044
00000930 4811 0100100000010001 010010 ldr  r0, [pc, #68] ; 0x0044
00000932 4e12 0100111000010010 010011 ldr  r6, [pc, #72] ; 0x0048
00000934 6653 0110011001010011 011001 str  r3, [r2, #100] ; 0x64
00000936 660b 0110011000001011 011001 str  r3, [r1, #96] ; 0x60
00000938 6e77 0110111001110111 011011 ldr  r7, [r6, #100] ; 0x64
0000093a 423b 0100001000111011 010000 tst  r3, r7
0000093c d102 1101000100000010 110100 bne.n 944 ; PC + 8

0000093e 3801 0011100000000001 001110 subs r0, #1  ; 0x01
00000940 2800 0010100000000000 001010 cmp r0, #0  ; 0x00
00000942 d111 1101000100010001 110100 bne.n 968 ; PC + 38

00000944 6613 0110011000010011 011001 str  r3, [r2, #96] ; 0x60
00000946 6653 0110011001010011 011001 str  r3, [r2, #100] ; 0x64
00000948 0020 0000000000100000 000000 movs r0, r4
0000094a f7ff 1111011111111111 111101 (32-bit)
0000094c fe17 1111111000010111 111101 bl   57c

0000094e 782b 0111100000101011 011110 ldrb r3, [r5, #0]
00000950 2200 0010001000000000 001000 movs r2, #0  ; 0x00
00000952 1e59 0001111001011001 000111 subs  r1, r3, #1   ;0x1
00000954 418b 0100000110001011 010000 sbc  r3, r1
00000956 1d21 0001110100100001 000111 adds r1, r4, #4   ;0x4
00000958 3301 0011001100000001 001100 adds r3, #1  ; 0x01
0000095a 6002 0110000000000010 011000 str  r2, [r0, #0] ; 0x0
0000095c 77cb 0111011111001011 011101 strb r3, [r1, #31]
0000095e 2301 0010001100000001 001000 movs r3, #1  ; 0x01
00000960 84a2 1000010010100010 100001 A5-82 1000 010
00000962 3408 0011010000001000 001101 adds r4, #8  ; 0x08
00000964 77e3 0111011111100011 011101 strb r3, [r4, #31]
00000966 bdf8 1011110111111000 101111 pop {r3, r4, r5, r6, r7, lr}
00000968 660b 0110011000001011 011001 str  r3, [r1, #96] ; 0x60
0000096a e7e5 1110011111100101 111001 b.n  938

0000096c 0400 0000010000000000 000001 lsls  r0, r0, #16
0000096e 0400 0000010000000000 000001 lsls  r0, r0, #16
00000970 2000 0010000000000000 001000 movs r0, #0  ; 0x00
00000972 5011 0101000000010001 010100 str unimplemented form
00000974 3000 0011000000000000 001100 adds r0, #0  ; 0x00
00000976 5011 0101000000010001 010100 str unimplemented form
00000978 86a0 1000011010100000 100001 A5-82 1000 011
0000097a 0001 0000000000000001 000000 movs r1, r0
0000097c 0000 0000000000000000 000000 nop     ; movs r0, r0

0000097e 5011 0101000000010001 010100 str unimplemented form
00000980 b570 1011010101110000 101101 push {r4, r5, r6, lr}
00000982 4d08 0100110100001000 010011 ldr  r5, [pc, #32] ; 0x0020
00000984 0028 0000000000101000 000000 movs r0, r5
00000986 f7ff 1111011111111111 111101 (32-bit)
00000988 ffb7 1111111110110111 111101 bl   8f8

0000098a 4c07 0100110000000111 010011 ldr  r4, [pc, #28] ; 0x001c
0000098c 0020 0000000000100000 000000 movs r0, r4
0000098e f7ff 1111011111111111 111101 (32-bit)
00000990 ffb3 1111111110110011 111101 bl   8f8

00000992 0028 0000000000101000 000000 movs r0, r5
00000994 2101 0010000100000001 001000 movs r1, #1  ; 0x01
00000996 f7ff 1111011111111111 111101 (32-bit)
00000998 ff21 1111111100100001 111101 bl   7dc

0000099a 2101 0010000100000001 001000 movs r1, #1  ; 0x01
0000099c 0020 0000000000100000 000000 movs r0, r4
0000099e f7ff 1111011111111111 111101 (32-bit)
000009a0 ff1d 1111111100011101 111101 bl   7dc

000009a2 bd70 1011110101110000 101111 pop {r4, r5, r6, lr}
000009a4 0f68 0000111101101000 000011 lsrs  r0, r5, #29
000009a6 5010 0101000000010000 010100 str unimplemented form
000009a8 0f94 0000111110010100 000011 lsrs  r4, r2, #30
000009aa 5010 0101000000010000 010100 str unimplemented form
000009ac b570 1011010101110000 101101 push {r4, r5, r6, lr}
000009ae 2500 0010010100000000 001001 movs r5, #0  ; 0x00
000009b0 6085 0110000010000101 011000 str  r5, [r0, #8] ; 0x8
000009b2 000e 0000000000001110 000000 movs r6, r1
000009b4 0004 0000000000000100 000000 movs r4, r0
000009b6 f7ff 1111011111111111 111101 (32-bit)
000009b8 ff9f 1111111110011111 111101 bl   8f8

000009ba 42ae 0100001010101110 010000 cmp  r6, r5
000009bc d001 1101000000000001 110100 beq.n 9c2 ; PC + 6

000009be 1ca2 0001110010100010 000111 adds r2, r4, #2   ;0x2
000009c0 77d5 0111011111010101 011101 strb r5, [r2, #31]
000009c2 77a5 0111011110100101 011101 strb r5, [r4, #30]
000009c4 1de2 0001110111100010 000111 adds r2, r4, #7   ;0x7
000009c6 7fd1 0111111111010001 011111 strb r1, [r2, #31]
000009c8 2900 0010100100000000 001010 cmp r1, #0  ; 0x00
000009ca d005 1101000000000101 110100 beq.n 9d8 ; PC + 14

000009cc 77d5 0111011111010101 011101 strb r5, [r2, #31]
000009ce 6923 0110100100100011 011010 ldr  r3, [r4, #16] ; 0x10
000009d0 2b00 0010101100000000 001010 cmp r3, #0  ; 0x00
000009d2 d001 1101000000000001 110100 beq.n 9d8 ; PC + 6

000009d4 0020 0000000000100000 000000 movs r0, r4
000009d6 4798 0100011110011000 010001 blx  r3

000009d8 4b07 0100101100000111 010010 ldr  r3, [pc, #28] ; 0x001c
000009da 7d5b 0111110101011011 011111 ldrb r3, [r3, #21]
000009dc 2b00 0010101100000000 001010 cmp r3, #0  ; 0x00
000009de d009 1101000000001001 110100 beq.n 9f4 ; PC + 22

000009e0 6861 0110100001100001 011010 ldr  r1, [r4, #4] ; 0x4
000009e2 2900 0010100100000000 001010 cmp r1, #0  ; 0x00
000009e4 d006 1101000000000110 110100 beq.n 9f4 ; PC + 16

000009e6 68a3 0110100010100011 011010 ldr  r3, [r4, #8] ; 0x8
000009e8 2b00 0010101100000000 001010 cmp r3, #0  ; 0x00
000009ea d103 1101000100000011 110100 bne.n 9f4 ; PC + 10

000009ec 0020 0000000000100000 000000 movs r0, r4
000009ee 680a 0110100000001010 011010 ldr  r2, [r1, #0] ; 0x0
000009f0 f7ff 1111011111111111 111101 (32-bit)
000009f2 fe5f 1111111001011111 111101 bl   6b2

000009f4 bd70 1011110101110000 101111 pop {r4, r5, r6, lr}
000009f6 46c0 0100011011000000 010001 nop  ; (mov  r8, r8)

000009f8 09ec 0000100111101100 000010 lsrs  r4, r5, #7
000009fa 5010 0101000000010000 010100 str unimplemented form
000009fc b510 1011010100010000 101101 push {r4, lr}
000009fe 4b1e 0100101100011110 010010 ldr  r3, [pc, #120] ; 0x0078
00000a00 4c1e 0100110000011110 010011 ldr  r4, [pc, #120] ; 0x0078
00000a02 601c 0110000000011100 011000 str  r4, [r3, #0] ; 0x0
00000a04 2480 0010010010000000 001001 movs r4, #128  ; 0x80
00000a06 4b1e 0100101100011110 010010 ldr  r3, [pc, #120] ; 0x0078
00000a08 05e4 0000010111100100 000001 lsls  r4, r4, #23
00000a0a 601c 0110000000011100 011000 str  r4, [r3, #0] ; 0x0
00000a0c 24e0 0010010011100000 001001 movs r4, #224  ; 0xe0
00000a0e 04e4 0000010011100100 000001 lsls  r4, r4, #19
00000a10 601c 0110000000011100 011000 str  r4, [r3, #0] ; 0x0
00000a12 4b1c 0100101100011100 010010 ldr  r3, [pc, #112] ; 0x0070
00000a14 2800 0010100000000000 001010 cmp r0, #0  ; 0x00
00000a16 d02c 1101000000101100 110100 beq.n a72 ; PC + 92

00000a18 2401 0010010000000001 001001 movs r4, #1  ; 0x01
00000a1a 4320 0100001100100000 010000 orrs  r0, r4
00000a1c 4c1a 0100110000011010 010011 ldr  r4, [pc, #104] ; 0x0068
00000a1e 61dc 0110000111011100 011000 str  r4, [r3, #28] ; 0x1c
00000a20 69dc 0110100111011100 011010 ldr  r4, [r3, #28] ; 0x1c
00000a22 4264 0100001001100100 010000 rsb  r4, r4
00000a24 4044 0100000001000100 010000 eors  r4, r0
00000a26 621c 0110001000011100 011000 str  r4, [r3, #32] ; 0x20 imm5
00000a28 6259 0110001001011001 011000 str  r1, [r3, #36] ; 0x24 imm5
00000a2a 6298 0110001010011000 011000 str  r0, [r3, #40] ; 0x28 imm5
00000a2c 21fa 0010000111111010 001000 movs r1, #250  ; 0xfa
00000a2e 0089 0000000010001001 000000 lsls  r1, r1, #2
00000a30 434a 0100001101001010 010000 muls  r2, r1
00000a32 605a 0110000001011010 011000 str  r2, [r3, #4] ; 0x4
00000a34 4a15 0100101000010101 010010 ldr  r2, [pc, #84] ; 0x0054
00000a36 6811 0110100000010001 011010 ldr  r1, [r2, #0] ; 0x0
00000a38 2202 0010001000000010 001000 movs r2, #2  ; 0x02
00000a3a 4211 0100001000010001 010000 tst  r1, r2
00000a3c d10b 1101000100001011 110100 bne.n a56 ; PC + 26

00000a3e 4914 0100100100010100 010010 ldr  r1, [pc, #80] ; 0x0050
00000a40 4814 0100100000010100 010010 ldr  r0, [pc, #80] ; 0x0050
00000a42 6809 0110100000001001 011010 ldr  r1, [r1, #0] ; 0x0
00000a44 404a 0100000001001010 010000 eors  r2, r1
00000a46 2103 0010000100000011 001000 movs r1, #3  ; 0x03
00000a48 400a 0100000000001010 010000 ands  r2, r1
00000a4a 4913 0100100100010011 010010 ldr  r1, [pc, #76] ; 0x004c
00000a4c 600a 0110000000001010 011000 str  r2, [r1, #0] ; 0x0
00000a4e 2204 0010001000000100 001000 movs r2, #4  ; 0x04
00000a50 6b81 0110101110000001 011010 ldr  r1, [r0, #56] ; 0x38
00000a52 4211 0100001000010001 010000 tst  r1, r2
00000a54 d0fc 1101000011111100 110100 beq.n a50 ; PC + -4

00000a56 220c 0010001000001100 001000 movs r2, #12  ; 0x0c
00000a58 62da 0110001011011010 011000 str  r2, [r3, #44] ; 0x2c imm5
00000a5a 4b10 0100101100010000 010010 ldr  r3, [pc, #64] ; 0x0040
00000a5c 32f5 0011001011110101 001100 adds r2, #245  ; 0xf5
00000a5e 32ff 0011001011111111 001100 adds r2, #255  ; 0xff
00000a60 601a 0110000000011010 011000 str  r2, [r3, #0] ; 0x0
00000a62 2280 0010001010000000 001000 movs r2, #128  ; 0x80
00000a64 4b0e 0100101100001110 010010 ldr  r3, [pc, #56] ; 0x0038
00000a66 05d2 0000010111010010 000001 lsls  r2, r2, #23
00000a68 601a 0110000000011010 011000 str  r2, [r3, #0] ; 0x0
00000a6a 2201 0010001000000001 001000 movs r2, #1  ; 0x01
00000a6c 4b0d 0100101100001101 010010 ldr  r3, [pc, #52] ; 0x0034
00000a6e 701a 0111000000011010 011100 ldrb r2, [r3, #0]
00000a70 bd10 1011110100010000 101111 pop {r4, lr}
00000a72 61d8 0110000111011000 011000 str  r0, [r3, #28] ; 0x1c
00000a74 e7da 1110011111011010 111001 b.n  a2c

00000a76 46c0 0100011011000000 010001 nop  ; (mov  r8, r8)

00000a78 0008 0000000000001000 000000 movs r0, r1
00000a7a 4001 0100000000000001 010000 ands  r1, r0
00000a7c fffc 1111111111111100 111111 (32-bit)
00000a7e 0001 0000000000000001 111111 To be implemented

00000a80 b000 1011000000000000 101100 add r0, sp, #0
00000a82 4005 0100000000000101 010000 ands  r5, r0
00000a84 8000 1000000000000000 100000 A5-82 1000 000
00000a86 4005 0100000000000101 010000 ands  r5, r0
00000a88 c0d3 1100000011010011 110000 stmia r0!, {r0, r1, r4, r6, r7}
00000a8a b007 1011000000000111 101100 add r0, sp, #28
00000a8c c000 1100000000000000 110000 stmia r0!, {}
00000a8e 4006 0100000000000110 010000 ands  r6, r0
00000a90 8030 1000000000110000 100000 A5-82 1000 000
00000a92 4000 0100000000000000 010000 ands  r0, r0
00000a94 8000 1000000000000000 100000 A5-82 1000 000
00000a96 4000 0100000000000000 010000 ands  r0, r0
00000a98 9030 1001000000110000 100100 str r0, [sp, #0]
00000a9a 4000 0100000000000000 010000 ands  r0, r0
00000a9c a02c 1010000000101100 101000 sub r0, pc, #176 ; #b0
00000a9e 4005 0100000000000101 010000 ands  r5, r0
00000aa0 a000 1010000000000000 101000 sub r0, pc, #0 ; #0
00000aa2 4005 0100000000000101 010000 ands  r5, r0
00000aa4 0eb4 0000111010110100 000011 lsrs  r4, r6, #26
00000aa6 5010 0101000000010000 010100 str unimplemented form
00000aa8 b570 1011010101110000 101101 push {r4, r5, r6, lr}
00000aaa 0004 0000000000000100 000000 movs r4, r0
00000aac 1845 0001100001000101 000110 adds r5, r0, r1
00000aae 2000 0010000000000000 001000 movs r0, #0  ; 0x00
00000ab0 42ac 0100001010101100 010000 cmp  r4, r5
00000ab2 d201 1101001000000001 110100 bcs.n ab8 ; PC + 6

00000ab4 2800 0010100000000000 001010 cmp r0, #0  ; 0x00
00000ab6 d000 1101000000000000 110100 beq.n aba ; PC + 4

00000ab8 bd70 1011110101110000 101111 pop {r4, r5, r6, lr}
00000aba 4b04 0100101100000100 010010 ldr  r3, [pc, #16] ; 0x0010
00000abc 0020 0000000000100000 000000 movs r0, r4
00000abe 681b 0110100000011011 011010 ldr  r3, [r3, #0] ; 0x0
00000ac0 68db 0110100011011011 011010 ldr  r3, [r3, #12] ; 0xc
00000ac2 4798 0100011110011000 010001 blx  r3

00000ac4 2380 0010001110000000 001000 movs r3, #128  ; 0x80
00000ac6 015b 0000000101011011 000000 lsls  r3, r3, #5
00000ac8 18e4 0001100011100100 000110 adds r4, r4, r3
00000aca e7f1 1110011111110001 111001 b.n  ab0

00000acc 0dbc 0000110110111100 000011 lsrs  r4, r7, #22
00000ace 5010 0101000000010000 010100 str unimplemented form
00000ad0 22e0 0010001011100000 001000 movs r2, #224  ; 0xe0
00000ad2 0612 0000011000010010 000001 lsls  r2, r2, #24
00000ad4 1881 0001100010000001 000110 adds r1, r0, r2
00000ad6 2284 0010001010000100 001000 movs r2, #132  ; 0x84
00000ad8 0003 0000000000000011 000000 movs r3, r0
00000ada 02d2 0000001011010010 000000 lsls  r2, r2, #11
00000adc 2001 0010000000000001 001000 movs r0, #1  ; 0x01
00000ade 4291 0100001010010001 010000 cmp  r1, r2
00000ae0 d907 1101100100000111 110110 bls.n af2 ; PC + 18

00000ae2 22eb 0010001011101011 001000 movs r2, #235  ; 0xeb
00000ae4 0612 0000011000010010 000001 lsls  r2, r2, #24
00000ae6 189b 0001100010011011 000110 adds r3, r3, r2
00000ae8 2280 0010001010000000 001000 movs r2, #128  ; 0x80
00000aea 2000 0010000000000000 001000 movs r0, #0  ; 0x00
00000aec 01d2 0000000111010010 000000 lsls  r2, r2, #7
00000aee 429a 0100001010011010 010000 cmp  r2, r3
00000af0 4140 0100000101000000 010000 adc  r0, r0
00000af2 4770 0100011101110000 010001 bx lr

00000af4 b530 1011010100110000 101101 push {r4, r5, lr}
00000af6 1d85 0001110110000101 000111 adds r5, r0, #6   ;0x6
00000af8 0f0c 0000111100001100 000011 lsrs  r4, r1, #28
00000afa b2e2 1011001011100010 101100 uxtb ; a6-172
00000afc 0013 0000000000010011 000000 movs r3, r2
00000afe 3337 0011001100110111 001100 adds r3, #55  ; 0x37
00000b00 2c09 0010110000001001 001011 cmp r4, #9  ; 0x09
00000b02 d800 1101100000000000 110110 bhi.n b06 ; PC + 4

00000b04 3b07 0011101100000111 001110 subs r3, #7  ; 0x07
00000b06 7003 0111000000000011 011100 ldrb r3, [r0, #0]
00000b08 3001 0011000000000001 001100 adds r0, #1  ; 0x01
00000b0a 0109 0000000100001001 000000 lsls  r1, r1, #4
00000b0c 42a8 0100001010101000 010000 cmp  r0, r5
00000b0e d1f3 1101000111110011 110100 bne.n af8 ; PC + -22

00000b10 bd30 1011110100110000 101111 pop {r4, r5, lr}
00000b12 be00 1011111000000000 101111 bkpt 0x0000

00000b14 2200 0010001000000000 001000 movs r2, #0  ; 0x00
00000b16 b510 1011010100010000 101101 push {r4, lr}
00000b18 4b05 0100101100000101 010010 ldr  r3, [pc, #20] ; 0x0014
00000b1a 4806 0100100000000110 010010 ldr  r0, [pc, #24] ; 0x0018
00000b1c 725a 0111001001011010 011100 strb r2, [r3, #9]
00000b1e 7a1b 0111101000011011 011110 strb r3, [r3, #8]
00000b20 2b7f 0010101101111111 001010 cmp r3, #127  ; 0x7f
00000b22 d800 1101100000000000 110110 bhi.n b26 ; PC + 4

00000b24 4804 0100100000000100 010010 ldr  r0, [pc, #16] ; 0x0010
00000b26 4a05 0100101000000101 010010 ldr  r2, [pc, #20] ; 0x0014
00000b28 4905 0100100100000101 010010 ldr  r1, [pc, #20] ; 0x0014
00000b2a f7ff 1111011111111111 111101 (32-bit)
00000b2c fdf5 1111110111110101 111101 bl   718

00000b2e bd10 1011110100010000 101111 pop {r4, lr}
00000b30 0ab8 0000101010111000 000010 lsrs  r0, r7, #10
00000b32 5010 0101000000010000 010100 str unimplemented form
00000b34 0e58 0000111001011000 000011 lsrs  r0, r3, #25
00000b36 5010 0101000000010000 010100 str unimplemented form
00000b38 0e24 0000111000100100 000011 lsrs  r4, r4, #24
00000b3a 5010 0101000000010000 010100 str unimplemented form
00000b3c 0b5d 0000101101011101 000010 lsrs  r5, r3, #13
00000b3e 0000 0000000000000000 000000 nop     ; movs r0, r0

00000b40 08b0 0000100010110000 000010 lsrs  r0, r6, #2
00000b42 5010 0101000000010000 010100 str unimplemented form
00000b44 4b04 0100101100000100 010010 ldr  r3, [pc, #16] ; 0x0010
00000b46 6a02 0110101000000010 011010 ldr  r2, [r0, #32] ; 0x20
00000b48 6cdb 0110110011011011 011011 ldr  r3, [r3, #76] ; 0x4c
00000b4a b510 1011010100010000 101101 push {r4, lr}
00000b4c 429a 0100001010011010 010000 cmp  r2, r3
00000b4e d101 1101000100000001 110100 bne.n b54 ; PC + 6

00000b50 f7ff 1111011111111111 111101 (32-bit)
00000b52 ffe0 1111111111100000 111101 bl   b14

00000b54 bd10 1011110100010000 101111 pop {r4, lr}
00000b56 46c0 0100011011000000 010001 nop  ; (mov  r8, r8)

00000b58 0ac8 0000101011001000 000010 lsrs  r0, r1, #11
00000b5a 5010 0101000000010000 010100 str unimplemented form
00000b5c b510 1011010100010000 101101 push {r4, lr}
00000b5e 4804 0100100000000100 010010 ldr  r0, [pc, #16] ; 0x0010
00000b60 1dc3 0001110111000011 000111 adds r3, r0, #7   ;0x7
00000b62 7fdb 0111111111011011 011111 strb r3, [r3, #31]
00000b64 2b00 0010101100000000 001010 cmp r3, #0  ; 0x00
00000b66 d101 1101000100000001 110100 bne.n b6c ; PC + 6

00000b68 f7ff 1111011111111111 111101 (32-bit)
00000b6a fdc2 1111110111000010 111101 bl   6f0

00000b6c bd10 1011110100010000 101111 pop {r4, lr}
00000b6e 46c0 0100011011000000 010001 nop  ; (mov  r8, r8)

00000b70 0e58 0000111001011000 000011 lsrs  r0, r3, #25
00000b72 5010 0101000000010000 010100 str unimplemented form
00000b74 0003 0000000000000011 000000 movs r3, r0
00000b76 4804 0100100000000100 010010 ldr  r0, [pc, #16] ; 0x0010
00000b78 2b03 0010101100000011 001010 cmp r3, #3  ; 0x03
00000b7a d803 1101100000000011 110110 bhi.n b84 ; PC + 10
