000000ee 4873 0100100001110011 010010 ldr  r0, [pc, #460] ; 0x01cc
000000f0 6801 0110100000000001 011010 ldr  r1, [r0, #0] ; 0x0
000000f2 2900 0010100100000000 001010 cmp r1, #0  ; 0x00
000000f4 d11f 1101000100011111 110100 bne.n 136 ; PC + 66

000000f6 f7ff 1111011111111111 111101 (32-bit)
000000f8 ff9d 1111111110011101 111101 bl   34

000000fa 4971 0100100101110001 010010 ldr  r1, [pc, #452] ; 0x01c4
000000fc 4b71 0100101101110001 010010 ldr  r3, [pc, #452] ; 0x01c4
000000fe 680a 0110100000001010 011010 ldr  r2, [r1, #0] ; 0x0
00000100 421a 0100001000011010 010000 tst  r2, r3
00000102 d001 1101000000000001 110100 beq.n 108 ; PC + 6

00000104 600b 0110000000001011 011000 str  r3, [r1, #0] ; 0x0
00000106 e793 1110011110010011 111001 b.n  30

00000108 4f6f 0100111101101111 010011 ldr  r7, [pc, #444] ; 0x01bc
0000010a 4e70 0100111001110000 010011 ldr  r6, [pc, #448] ; 0x01c0
0000010c cf0f 1100111100001111 110011 ldmia r7!, {r0, r1, r2, r3}
0000010e 42b0 0100001010110000 010000 cmp  r0, r6
00000110 d107 1101000100000111 110100 bne.n 122 ; PC + 18

00000112 4059 0100000001011001 010000 eors  r1, r3
00000114 1840 0001100001000000 000110 adds r0, r0, r1
00000116 d104 1101000100000100 110100 bne.n 122 ; PC + 12

00000118 3f10 0011111100010000 001111 subs r7, #16  ; 0x10
0000011a 6038 0110000000111000 011000 str  r0, [r7, #0] ; 0x0
0000011c f382 1111001110000010 111100 (32-bit)
0000011e 8808 1000100000001000 111100 msr MSP, r2

00000120 4798 0100011110011000 010001 blx  r3

00000122 f002 1111000000000010 111100 (32-bit)
00000124 f9e1 1111100111100001 111100 bl   24e8

00000126 bf20 1011111100100000 101111 wfe ; Wait For Event
00000128 6d21 0110110100100001 011011 ldr  r1, [r4, #80] ; 0x50
0000012a 0889 0000100010001001 000010 lsrs  r1, r1, #2
0000012c d3fb 1101001111111011 110100 bcc.n 126 ; PC + -6

0000012e 6560 0110010101100000 011001 str  r0, [r4, #84] ; 0x54
00000130 bf40 1011111101000000 101111 sev ; a6-156
00000132 1c6e 0001110001101110 000111 adds r6, r5, #1   ;0x1
00000134 4730 0100011100110000 010001 bx r6

00000136 4c61 0100110001100001 010011 ldr  r4, [pc, #388] ; 0x0184
00000138 4f65 0100111101100101 010011 ldr  r7, [pc, #404] ; 0x0194
0000013a 2104 0010000100000100 001000 movs r1, #4  ; 0x04
0000013c 6139 0110000100111001 011000 str  r1, [r7, #16] ; 0x10
0000013e 6da1 0110110110100001 011011 ldr  r1, [r4, #88] ; 0x58
00000140 6d21 0110110100100001 011011 ldr  r1, [r4, #80] ; 0x50
00000142 0849 0000100001001001 000010 lsrs  r1, r1, #1
00000144 d2fb 1101001011111011 110100 bcs.n 13e ; PC + -6

00000146 a50b 1010010100001011 101001 add r5, pc, #44 ; #2c
00000148 2000 0010000000000000 001000 movs r0, #0  ; 0x00
0000014a f7ff 1111011111111111 111101 (32-bit)
0000014c ffed 1111111111101101 111101 bl   128

0000014e 2801 0010100000000001 001010 cmp r0, #1  ; 0x01
00000150 d1f6 1101000111110110 110100 bne.n 140 ; PC + -16

00000152 f7ff 1111011111111111 111101 (32-bit)
00000154 ffe9 1111111111101001 111101 bl   128

00000156 60b8 0110000010111000 011000 str  r0, [r7, #8] ; 0x8
00000158 f7ff 1111011111111111 111101 (32-bit)
0000015a ffe6 1111111111100110 111101 bl   128

0000015c f380 1111001110000000 111100 (32-bit)
0000015e 8808 1000100000001000 111100 msr MSP, r0

00000160 f7ff 1111011111111111 111101 (32-bit)
00000162 ffe2 1111111111100010 111101 bl   128

00000164 a501 1010010100000001 101001 add r5, pc, #4 ; #4
00000166 f7ff 1111011111111111 111101 (32-bit)
00000168 ffdf 1111111111011111 111101 bl   128

0000016a 46c0 0100011011000000 010001 nop  ; (mov  r8, r8)

0000016c 2100 0010000100000000 001000 movs r1, #0  ; 0x00
0000016e 6139 0110000100111001 011000 str  r1, [r7, #16] ; 0x10
00000170 4780 0100011110000000 010001 blx  r0

00000172 e75d 1110011101011101 111001 b.n  30

00000174 bf20 1011111100100000 101111 wfe ; Wait For Event
00000176 6d20 0110110100100000 011011 ldr  r0, [r4, #80] ; 0x50
00000178 0840 0000100001000000 000010 lsrs  r0, r0, #1
0000017a d3fb 1101001111111011 110100 bcc.n 174 ; PC + -6

0000017c 6da0 0110110110100000 011011 ldr  r0, [r4, #88] ; 0x58
0000017e 2800 0010100000000000 001010 cmp r0, #0  ; 0x00
00000180 d0de 1101000011011110 110100 beq.n 140 ; PC + -64

00000182 4770 0100011101110000 010001 bx lr

00000184 2601 0010011000000001 001001 movs r6, #1  ; 0x01
00000186 4337 0100001100110111 010000 orr  r7, r6
00000188 47b8 0100011110111000 010001 blx  r7

0000018a be00 1011111000000000 101111 bkpt 0x0000

0000018c e7fa 1110011111111010 111001 b.n  184

0000018e 3811 0011100000010001 001110 subs r0, #17  ; 0x11
00000190 7ac0 0111101011000000 011110 strb r0, [r0, #11]
00000192 bd00 1011110100000000 101111 pop {lr}
00000194 b500 1011010100000000 101101 push {lr}
00000196 4042 0100000001000010 010000 eors  r2, r0
00000198 2a00 0010101000000000 001010 cmp r2, #0  ; 0x00
0000019a f000 1111000000000000 111100 (32-bit)
0000019c f802 1111100000000010 111100 bl   1a2

0000019e d2f6 1101001011110110 110100 bcs.n 18e ; PC + -16

000001a0 468e 0100011010001110 010001 mov  r1, r14
000001a2 4670 0100011001110000 010001 mov  r14, r0
000001a4 4700 0100011100000000 010001 bx r0

000001a6 0020 0000000000100000 000000 movs r0, r4
000001a8 2b69 0010101101101001 001010 cmp r3, #105  ; 0x69
000001aa 0000 0000000000000000 000000 nop     ; movs r0, r0

000001ac 2b65 0010101101100101 001010 cmp r3, #101  ; 0x65
000001ae 0000 0000000000000000 000000 nop     ; movs r0, r0

000001b0 2c31 0010110000110001 001011 cmp r4, #49  ; 0x31
000001b2 0000 0000000000000000 000000 nop     ; movs r0, r0

000001b4 2cfd 0010110011111101 001011 cmp r4, #253  ; 0xfd
000001b6 0000 0000000000000000 000000 nop     ; movs r0, r0

000001b8 2827 0010100000100111 001010 cmp r0, #39  ; 0x27
000001ba 0000 0000000000000000 000000 nop     ; movs r0, r0

000001bc 2827 0010100000100111 001010 cmp r0, #39  ; 0x27
000001be 0000 0000000000000000 000000 nop     ; movs r0, r0

000001c0 2db1 0010110110110001 001011 cmp r5, #177  ; 0xb1
000001c2 0000 0000000000000000 000000 nop     ; movs r0, r0

000001c4 284d 0010100001001101 001010 cmp r0, #77  ; 0x4d
000001c6 0000 0000000000000000 000000 nop     ; movs r0, r0

000001c8 284f 0010100001001111 001010 cmp r0, #79  ; 0x4f
000001ca 0000 0000000000000000 000000 nop     ; movs r0, r0

000001cc 2881 0010100010000001 001010 cmp r0, #129  ; 0x81
000001ce 0000 0000000000000000 000000 nop     ; movs r0, r0

000001d0 2883 0010100010000011 001010 cmp r0, #131  ; 0x83
000001d2 0000 0000000000000000 000000 nop     ; movs r0, r0

000001d4 28d7 0010100011010111 001010 cmp r0, #215  ; 0xd7
000001d6 0000 0000000000000000 000000 nop     ; movs r0, r0

000001d8 28d9 0010100011011001 001010 cmp r0, #217  ; 0xd9
000001da 0000 0000000000000000 000000 nop     ; movs r0, r0

000001dc 28e7 0010100011100111 001010 cmp r0, #231  ; 0xe7
000001de 0000 0000000000000000 000000 nop     ; movs r0, r0

000001e0 28e9 0010100011101001 001010 cmp r0, #233  ; 0xe9
000001e2 0000 0000000000000000 000000 nop     ; movs r0, r0

000001e4 29bf 0010100110111111 001010 cmp r1, #191  ; 0xbf
000001e6 0000 0000000000000000 000000 nop     ; movs r0, r0

000001e8 2975 0010100101110101 001010 cmp r1, #117  ; 0x75
000001ea 0000 0000000000000000 000000 nop     ; movs r0, r0

000001ec 29dd 0010100111011101 001010 cmp r1, #221  ; 0xdd
000001ee 0000 0000000000000000 000000 nop     ; movs r0, r0

000001f0 0031 0000000000110001 000000 movs r1, r6
000001f2 0000 0000000000000000 000000 nop     ; movs r0, r0

000001f4 29e5 0010100111100101 001010 cmp r1, #229  ; 0xe5
000001f6 0000 0000000000000000 000000 nop     ; movs r0, r0

000001f8 2a4f 0010101001001111 001010 cmp r2, #79  ; 0x4f
000001fa 0000 0000000000000000 000000 nop     ; movs r0, r0

000001fc 280b 0010100000001011 001010 cmp r0, #11  ; 0x0b
000001fe 0000 0000000000000000 000000 nop     ; movs r0, r0

00000200 2a73 0010101001110011 001010 cmp r2, #115  ; 0x73
00000202 0000 0000000000000000 000000 nop     ; movs r0, r0

00000204 28af 0010100010101111 001010 cmp r0, #175  ; 0xaf
00000206 0000 0000000000000000 000000 nop     ; movs r0, r0

00000208 28b1 0010100010110001 001010 cmp r0, #177  ; 0xb1
0000020a 0000 0000000000000000 000000 nop     ; movs r0, r0

0000020c 289d 0010100010011101 001010 cmp r0, #157  ; 0x9d
0000020e 0000 0000000000000000 000000 nop     ; movs r0, r0

00000210 289f 0010100010011111 001010 cmp r0, #159  ; 0x9f
00000212 0000 0000000000000000 000000 nop     ; movs r0, r0

00000214 3581 0011010110000001 001101 adds r5, #129  ; 0x81
00000216 0000 0000000000000000 000000 nop     ; movs r0, r0

00000218 3583 0011010110000011 001101 adds r5, #131  ; 0x83
0000021a 0000 0000000000000000 000000 nop     ; movs r0, r0

0000021c 358b 0011010110001011 001101 adds r5, #139  ; 0x8b
0000021e 0000 0000000000000000 000000 nop     ; movs r0, r0

00000220 358d 0011010110001101 001101 adds r5, #141  ; 0x8d
00000222 0000 0000000000000000 000000 nop     ; movs r0, r0

00000224 363d 0011011000111101 001101 adds r6, #61  ; 0x3d
00000226 0000 0000000000000000 000000 nop     ; movs r0, r0

00000228 2e61 0010111001100001 001011 cmp r6, #97  ; 0x61
0000022a 0000 0000000000000000 000000 nop     ; movs r0, r0

0000022c 2e55 0010111001010101 001011 cmp r6, #85  ; 0x55
0000022e 0000 0000000000000000 000000 nop     ; movs r0, r0

00000230 2fbd 0010111110111101 001011 cmp r7, #189  ; 0xbd
00000232 0000 0000000000000000 000000 nop     ; movs r0, r0

00000234 3119 0011000100011001 001100 adds r1, #25  ; 0x19
00000236 0000 0000000000000000 000000 nop     ; movs r0, r0

00000238 346b 0011010001101011 001101 adds r4, #107  ; 0x6b
0000023a 0000 0000000000000000 000000 nop     ; movs r0, r0

0000023c 346b 0011010001101011 001101 adds r4, #107  ; 0x6b
0000023e 0000 0000000000000000 000000 nop     ; movs r0, r0

00000240 32dd 0011001011011101 001100 adds r2, #221  ; 0xdd
00000242 0000 0000000000000000 000000 nop     ; movs r0, r0

00000244 3565 0011010101100101 001101 adds r5, #101  ; 0x65
00000246 0000 0000000000000000 000000 nop     ; movs r0, r0

00000248 3567 0011010101100111 001101 adds r5, #103  ; 0x67
0000024a 0000 0000000000000000 000000 nop     ; movs r0, r0

0000024c 3573 0011010101110011 001101 adds r5, #115  ; 0x73
0000024e 0000 0000000000000000 000000 nop     ; movs r0, r0

00000250 3575 0011010101110101 001101 adds r5, #117  ; 0x75
00000252 0000 0000000000000000 000000 nop     ; movs r0, r0

00000254 36c3 0011011011000011 001101 adds r6, #195  ; 0xc3
00000256 0000 0000000000000000 000000 nop     ; movs r0, r0

00000258 36c5 0011011011000101 001101 adds r6, #197  ; 0xc5
0000025a 0000 0000000000000000 000000 nop     ; movs r0, r0

0000025c 36bb 0011011010111011 001101 adds r6, #187  ; 0xbb
0000025e 0000 0000000000000000 000000 nop     ; movs r0, r0

00000260 36bd 0011011010111101 001101 adds r6, #189  ; 0xbd
00000262 0000 0000000000000000 000000 nop     ; movs r0, r0

00000264 3831 0011100000110001 001110 subs r0, #49  ; 0x31
00000266 0000 0000000000000000 000000 nop     ; movs r0, r0

00000268 3841 0011100001000001 001110 subs r0, #65  ; 0x41
0000026a 0000 0000000000000000 000000 nop     ; movs r0, r0

0000026c 3811 0011100000010001 001110 subs r0, #17  ; 0x11
0000026e 0000 0000000000000000 000000 nop     ; movs r0, r0

00000270 0031 0000000000110001 000000 movs r1, r6
00000272 0000 0000000000000000 000000 nop     ; movs r0, r0

00000274 3b45 0011101101000101 001110 subs r3, #69  ; 0x45
00000276 0000 0000000000000000 000000 nop     ; movs r0, r0

00000278 3be1 0011101111100001 001110 subs r3, #225  ; 0xe1
0000027a 0000 0000000000000000 000000 nop     ; movs r0, r0

0000027c 346f 0011010001101111 001101 adds r4, #111  ; 0x6f
0000027e 0000 0000000000000000 000000 nop     ; movs r0, r0

00000280 3931 0011100100110001 001110 subs r1, #49  ; 0x31
00000282 0000 0000000000000000 000000 nop     ; movs r0, r0

00000284 36d1 0011011011010001 001101 adds r6, #209  ; 0xd1
00000286 0000 0000000000000000 000000 nop     ; movs r0, r0

00000288 36d3 0011011011010011 001101 adds r6, #211  ; 0xd3
0000028a 0000 0000000000000000 000000 nop     ; movs r0, r0

0000028c 36cb 0011011011001011 001101 adds r6, #203  ; 0xcb
0000028e 0000 0000000000000000 000000 nop     ; movs r0, r0

00000290 36cd 0011011011001101 001101 adds r6, #205  ; 0xcd
00000292 0000 0000000000000000 000000 nop     ; movs r0, r0

00000294 35c1 0011010111000001 001101 adds r5, #193  ; 0xc1
00000296 0000 0000000000000000 000000 nop     ; movs r0, r0

00000298 35c3 0011010111000011 001101 adds r5, #195  ; 0xc3
0000029a 0000 0000000000000000 000000 nop     ; movs r0, r0

0000029c 35db 0011010111011011 001101 adds r5, #219  ; 0xdb
0000029e 0000 0000000000000000 000000 nop     ; movs r0, r0

000002a0 35dd 0011010111011101 001101 adds r5, #221  ; 0xdd
000002a2 0000 0000000000000000 000000 nop     ; movs r0, r0

000002a4 3663 0011011001100011 001101 adds r6, #99  ; 0x63
000002a6 0000 0000000000000000 000000 nop     ; movs r0, r0

000002a8 480a 0100100000001010 010010 ldr  r0, [pc, #40] ; 0x0028
000002aa f380 1111001110000000 111100 (32-bit)
000002ac 8808 1000100000001000 111100 msr MSP, r0

000002ae f001 1111000000000001 111100 (32-bit)
000002b0 ff1b 1111111100011011 111100 bl   20e8

000002b2 0000 0000000000000000 000000 nop     ; movs r0, r0

000002b4 4000 0100000000000000 010000 ands  r0, r0
000002b6 4000 0100000000000000 010000 ands  r0, r0
000002b8 80a0 1000000010100000 100000 A5-82 1000 000
000002ba 4000 0100000000000000 010000 ands  r0, r0
000002bc 0000 0000000000000000 000000 nop     ; movs r0, r0

000002be d000 1101000000000000 110100 beq.n 2c2 ; PC + 4

000002c0 4008 0100000000001000 010000 ands  r0, r1
000002c2 4006 0100000000000110 010000 ands  r6, r0
000002c4 0000 0000000000000000 000000 nop     ; movs r0, r0

000002c6 0100 0000000100000000 000000 lsls  r0, r0, #4
000002c8 801c 1000000000011100 100000 A5-82 1000 000
000002ca 4005 0100000000000101 010000 ands  r5, r0
000002cc c0d3 1100000011010011 110000 ASTM, STMIA, STME A6-157
000002ce b007 1011000000000111 101100 add SP plus immediate
000002d0 ed00 1110110100000000 111011 (32-bit)
000002d2 e000 1110000000000000 111011 To be implemented

000002d4 08b0 0000100010110000 000010 lsrs  r0, r6, #2
000002d6 5010 0101000000010000 010100 str unimplemented form
000002d8 4933 0100100100110011 010010 ldr  r1, [pc, #204] ; 0x00cc
000002da 0842 0000100001000010 000010 lsrs  r2, r0, #1
000002dc 400a 0100000000001010 010000 ands  r2, r1
000002de 0883 0000100010000011 000010 lsrs  r3, r0, #2
000002e0 400b 0100000000001011 010000 ands  r3, r1
000002e2 4008 0100000000001000 010000 ands  r0, r1
000002e4 1880 0001100010000000 000110 adds r0, r0, r2
000002e6 18c0 0001100011000000 000110 adds r0, r0, r3
000002e8 08c1 0000100011000001 000010 lsrs  r1, r0, #3
000002ea 1840 0001100001000000 000110 adds r0, r0, r1
000002ec 492f 0100100100101111 010010 ldr  r1, [pc, #188] ; 0x00bc
000002ee 4008 0100000000001000 010000 ands  r0, r1
000002f0 0981 0000100110000001 000010 lsrs  r1, r0, #6
000002f2 1840 0001100001000000 000110 adds r0, r0, r1
000002f4 492e 0100100100101110 010010 ldr  r1, [pc, #184] ; 0x00b8
000002f6 4348 0100001101001000 010000 muls  r0, r1
000002f8 0e80 0000111010000000 000011 lsrs  r0, r0, #26
000002fa 4770 0100011101110000 010001 bx lr

000002fc 4a2d 0100101000101101 010010 ldr  r2, [pc, #180] ; 0x00b4
000002fe 0851 0000100001010001 000010 lsrs  r1, r2, #1
00000300 4051 0100000001010001 010000 eors  r1, r2
00000302 0043 0000000001000011 000000 lsls  r3, r0, #1
00000304 400b 0100000000001011 010000 ands  r3, r1
00000306 4008 0100000000001000 010000 ands  r0, r1
00000308 0840 0000100001000000 000010 lsrs  r0, r0, #1
0000030a 4318 0100001100011000 010000 orr  r0, r3
0000030c 0083 0000000010000011 000000 lsls  r3, r0, #2
0000030e 4013 0100000000010011 010000 ands  r3, r2
00000310 4010 0100000000010000 010000 ands  r0, r2
00000312 0880 0000100010000000 000010 lsrs  r0, r0, #2
00000314 4303 0100001100000011 010000 orr  r3, r0
00000316 4a28 0100101000101000 010010 ldr  r2, [pc, #160] ; 0x00a0
00000318 0118 0000000100011000 000000 lsls  r0, r3, #4
0000031a 4010 0100000000010000 010000 ands  r0, r2
0000031c 4013 0100000000010011 010000 ands  r3, r2
0000031e 091b 0000100100011011 000010 lsrs  r3, r3, #4
00000320 4318 0100001100011000 010000 orr  r0, r3
00000322 ba00 1011101000000000 101110 rev r0, r0
00000324 4770 0100011101110000 010001 bx lr

00000326 a325 1010001100100101 101000 add r3, pc, #148 ; #94
00000328 0c01 0000110000000001 000011 lsrs  r1, r0, #16
0000032a d10c 1101000100001100 110100 bne.n 346 ; PC + 28

0000032c 0a81 0000101010000001 000010 lsrs  r1, r0, #10
0000032e d104 1101000100000100 110100 bne.n 33a ; PC + 12

00000330 0901 0000100100000001 000010 lsrs  r1, r0, #4
00000332 d105 1101000100000101 110100 bne.n 340 ; PC + 14

00000334 5c18 0101110000011000 010111 ldrb r0, [r3, r0]
00000336 301a 0011000000011010 001100 adds r0, #26  ; 0x1a
00000338 4770 0100011101110000 010001 bx lr

0000033a 5c58 0101110001011000 010111 ldrb r0, [r3, r1]
0000033c 3010 0011000000010000 001100 adds r0, #16  ; 0x10
0000033e 4770 0100011101110000 010001 bx lr

00000340 5c58 0101110001011000 010111 ldrb r0, [r3, r1]
00000342 3016 0011000000010110 001100 adds r0, #22  ; 0x16
00000344 4770 0100011101110000 010001 bx lr

00000346 0a88 0000101010001000 000010 lsrs  r0, r1, #10
00000348 d104 1101000100000100 110100 bne.n 354 ; PC + 12

0000034a 0908 0000100100001000 000010 lsrs  r0, r1, #4
0000034c d104 1101000100000100 110100 bne.n 358 ; PC + 12

0000034e 5c58 0101110001011000 010111 ldrb r0, [r3, r1]
00000350 300a 0011000000001010 001100 adds r0, #10  ; 0x0a
00000352 4770 0100011101110000 010001 bx lr

00000354 5c18 0101110000011000 010111 ldrb r0, [r3, r0]
00000356 4770 0100011101110000 010001 bx lr

00000358 5c18 0101110000011000 010111 ldrb r0, [r3, r0]
0000035a 3006 0011000000000110 001100 adds r0, #6  ; 0x06
0000035c 4770 0100011101110000 010001 bx lr

0000035e a327 1010001100100111 101000 add r3, pc, #156 ; #9c
00000360 0401 0000010000000001 000001 lsls  r1, r0, #16
00000362 d00f 1101000000001111 110100 beq.n 384 ; PC + 34

00000364 0188 0000000110001000 000000 lsls  r0, r1, #6
00000366 d005 1101000000000101 110100 beq.n 374 ; PC + 14

00000368 0181 0000000110000001 000000 lsls  r1, r0, #6
0000036a d007 1101000000000111 110100 beq.n 37c ; PC + 18

0000036c 0f09 0000111100001001 000011 lsrs  r1, r1, #28
0000036e 3110 0011000100010000 001100 adds r1, #16  ; 0x10
00000370 5c58 0101110001011000 010111 ldrb r0, [r3, r1]
00000372 4770 0100011101110000 010001 bx lr

00000374 0e89 0000111010001001 000011 lsrs  r1, r1, #26
00000376 5c58 0101110001011000 010111 ldrb r0, [r3, r1]
00000378 300a 0011000000001010 001100 adds r0, #10  ; 0x0a
0000037a 4770 0100011101110000 010001 bx lr

0000037c 0e80 0000111010000000 000011 lsrs  r0, r0, #26
0000037e 5c18 0101110000011000 010111 ldrb r0, [r3, r0]
00000380 3004 0011000000000100 001100 adds r0, #4  ; 0x04
00000382 4770 0100011101110000 010001 bx lr

00000384 0181 0000000110000001 000000 lsls  r1, r0, #6
00000386 d006 1101000000000110 110100 beq.n 396 ; PC + 16

00000388 0188 0000000110001000 000000 lsls  r0, r1, #6
0000038a d008 1101000000001000 110100 beq.n 39e ; PC + 20

0000038c 0f00 0000111100000000 000011 lsrs  r0, r0, #28
0000038e 3010 0011000000010000 001100 adds r0, #16  ; 0x10
00000390 5c18 0101110000011000 010111 ldrb r0, [r3, r0]
00000392 3010 0011000000010000 001100 adds r0, #16  ; 0x10
00000394 4770 0100011101110000 010001 bx lr

00000396 0e80 0000111010000000 000011 lsrs  r0, r0, #26
00000398 5c18 0101110000011000 010111 ldrb r0, [r3, r0]
0000039a 301a 0011000000011010 001100 adds r0, #26  ; 0x1a
0000039c 4770 0100011101110000 010001 bx lr

0000039e 0e89 0000111010001001 000011 lsrs  r1, r1, #26
000003a0 5c58 0101110001011000 010111 ldrb r0, [r3, r1]
000003a2 3014 0011000000010100 001100 adds r0, #20  ; 0x14
000003a4 4770 0100011101110000 010001 bx lr

000003a6 0000 0000000000000000 000000 nop     ; movs r0, r0

000003a8 9249 1001001001001001 100100 str r1, [r1, #9]
000003aa 4924 0100100100100100 010010 ldr  r1, [pc, #144] ; 0x0090
000003ac 71c7 0111000111000111 011100 ldrb r7, [r0, #7]
000003ae c71c 1100011100011100 110001 ASTM, STMIA, STME A6-157
000003b0 4004 0100000000000100 010000 ands  r4, r0
000003b2 0400 0000010000000000 000001 lsls  r0, r0, #16
000003b4 cccc 1100110011001100 110011 ldmia r4, {r2, r3, r6}
000003b6 cccc 1100110011001100 110011 ldmia r4, {r2, r3, r6}
000003b8 f0f0 1111000011110000 111100 (32-bit)
000003ba f0f0 1111000011110000 111100 bl   f059c

000003bc 0506 0000010100000110 000001 lsls  r6, r0, #20
000003be 0404 0000010000000100 000001 lsls  r4, r0, #16
000003c0 0303 0000001100000011 000000 lsls  r3, r0, #12
000003c2 0303 0000001100000011 000000 lsls  r3, r0, #12
000003c4 0202 0000001000000010 000000 lsls  r2, r0, #8
000003c6 0202 0000001000000010 000000 lsls  r2, r0, #8
000003c8 0202 0000001000000010 000000 lsls  r2, r0, #8
000003ca 0202 0000001000000010 000000 lsls  r2, r0, #8
000003cc 0101 0000000100000001 000000 lsls  r1, r0, #4
000003ce 0101 0000000100000001 000000 lsls  r1, r0, #4
000003d0 0101 0000000100000001 000000 lsls  r1, r0, #4
000003d2 0101 0000000100000001 000000 lsls  r1, r0, #4
000003d4 0101 0000000100000001 000000 lsls  r1, r0, #4
000003d6 0101 0000000100000001 000000 lsls  r1, r0, #4
000003d8 0101 0000000100000001 000000 lsls  r1, r0, #4
000003da 0101 0000000100000001 000000 lsls  r1, r0, #4
000003dc 0000 0000000000000000 000000 nop     ; movs r0, r0

000003de 0000 0000000000000000 000000 nop     ; movs r0, r0

000003e0 0000 0000000000000000 000000 nop     ; movs r0, r0

000003e2 0000 0000000000000000 000000 nop     ; movs r0, r0

000003e4 0000 0000000000000000 000000 nop     ; movs r0, r0

000003e6 0000 0000000000000000 000000 nop     ; movs r0, r0

000003e8 0000 0000000000000000 000000 nop     ; movs r0, r0

000003ea 0000 0000000000000000 000000 nop     ; movs r0, r0

000003ec 0000 0000000000000000 000000 nop     ; movs r0, r0

000003ee 0000 0000000000000000 000000 nop     ; movs r0, r0

000003f0 0000 0000000000000000 000000 nop     ; movs r0, r0

000003f2 0000 0000000000000000 000000 nop     ; movs r0, r0

000003f4 0000 0000000000000000 000000 nop     ; movs r0, r0

000003f6 0000 0000000000000000 000000 nop     ; movs r0, r0

000003f8 0000 0000000000000000 000000 nop     ; movs r0, r0

000003fa 0000 0000000000000000 000000 nop     ; movs r0, r0

000003fc 0006 0000000000000110 000000 movs r6, r0
000003fe 0001 0000000000000001 000000 movs r1, r0
00000400 0002 0000000000000010 000000 movs r2, r0
00000402 0001 0000000000000001 000000 movs r1, r0
00000404 0003 0000000000000011 000000 movs r3, r0
00000406 0001 0000000000000001 000000 movs r1, r0
00000408 0002 0000000000000010 000000 movs r2, r0
0000040a 0001 0000000000000001 000000 movs r1, r0
0000040c 0004 0000000000000100 000000 movs r4, r0
0000040e 0001 0000000000000001 000000 movs r1, r0
00000410 0002 0000000000000010 000000 movs r2, r0
00000412 0001 0000000000000001 000000 movs r1, r0
00000414 0003 0000000000000011 000000 movs r3, r0
00000416 0001 0000000000000001 000000 movs r1, r0
00000418 0002 0000000000000010 000000 movs r2, r0
0000041a 0001 0000000000000001 000000 movs r1, r0
0000041c 0005 0000000000000101 000000 movs r5, r0
0000041e 0001 0000000000000001 000000 movs r1, r0
00000420 0002 0000000000000010 000000 movs r2, r0
00000422 0001 0000000000000001 000000 movs r1, r0
00000424 0003 0000000000000011 000000 movs r3, r0
00000426 0001 0000000000000001 000000 movs r1, r0
00000428 0002 0000000000000010 000000 movs r2, r0
0000042a 0001 0000000000000001 000000 movs r1, r0
0000042c 0004 0000000000000100 000000 movs r4, r0
0000042e 0001 0000000000000001 000000 movs r1, r0
00000430 0002 0000000000000010 000000 movs r2, r0
00000432 0001 0000000000000001 000000 movs r1, r0
00000434 0003 0000000000000011 000000 movs r3, r0
00000436 0001 0000000000000001 000000 movs r1, r0
00000438 0002 0000000000000010 000000 movs r2, r0
0000043a 0001 0000000000000001 000000 movs r1, r0
0000043c 0031 0000000000110001 000000 movs r1, r6
0000043e 20e1 0010000011100001 001000 movs r0, #225  ; 0xe1
00000440 2169 0010000101101001 001000 movs r1, #105  ; 0x69
00000442 1c49 0001110001001001 000111 adds r1, r1, #1   ;0x1
00000444 1ba9 0001101110101001 000110 sub reg A6-165
00000446 1dcd 0001110111001101 000111 adds r5, r1, #7   ;0x7
00000448 22fd 0010001011111101 001000 movs r2, #253  ; 0xfd
0000044a be00 1011111000000000 101111 bkpt 0x0000

0000044c 4a02 0100101000000010 010010 ldr  r2, [pc, #8] ; 0x0008
0000044e 6893 0110100010010011 011010 ldr  r3, [r2, #8] ; 0x8
00000450 3b40 0011101101000000 001110 subs r3, #64  ; 0x40
00000452 6093 0110000010010011 011000 str  r3, [r2, #8] ; 0x8
00000454 4770 0100011101110000 010001 bx lr

00000456 46c0 0100011011000000 010001 nop  ; (mov  r8, r8)

00000458 0a7c 0000101001111100 000010 lsrs  r4, r7, #9
0000045a 5010 0101000000010000 010100 str unimplemented form
0000045c 4a02 0100101000000010 010010 ldr  r2, [pc, #8] ; 0x0008
0000045e 7d93 0111110110010011 011111 ldrb r3, [r2, #22]
00000460 7513 0111010100010011 011101 ldrb r3, [r2, #20]
00000462 4a02 0100101000000010 010010 ldr  r2, [pc, #8] ; 0x0008
00000464 6013 0110000000010011 011000 str  r3, [r2, #0] ; 0x0
00000466 4770 0100011101110000 010001 bx lr

00000468 09ec 0000100111101100 000010 lsrs  r4, r5, #7
0000046a 5010 0101000000010000 010100 str unimplemented form
0000046c 0000 0000000000000000 000000 nop     ; movs r0, r0

0000046e 5011 0101000000010001 010100 str unimplemented form
00000470 2300 0010001100000000 001000 movs r3, #0  ; 0x00
00000472 6001 0110000000000001 011000 str  r1, [r0, #0] ; 0x0
00000474 6103 0110000100000011 011000 str  r3, [r0, #16] ; 0x10
00000476 6042 0110000001000010 011000 str  r2, [r0, #4] ; 0x4
00000478 784b 0111100001001011 011110 ldrb r3, [r1, #1]
0000047a 60c3 0110000011000011 011000 str  r3, [r0, #12] ; 0xc
0000047c 6083 0110000010000011 011000 str  r3, [r0, #8] ; 0x8
0000047e 4770 0100011101110000 010001 bx lr

00000480 4904 0100100100000100 010010 ldr  r1, [pc, #16] ; 0x0010
00000482 6883 0110100010000011 011010 ldr  r3, [r0, #8] ; 0x8
00000484 2201 0010001000000001 001000 movs r2, #1  ; 0x01
00000486 741a 0111010000011010 011101 ldrb r2, [r3, #16]
00000488 681b 0110100000011011 011010 ldr  r3, [r3, #0] ; 0x0
0000048a 781b 0111100000011011 011110 ldrb r3, [r3, #0]
0000048c 5acb 0101101011001011 010110 ldrh r3, [r1, r3]
0000048e 4313 0100001100010011 010000 orr  r3, r2
00000490 4718 0100011100011000 010001 bx r3

00000492 0000 0000000000000000 000000 nop     ; movs r0, r0

00000494 043c 0000010000111100 000001 lsls  r4, r7, #16
00000496 0000 0000000000000000 000000 nop     ; movs r0, r0

00000498 6803 0110100000000011 011010 ldr  r3, [r0, #0] ; 0x0
0000049a b570 1011010101110000 101101 push {r4, r5, r6, lr}
0000049c 1e19 0001111000011001 000111 subs  r1, r3, #0   ;0x0
0000049e d002 1101000000000010 110100 beq.n 4a6 ; PC + 8

000004a0 7899 0111100010011001 011110 ldrb r1, [r3, #2]
000004a2 230f 0010001100001111 001000 movs r3, #15  ; 0x0f
000004a4 4019 0100000000011001 010000 ands  r1, r3
000004a6 2400 0010010000000000 001001 movs r4, #0  ; 0x00
000004a8 2500 0010010100000000 001001 movs r5, #0  ; 0x00
000004aa 4a12 0100101000010010 010010 ldr  r2, [pc, #72] ; 0x0048
000004ac 00cb 0000000011001011 000000 lsls  r3, r1, #3
000004ae 189a 0001100010011010 000110 adds r2, r3, r2
000004b0 6014 0110000000010100 011000 str  r4, [r2, #0] ; 0x0
000004b2 6055 0110000001010101 011000 str  r5, [r2, #4] ; 0x4
000004b4 0004 0000000000000100 000000 movs r4, r0
000004b6 4e10 0100111000010000 010011 ldr  r6, [pc, #64] ; 0x0040
000004b8 3428 0011010000101000 001101 adds r4, #40  ; 0x28
000004ba 8b32 1000101100110010 100010 ldrh r2, [r6, #24]
000004bc 8282 1000001010000010 100000 strh r2, [r0, #20]
000004be 7825 0111100000100101 011110 ldrb r5, [r4, #0]
000004c0 2440 0010010001000000 001001 movs r4, #64  ; 0x40
000004c2 2d00 0010110100000000 001011 cmp r5, #0  ; 0x00
000004c4 d000 1101000000000000 110100 beq.n 4c8 ; PC + 4

000004c6 1924 0001100100100100 000110 adds r4, r4, r4
000004c8 1914 0001100100010100 000110 adds r4, r2, r4
000004ca 8334 1000001100110100 100000 strh r4, [r6, #24]
000004cc 2900 0010100100000000 001010 cmp r1, #0  ; 0x00
000004ce d00e 1101000000001110 110100 beq.n 4ee ; PC + 32

000004d0 2154 0010000101010100 001000 movs r1, #84  ; 0x54
000004d2 2d00 0010110100000000 001011 cmp r5, #0  ; 0x00
000004d4 d000 1101000000000000 110100 beq.n 4d8 ; PC + 4

000004d6 3120 0011000100100000 001100 adds r1, #32  ; 0x20
000004d8 0649 0000011001001001 000001 lsls  r1, r1, #25
000004da 3029 0011000000101001 001100 adds r0, #41  ; 0x29
000004dc 1852 0001100001010010 000110 adds r2, r2, r1
000004de 7801 0111100000000001 011110 ldrb r1, [r0, #0]
000004e0 4806 0100100000000110 010010 ldr  r0, [pc, #24] ; 0x0018
000004e2 181b 0001100000011011 000110 adds r3, r3, r0
000004e4 2900 0010100100000000 001010 cmp r1, #0  ; 0x00
000004e6 d003 1101000000000011 110100 beq.n 4f0 ; PC + 10

000004e8 601a 0110000000011010 011000 str  r2, [r3, #0] ; 0x0
000004ea 2200 0010001000000000 001000 movs r2, #0  ; 0x00
000004ec 605a 0110000001011010 011000 str  r2, [r3, #4] ; 0x4
000004ee bd70 1011110101110000 101111 pop {r4, r5, r6, lr}
000004f0 6019 0110000000011001 011000 str  r1, [r3, #0] ; 0x0
000004f2 e7fb 1110011111111011 111001 b.n  4ec

000004f4 0080 0000000010000000 000000 lsls  r0, r0, #2
000004f6 5010 0101000000010000 010100 str unimplemented form
000004f8 09ec 0000100111101100 000010 lsrs  r4, r5, #7
000004fa 5010 0101000000010000 010100 str unimplemented form
000004fc 0000 0000000000000000 000000 nop     ; movs r0, r0

000004fe 5010 0101000000010000 010100 str unimplemented form
00000500 b530 1011010100110000 101101 push {r4, r5, lr}
00000502 1c45 0001110001000101 000111 adds r5, r0, #1   ;0x1
00000504 b2c9 1011001011001001 101100 uxtb ; a6-172
00000506 77e9 0111011111101001 011101 strb r1, [r5, #31]
00000508 3528 0011010100101000 001101 adds r5, #40  ; 0x28
0000050a 702a 0111000000101010 011100 ldrb r2, [r5, #0]
0000050c 82c3 1000001011000011 100000 strh r3, [r0, #22]
0000050e 0003 0000000000000011 000000 movs r3, r0
00000510 ac03 1010110000000011 101011 A6-104
00000512 7824 0111100000100100 011110 ldrb r4, [r4, #0]
00000514 3328 0011001100101000 001100 adds r3, #40  ; 0x28
00000516 701c 0111000000011100 011100 ldrb r4, [r3, #0]
00000518 2301 0010001100000001 001000 movs r3, #1  ; 0x01
0000051a 0049 0000000001001001 000000 lsls  r1, r1, #1
0000051c 405a 0100000001011010 010000 eors  r2, r3
0000051e 1889 0001100010001001 000110 adds r1, r1, r2
00000520 1cc3 0001110011000011 000111 adds r3, r0, #3   ;0x3
00000522 77d9 0111011111011001 011101 strb r1, [r3, #31]
00000524 bd30 1011110100110000 101111 pop {r4, r5, lr}
00000526 be00 1011111000000000 101111 bkpt 0x0000

00000528 0013 0000000000010011 000000 movs r3, r2
0000052a b5f0 1011010111110000 101101 push {r4, r5, r6, r7, lr}
0000052c 0006 0000000000000110 000000 movs r6, r0
0000052e 000c 0000000000001100 000000 movs r4, r1
00000530 0015 0000000000010101 000000 movs r5, r2
00000532 b085 1011000010000101 101100 sub SP plus immediate
00000534 3308 0011001100001000 001100 adds r3, #8  ; 0x08
00000536 6001 0110000000000001 011000 str  r1, [r0, #0] ; 0x0
00000538 9303 1001001100000011 100100 str r3, [sp, #12]
0000053a 7823 0111100000100011 011110 ldrb r3, [r4, #0]
0000053c 18e4 0001100011100100 000110 adds r4, r4, r3
0000053e 7863 0111100001100011 011110 ldrb r3, [r4, #1]
00000540 2b05 0010101100000101 001010 cmp r3, #5  ; 0x05
00000542 d1fa 1101000111111010 110100 bne.n 53a ; PC + -8

00000544 7963 0111100101100011 011110 ldrb r3, [r4, #5]
00000546 7921 0111100100100001 011110 ldrb r1, [r4, #4]
00000548 021b 0000001000011011 000000 lsls  r3, r3, #8
0000054a 430b 0100001100001011 010000 orr  r3, r1
0000054c 270f 0010011100001111 001001 movs r7, #15  ; 0x0f
0000054e 2101 0010000100000001 001000 movs r1, #1  ; 0x01
00000550 78a2 0111100010100010 011110 ldrb r2, [r4, #2]
00000552 9100 1001000100000000 100100 A5-82 1001 000
00000554 4017 0100000000010111 010000 ands  r7, r2
00000556 0039 0000000000111001 000000 movs r1, r7
00000558 6828 0110100000101000 011010 ldr  r0, [r5, #0] ; 0x0
0000055a 09d2 0000100111010010 000010 lsrs  r2, r2, #7
0000055c f7ff 1111011111111111 111101 (32-bit)
0000055e ffd0 1111111111010000 111101 bl   500

00000560 cd08 1100110100001000 110011 ldmia r5!, {r3}
00000562 4a05 0100101000000101 010010 ldr  r2, [pc, #20] ; 0x0014
00000564 00bf 0000000010111111 000000 lsls  r7, r7, #2
00000566 601c 0110000000011100 011000 str  r4, [r3, #0] ; 0x0
00000568 50bb 0101000010111011 010100 str unimplemented form
0000056a 9b03 1001101100000011 100110 A5-82 1001 101
0000056c 42ab 0100001010101011 010000 cmp  r3, r5
0000056e d1e4 1101000111100100 110100 bne.n 53a ; PC + -52

00000570 0030 0000000000110000 000000 movs r0, r6
00000572 b005 1011000000000101 101100 add SP plus immediate
00000574 bdf0 1011110111110000 101111 pop {r4, r5, r6, r7, lr}
00000576 46c0 0100011011000000 010001 nop  ; (mov  r8, r8)

00000578 0a08 0000101000001000 000010 lsrs  r0, r1, #8
0000057a 5010 0101000000010000 010100 str unimplemented form
0000057c 1c43 0001110001000011 000111 adds r3, r0, #1   ;0x1
0000057e 7fdb 0111111111011011 011111 strb r3, [r3, #31]
00000580 3029 0011000000101001 001100 adds r0, #41  ; 0x29
00000582 7802 0111100000000010 011110 ldrb r2, [r0, #0]
00000584 4903 0100100100000011 010010 ldr  r1, [pc, #12] ; 0x000c
00000586 00db 0000000011011011 000000 lsls  r3, r3, #3
00000588 1858 0001100001011000 000110 adds r0, r3, r1
0000058a 2a00 0010101000000000 001010 cmp r2, #0  ; 0x00
0000058c d001 1101000000000001 110100 beq.n 592 ; PC + 6

0000058e 4a02 0100101000000010 010010 ldr  r2, [pc, #8] ; 0x0008
00000590 1898 0001100010011000 000110 adds r0, r3, r2
00000592 4770 0100011101110000 010001 bx lr

00000594 0084 0000000010000100 000000 lsls  r4, r0, #2
00000596 5010 0101000000010000 010100 str unimplemented form
00000598 0080 0000000010000000 000000 lsls  r0, r0, #2
0000059a 5010 0101000000010000 010100 str unimplemented form
0000059c b570 1011010101110000 101101 push {r4, r5, r6, lr}
0000059e 0006 0000000000000110 000000 movs r6, r0
000005a0 7f83 0111111110000011 011111 strb r3, [r0, #30]
000005a2 0004 0000000000000100 000000 movs r4, r0
000005a4 3618 0011011000011000 001101 adds r6, #24  ; 0x18
000005a6 2b00 0010101100000000 001010 cmp r3, #0  ; 0x00
000005a8 d11f 1101000100011111 110100 bne.n 5ea ; PC + 66

000005aa 8ac3 1000101011000011 100010 ldrh r3, [r0, #22]
000005ac 7743 0111011101000011 011101 strb r3, [r0, #29]
000005ae 0003 0000000000000011 000000 movs r3, r0
000005b0 3329 0011001100101001 001100 adds r3, #41  ; 0x29
000005b2 7819 0111100000011001 011110 ldrb r1, [r3, #0]
000005b4 1d43 0001110101000011 000111 adds r3, r0, #5   ;0x5
000005b6 2900 0010100100000000 001010 cmp r1, #0  ; 0x00
000005b8 d100 1101000100000000 110100 bne.n 5bc ; PC + 4

000005ba 1d83 0001110110000011 000111 adds r3, r0, #6   ;0x6
000005bc 7fdd 0111111111011101 011111 strb r5, [r3, #31]
000005be 8aa3 1000101010100011 100010 ldrh r3, [r4, #20]
000005c0 002a 0000000000101010 000000 movs r2, r5
000005c2 1e50 0001111001010000 000111 subs  r0, r2, #1   ;0x1
000005c4 4182 0100000110000010 010000 sbc  r2, r0
000005c6 480a 0100100000001010 010010 ldr  r0, [pc, #40] ; 0x0028
000005c8 0192 0000000110010010 000000 lsls  r2, r2, #6
000005ca 181b 0001100000011011 000110 adds r3, r3, r0
000005cc 189b 0001100010011011 000110 adds r3, r3, r2
000005ce 61a3 0110000110100011 011000 str  r3, [r4, #24] ; 0x18
000005d0 2300 0010001100000000 001000 movs r3, #0  ; 0x00
000005d2 4299 0100001010011001 010000 cmp  r1, r3
000005d4 d106 1101000100000110 110100 bne.n 5e4 ; PC + 16

000005d6 0020 0000000000100000 000000 movs r0, r4
000005d8 f7ff 1111011111111111 111101 (32-bit)
000005da ffd0 1111111111010000 111101 bl   57c

000005dc 006d 0000000001101101 000000 lsls  r5, r5, #1
000005de 1945 0001100101000101 000110 adds r5, r0, r5
000005e0 882b 1000100000101011 100010 A5-82 1000 100
000005e2 b2db 1011001011011011 101100 uxtb ; a6-172
000005e4 7723 0111011100100011 011101 strb r3, [r4, #28]
000005e6 2301 0010001100000001 001000 movs r3, #1  ; 0x01
000005e8 77a3 0111011110100011 011101 strb r3, [r4, #30]
000005ea 0030 0000000000110000 000000 movs r0, r6
000005ec bd70 1011110101110000 101111 pop {r4, r5, r6, lr}
000005ee 46c0 0100011011000000 010001 nop  ; (mov  r8, r8)

000005f0 0000 0000000000000000 000000 nop     ; movs r0, r0

000005f2 5010 0101000000010000 010100 str unimplemented form
000005f4 2200 0010001000000000 001000 movs r2, #0  ; 0x00
000005f6 b570 1011010101110000 101101 push {r4, r5, r6, lr}
000005f8 1dc3 0001110111000011 000111 adds r3, r0, #7   ;0x7
000005fa 77da 0111011111011010 011101 strb r2, [r3, #31]
000005fc 3301 0011001100000001 001100 adds r3, #1  ; 0x01
000005fe 0004 0000000000000100 000000 movs r4, r0
00000600 7fd8 0111111111011000 011111 strb r0, [r3, #31]
00000602 4290 0100001010010000 010000 cmp  r0, r2
00000604 d12f 1101000100101111 110100 bne.n 666 ; PC + 98

00000606 2380 0010001110000000 001000 movs r3, #128  ; 0x80
00000608 00db 0000000011011011 000000 lsls  r3, r3, #3
0000060a 4319 0100001100011001 010000 orr  r1, r3
0000060c 0023 0000000000100011 000000 movs r3, r4
0000060e 3329 0011001100101001 001100 adds r3, #41  ; 0x29
00000610 781b 0111100000011011 011110 ldrb r3, [r3, #0]
00000612 2b00 0010101100000000 001010 cmp r3, #0  ; 0x00
00000614 d002 1101000000000010 110100 beq.n 61c ; PC + 8

00000616 2380 0010001110000000 001000 movs r3, #128  ; 0x80
00000618 021b 0000001000011011 000000 lsls  r3, r3, #8
0000061a 4319 0100001100011001 010000 orr  r1, r3
0000061c 1ca2 0001110010100010 000111 adds r2, r4, #2   ;0x2
0000061e 7fd3 0111111111010011 011111 strb r3, [r2, #31]
00000620 2601 0010011000000001 001001 movs r6, #1  ; 0x01
00000622 001d 0000000000011101 000000 movs r5, r3
00000624 1e68 0001111001101000 000111 subs  r0, r5, #1   ;0x1
00000626 4185 0100000110000101 010000 sbc  r5, r0
00000628 4073 0100000001110011 010000 eors  r3, r6
0000062a 77d3 0111011111010011 011101 strb r3, [r2, #31]
0000062c 0020 0000000000100000 000000 movs r0, r4
0000062e 036d 0000001101101101 000000 lsls  r5, r5, #13
00000630 430d 0100001100001101 010000 orr  r5, r1
00000632 f7ff 1111011111111111 111101 (32-bit)
00000634 ffa3 1111111110100011 111101 bl   57c

00000636 1d63 0001110101100011 000111 adds r3, r4, #5   ;0x5
00000638 7fda 0111111111011010 011111 strb r2, [r3, #31]
0000063a b2ad 1011001010101101 101100 uxth ; a6-173
0000063c 40b2 0100000010110010 010000 lsl  r2, r6
0000063e 1880 0001100010000000 000110 adds r0, r0, r2
00000640 2200 0010001000000000 001000 movs r2, #0  ; 0x00
00000642 8005 1000000000000101 100000 A5-82 1000 000
00000644 1d21 0001110100100001 000111 adds r1, r4, #4   ;0x4
00000646 77a2 0111011110100010 011101 strb r2, [r4, #30]
00000648 7fca 0111111111001010 011111 strb r2, [r1, #31]
0000064a 3a01 0011101000000001 001110 subs r2, #1  ; 0x01
0000064c 77ca 0111011111001010 011101 strb r2, [r1, #31]
0000064e 68a1 0110100010100001 011010 ldr  r1, [r4, #8] ; 0x8
00000650 3428 0011010000101000 001101 adds r4, #40  ; 0x28
00000652 688a 0110100010001010 011010 ldr  r2, [r1, #8] ; 0x8
00000654 3a01 0011101000000001 001110 subs r2, #1  ; 0x01
00000656 608a 0110000010001010 011000 str  r2, [r1, #8] ; 0x8
00000658 7822 0111100000100010 011110 ldrb r2, [r4, #0]
0000065a 2a00 0010101000000000 001010 cmp r2, #0  ; 0x00
0000065c d002 1101000000000010 110100 beq.n 664 ; PC + 8

0000065e 7fda 0111111111011010 011111 strb r2, [r3, #31]
00000660 4056 0100000001010110 010000 eors  r6, r2
00000662 77de 0111011111011110 011101 strb r6, [r3, #31]
00000664 bd70 1011110101110000 101111 pop {r4, r5, r6, lr}
00000666 20a0 0010000010100000 001000 movs r0, #160  ; 0xa0
00000668 0140 0000000101000000 000000 lsls  r0, r0, #5
0000066a 4301 0100001100000001 010000 orr  r1, r0
0000066c 77da 0111011111011010 011101 strb r2, [r3, #31]
0000066e e7cd 1110011111001101 111001 b.n  60c

00000670 b570 1011010101110000 101101 push {r4, r5, r6, lr}
00000672 0004 0000000000000100 000000 movs r4, r0
00000674 68a3 0110100010100011 011010 ldr  r3, [r4, #8] ; 0x8
00000676 2b00 0010101100000000 001010 cmp r3, #0  ; 0x00
00000678 d015 1101000000010101 110100 beq.n 6a6 ; PC + 46

0000067a 689b 0110100010011011 011010 ldr  r3, [r3, #8] ; 0x8
0000067c 2b00 0010101100000000 001010 cmp r3, #0  ; 0x00
0000067e d012 1101000000010010 110100 beq.n 6a6 ; PC + 40

00000680 1d26 0001110100100110 000111 adds r6, r4, #4   ;0x4
00000682 7ff5 0111111111110101 011111 strb r5, [r6, #31]
00000684 2d00 0010110100000000 001011 cmp r5, #0  ; 0x00
00000686 d00e 1101000000001110 110100 beq.n 6a6 ; PC + 32

00000688 1de3 0001110111100011 000111 adds r3, r4, #7   ;0x7
0000068a 7fdb 0111111111011011 011111 strb r3, [r3, #31]
0000068c 2b00 0010101100000000 001010 cmp r3, #0  ; 0x00
0000068e d10a 1101000100001010 110100 bne.n 6a6 ; PC + 24

00000690 0023 0000000000100011 000000 movs r3, r4
00000692 3329 0011001100101001 001100 adds r3, #41  ; 0x29
00000694 781b 0111100000011011 011110 ldrb r3, [r3, #0]
00000696 2b00 0010101100000000 001010 cmp r3, #0  ; 0x00
00000698 d006 1101000000000110 110100 beq.n 6a8 ; PC + 16

0000069a 0020 0000000000100000 000000 movs r0, r4
0000069c f7ff 1111011111111111 111101 (32-bit)
0000069e fef0 1111111011110000 111101 bl   480

000006a0 7ff3 0111111111110011 011111 strb r3, [r6, #31]
000006a2 42ab 0100001010101011 010000 cmp  r3, r5
000006a4 d1e6 1101000111100110 110100 bne.n 674 ; PC + -48

000006a6 bd70 1011110101110000 101111 pop {r4, r5, r6, lr}
000006a8 0020 0000000000100000 000000 movs r0, r4
000006aa 8ae1 1000101011100001 100010 ldrh r1, [r4, #22]
000006ac f7ff 1111011111111111 111101 (32-bit)
000006ae ffa2 1111111110100010 111101 bl   5f4

000006b0 e7e0 1110011111100000 111001 b.n  674

000006b2 b570 1011010101110000 101101 push {r4, r5, r6, lr}
000006b4 000d 0000000000001101 000000 movs r5, r1
000006b6 0004 0000000000000100 000000 movs r4, r0
000006b8 0011 0000000000010001 000000 movs r1, r2
000006ba 0028 0000000000101000 000000 movs r0, r5
000006bc 001a 0000000000011010 000000 movs r2, r3
000006be f7ff 1111011111111111 111101 (32-bit)
000006c0 fed7 1111111011010111 111101 bl   470

000006c2 2300 0010001100000000 001000 movs r3, #0  ; 0x00
000006c4 60e3 0110000011100011 011000 str  r3, [r4, #12] ; 0xc
000006c6 3301 0011001100000001 001100 adds r3, #1  ; 0x01
000006c8 60a5 0110000010100101 011000 str  r5, [r4, #8] ; 0x8
000006ca 0020 0000000000100000 000000 movs r0, r4
000006cc 74ab 0111010010101011 011101 ldrb r3, [r5, #18]
000006ce f7ff 1111011111111111 111101 (32-bit)
000006d0 ffcf 1111111111001111 111101 bl   670

000006d2 bd70 1011110101110000 101111 pop {r4, r5, r6, lr}
000006d4 b510 1011010100010000 101101 push {r4, lr}
000006d6 0003 0000000000000011 000000 movs r3, r0
000006d8 4a02 0100101000000010 010010 ldr  r2, [pc, #8] ; 0x0008
000006da 4903 0100100100000011 010010 ldr  r1, [pc, #12] ; 0x000c
000006dc 4803 0100100000000011 010010 ldr  r0, [pc, #12] ; 0x000c
000006de f7ff 1111011111111111 111101 (32-bit)
000006e0 ffe8 1111111111101000 111101 bl   6b2

000006e2 bd10 1011110100010000 101111 pop {r4, lr}
000006e4 3f59 0011111101011001 001111 subs r7, #89  ; 0x59
000006e6 0000 0000000000000000 000000 nop     ; movs r0, r0

000006e8 0a24 0000101000100100 000010 lsrs  r4, r4, #8
000006ea 5010 0101000000010000 010100 str unimplemented form
000006ec 0dc0 0000110111000000 000011 lsrs  r0, r0, #23
000006ee 5010 0101000000010000 010100 str unimplemented form
000006f0 6841 0110100001000001 011010 ldr  r1, [r0, #4] ; 0x4
000006f2 6883 0110100010000011 011010 ldr  r3, [r0, #8] ; 0x8
000006f4 b510 1011010100010000 101101 push {r4, lr}
000006f6 428b 0100001010001011 010000 cmp  r3, r1
000006f8 d003 1101000000000011 110100 beq.n 702 ; PC + 10

000006fa 2300 0010001100000000 001000 movs r3, #0  ; 0x00
000006fc 680a 0110100000001010 011010 ldr  r2, [r1, #0] ; 0x0
000006fe f7ff 1111011111111111 111101 (32-bit)
00000700 ffd8 1111111111011000 111101 bl   6b2

00000702 bd10 1011110100010000 101111 pop {r4, lr}
00000704 0003 0000000000000011 000000 movs r3, r0
00000706 b510 1011010100010000 101101 push {r4, lr}
00000708 3333 0011001100110011 001100 adds r3, #51  ; 0x33
0000070a 7fdb 0111111111011011 011111 strb r3, [r3, #31]
0000070c 302c 0011000000101100 001100 adds r0, #44  ; 0x2c
0000070e 2b00 0010101100000000 001010 cmp r3, #0  ; 0x00
00000710 d101 1101000100000001 110100 bne.n 716 ; PC + 6

00000712 f7ff 1111011111111111 111101 (32-bit)
00000714 ffed 1111111111101101 111101 bl   6f0

00000716 bd10 1011110100010000 101111 pop {r4, lr}
00000718 0003 0000000000000011 000000 movs r3, r0
0000071a b570 1011010101110000 101101 push {r4, r5, r6, lr}
0000071c 3329 0011001100101001 001100 adds r3, #41  ; 0x29
0000071e 781b 0111100000011011 011110 ldrb r3, [r3, #0]
00000720 0004 0000000000000100 000000 movs r4, r0
00000722 000d 0000000000001101 000000 movs r5, r1
00000724 0016 0000000000010110 000000 movs r6, r2
00000726 2b00 0010101100000000 001010 cmp r3, #0  ; 0x00
00000728 d003 1101000000000011 110100 beq.n 732 ; PC + 10

0000072a f7ff 1111011111111111 111101 (32-bit)
0000072c ff37 1111111100110111 111101 bl   59c

0000072e 2300 0010001100000000 001000 movs r3, #0  ; 0x00
00000730 7103 0111000100000011 011100 ldrb r3, [r0, #4]
00000732 0033 0000000000110011 000000 movs r3, r6
00000734 0029 0000000000101001 000000 movs r1, r5
00000736 0020 0000000000100000 000000 movs r0, r4
00000738 4a01 0100101000000001 010010 ldr  r2, [pc, #4] ; 0x0004
0000073a f7ff 1111011111111111 111101 (32-bit)
0000073c ffba 1111111110111010 111101 bl   6b2

0000073e bd70 1011110101110000 101111 pop {r4, r5, r6, lr}
00000740 3f59 0011111101011001 001111 subs r7, #89  ; 0x59
00000742 0000 0000000000000000 000000 nop     ; movs r0, r0

00000744 b510 1011010100010000 101101 push {r4, lr}
00000746 2200 0010001000000000 001000 movs r2, #0  ; 0x00
00000748 4902 0100100100000010 010010 ldr  r1, [pc, #8] ; 0x0008
0000074a 4803 0100100000000011 010010 ldr  r0, [pc, #12] ; 0x000c
0000074c f7ff 1111011111111111 111101 (32-bit)
0000074e ffe4 1111111111100100 111101 bl   718

00000750 bd10 1011110100010000 101111 pop {r4, lr}
00000752 46c0 0100011011000000 010001 nop  ; (mov  r8, r8)

00000754 09c4 0000100111000100 000010 lsrs  r4, r0, #7
00000756 5010 0101000000010000 010100 str unimplemented form
00000758 0f68 0000111101101000 000011 lsrs  r0, r5, #29
0000075a 5010 0101000000010000 010100 str unimplemented form
0000075c b510 1011010100010000 101101 push {r4, lr}
0000075e 2200 0010001000000000 001000 movs r2, #0  ; 0x00
00000760 4902 0100100100000010 010010 ldr  r1, [pc, #8] ; 0x0008
00000762 4803 0100100000000011 010010 ldr  r0, [pc, #12] ; 0x000c
00000764 f7ff 1111011111111111 111101 (32-bit)
00000766 ffd8 1111111111011000 111101 bl   718

00000768 bd10 1011110100010000 101111 pop {r4, lr}
0000076a 46c0 0100011011000000 010001 nop  ; (mov  r8, r8)

0000076c 09d8 0000100111011000 000010 lsrs  r0, r3, #7
0000076e 5010 0101000000010000 010100 str unimplemented form
00000770 0f94 0000111110010100 000011 lsrs  r4, r2, #30
00000772 5010 0101000000010000 010100 str unimplemented form
00000774 b510 1011010100010000 101101 push {r4, lr}
00000776 4b03 0100101100000011 010010 ldr  r3, [pc, #12] ; 0x000c
00000778 4a03 0100101000000011 010010 ldr  r2, [pc, #12] ; 0x000c
0000077a 4904 0100100100000100 010010 ldr  r1, [pc, #16] ; 0x0010
0000077c 4804 0100100000000100 010010 ldr  r0, [pc, #16] ; 0x0010
0000077e f7ff 1111011111111111 111101 (32-bit)
00000780 ff98 1111111110011000 111101 bl   6b2

00000782 bd10 1011110100010000 101111 pop {r4, lr}
00000784 075d 0000011101011101 000001 lsls  r5, r3, #29
00000786 0000 0000000000000000 000000 nop     ; movs r0, r0

00000788 3f59 0011111101011001 001111 subs r7, #89  ; 0x59
0000078a 0000 0000000000000000 000000 nop     ; movs r0, r0

0000078c 09c4 0000100111000100 000010 lsrs  r4, r0, #7
0000078e 5010 0101000000010000 010100 str unimplemented form
00000790 0f68 0000111101101000 000011 lsrs  r0, r5, #29
00000792 5010 0101000000010000 010100 str unimplemented form
00000794 b510 1011010100010000 101101 push {r4, lr}
00000796 1dc3 0001110111000011 000111 adds r3, r0, #7   ;0x7
00000798 7fda 0111111111011010 011111 strb r2, [r3, #31]
0000079a 6881 0110100010000001 011010 ldr  r1, [r0, #8] ; 0x8
0000079c 2a00 0010101000000000 001010 cmp r2, #0  ; 0x00
0000079e d105 1101000100000101 110100 bne.n 7ac ; PC + 14

000007a0 68cb 0110100011001011 011010 ldr  r3, [r1, #12] ; 0xc
000007a2 2b00 0010101100000000 001010 cmp r3, #0  ; 0x00
000007a4 d10a 1101000100001010 110100 bne.n 7bc ; PC + 24

000007a6 7c0b 0111110000001011 011111 ldrb r3, [r1, #16]
000007a8 2b00 0010101100000000 001010 cmp r3, #0  ; 0x00
000007aa d107 1101000100000111 110100 bne.n 7bc ; PC + 18

000007ac 2401 0010010000000001 001001 movs r4, #1  ; 0x01
000007ae 2300 0010001100000000 001000 movs r3, #0  ; 0x00
000007b0 74cc 0111010011001100 011101 ldrb r4, [r1, #19]
000007b2 6083 0110000010000011 011000 str  r3, [r0, #8] ; 0x8
000007b4 429a 0100001010011010 010000 cmp  r2, r3
000007b6 d002 1101000000000010 110100 beq.n 7be ; PC + 8

000007b8 60cb 0110000011001011 011000 str  r3, [r1, #12] ; 0xc
000007ba 608b 0110000010001011 011000 str  r3, [r1, #8] ; 0x8
000007bc bd10 1011110100010000 101111 pop {r4, lr}
000007be 684b 0110100001001011 011010 ldr  r3, [r1, #4] ; 0x4
000007c0 2b00 0010101100000000 001010 cmp r3, #0  ; 0x00
000007c2 d001 1101000000000001 110100 beq.n 7c8 ; PC + 6

000007c4 4798 0100011110011000 010001 blx  r3

000007c6 e7f9 1110011111111001 111001 b.n  7bc

000007c8 68c3 0110100011000011 011010 ldr  r3, [r0, #12] ; 0xc
000007ca 2b00 0010101100000000 001010 cmp r3, #0  ; 0x00
000007cc d0f6 1101000011110110 110100 beq.n 7bc ; PC + -16

000007ce 6083 0110000010000011 011000 str  r3, [r0, #8] ; 0x8
000007d0 60c2 0110000011000010 011000 str  r2, [r0, #12] ; 0xc
000007d2 749c 0111010010011100 011101 ldrb r4, [r3, #18]
000007d4 f7ff 1111011111111111 111101 (32-bit)
000007d6 ff4c 1111111101001100 111101 bl   670

000007d8 e7f0 1110011111110000 111001 b.n  7bc

000007da be00 1011111000000000 101111 bkpt 0x0000

000007dc b570 1011010101110000 101101 push {r4, r5, r6, lr}
000007de 1dc6 0001110111000110 000111 adds r6, r0, #7   ;0x7
000007e0 7ff3 0111111111110011 011111 strb r3, [r6, #31]
000007e2 0004 0000000000000100 000000 movs r4, r0
000007e4 000d 0000000000001101 000000 movs r5, r1
000007e6 2b00 0010101100000000 001010 cmp r3, #0  ; 0x00
000007e8 d11a 1101000100011010 110100 bne.n 820 ; PC + 56

000007ea 1c43 0001110001000011 000111 adds r3, r0, #1   ;0x1
000007ec 7fdb 0111111111011011 011111 strb r3, [r3, #31]
000007ee 2b00 0010101100000000 001010 cmp r3, #0  ; 0x00
000007f0 d107 1101000100000111 110100 bne.n 802 ; PC + 18

000007f2 0003 0000000000000011 000000 movs r3, r0
000007f4 3329 0011001100101001 001100 adds r3, #41  ; 0x29
000007f6 781b 0111100000011011 011110 ldrb r3, [r3, #0]
000007f8 425a 0100001001011010 010000 rsb  r2, r3
000007fa 4153 0100000101010011 010000 adc  r3, r2
000007fc 4a0a 0100101000001010 010010 ldr  r2, [pc, #40] ; 0x0028
000007fe 3301 0011001100000001 001100 adds r3, #1  ; 0x01
00000800 6693 0110011010010011 011001 str  r3, [r2, #104] ; 0x68
00000802 0020 0000000000100000 000000 movs r0, r4
00000804 f7ff 1111011111111111 111101 (32-bit)
00000806 feba 1111111010111010 111101 bl   57c

00000808 2380 0010001110000000 001000 movs r3, #128  ; 0x80
0000080a 6802 0110100000000010 011010 ldr  r2, [r0, #0] ; 0x0
0000080c 011b 0000000100011011 000000 lsls  r3, r3, #4
0000080e 4313 0100001100010011 010000 orr  r3, r2
00000810 6003 0110000000000011 011000 str  r3, [r0, #0] ; 0x0
00000812 77f5 0111011111110101 011101 strb r5, [r6, #31]
00000814 6923 0110100100100011 011010 ldr  r3, [r4, #16] ; 0x10
00000816 2b00 0010101100000000 001010 cmp r3, #0  ; 0x00
00000818 d001 1101000000000001 110100 beq.n 81e ; PC + 6

0000081a 0020 0000000000100000 000000 movs r0, r4
0000081c 4798 0100011110011000 010001 blx  r3

0000081e bd70 1011110101110000 101111 pop {r4, r5, r6, lr}
00000820 428b 0100001010001011 010000 cmp  r3, r1
00000822 d2fc 1101001011111100 110100 bcs.n 81e ; PC + -4

00000824 77f1 0111011111110001 011101 strb r1, [r6, #31]
00000826 e7fa 1110011111111010 111001 b.n  81e

00000828 2000 0010000000000000 001000 movs r0, #0  ; 0x00
0000082a 5011 0101000000010001 010100 str unimplemented form
0000082c b570 1011010101110000 101101 push {r4, r5, r6, lr}
0000082e 2800 0010100000000000 001010 cmp r0, #0  ; 0x00
00000830 d00e 1101000000001110 110100 beq.n 850 ; PC + 32

00000832 4b18 0100101100011000 010010 ldr  r3, [pc, #96] ; 0x0060
00000834 0080 0000000010000000 000000 lsls  r0, r0, #2
00000836 58c4 0101100011000100 010110 ldr r4, [r0, r3]
00000838 1d21 0001110100100001 000111 adds r1, r4, #4   ;0x4
0000083a 7fcb 0111111111001011 011111 strb r3, [r1, #31]
0000083c 3301 0011001100000001 001100 adds r3, #1  ; 0x01
0000083e 77cb 0111011111001011 011101 strb r3, [r1, #31]
00000840 68a5 0110100010100101 011010 ldr  r5, [r4, #8] ; 0x8
00000842 2d00 0010110100000000 001011 cmp r5, #0  ; 0x00
00000844 d109 1101000100001001 110100 bne.n 85a ; PC + 22

00000846 2102 0010000100000010 001000 movs r1, #2  ; 0x02
00000848 0020 0000000000100000 000000 movs r0, r4
0000084a f7ff 1111011111111111 111101 (32-bit)
0000084c ffc7 1111111111000111 111101 bl   7dc

0000084e bd70 1011110101110000 101111 pop {r4, r5, r6, lr}
00000850 4c11 0100110000010001 010011 ldr  r4, [pc, #68] ; 0x0044
00000852 2900 0010100100000000 001010 cmp r1, #0  ; 0x00
00000854 d1f0 1101000111110000 110100 bne.n 838 ; PC + -28

00000856 4c11 0100110000010001 010011 ldr  r4, [pc, #68] ; 0x0044
00000858 e7ee 1110011111101110 111001 b.n  838

0000085a 7c2b 0111110000101011 011111 ldrb r3, [r5, #16]
0000085c 2b00 0010101100000000 001010 cmp r3, #0  ; 0x00
0000085e d002 1101000000000010 110100 beq.n 866 ; PC + 8

00000860 2301 0010001100000001 001000 movs r3, #1  ; 0x01
00000862 746b 0111010001101011 011101 ldrb r3, [r5, #17]
00000864 e7f3 1110011111110011 111001 b.n  84e

00000866 1da3 0001110110100011 000111 adds r3, r4, #6   ;0x6
00000868 77da 0111011111011010 011101 strb r2, [r3, #31]
0000086a 3323 0011001100100011 001100 adds r3, #35  ; 0x23
0000086c 781b 0111100000011011 011110 ldrb r3, [r3, #0]
0000086e 2b00 0010101100000000 001010 cmp r3, #0  ; 0x00
00000870 d002 1101000000000010 110100 beq.n 878 ; PC + 8

00000872 68ab 0110100010101011 011010 ldr  r3, [r5, #8] ; 0x8
00000874 2b00 0010101100000000 001010 cmp r3, #0  ; 0x00
00000876 d002 1101000000000010 110100 beq.n 87e ; PC + 8

00000878 0020 0000000000100000 000000 movs r0, r4
0000087a f7ff 1111011111111111 111101 (32-bit)
0000087c fe01 1111111000000001 111101 bl   480

0000087e 7ceb 0111110011101011 011111 ldrb r3, [r5, #19]
00000880 2b00 0010101100000000 001010 cmp r3, #0  ; 0x00
00000882 d1e4 1101000111100100 110100 bne.n 84e ; PC + -52

00000884 68eb 0110100011101011 011010 ldr  r3, [r5, #12] ; 0xc
00000886 0020 0000000000100000 000000 movs r0, r4
00000888 3b01 0011101100000001 001110 subs r3, #1  ; 0x01
0000088a 60eb 0110000011101011 011000 str  r3, [r5, #12] ; 0xc
0000088c f7ff 1111011111111111 111101 (32-bit)
0000088e ff82 1111111110000010 111101 bl   794

00000890 e7dd 1110011111011101 111001 b.n  84e

00000892 46c0 0100011011000000 010001 nop  ; (mov  r8, r8)

00000894 0a08 0000101000001000 000010 lsrs  r0, r1, #8
00000896 5010 0101000000010000 010100 str unimplemented form
00000898 0f68 0000111101101000 000011 lsrs  r0, r5, #29
0000089a 5010 0101000000010000 010100 str unimplemented form
0000089c 0f94 0000111110010100 000011 lsrs  r4, r2, #30
0000089e 5010 0101000000010000 010100 str unimplemented form
000008a0 2300 0010001100000000 001000 movs r3, #0  ; 0x00
000008a2 b570 1011010101110000 101101 push {r4, r5, r6, lr}
000008a4 6885 0110100010000101 011010 ldr  r5, [r0, #8] ; 0x8
000008a6 0004 0000000000000100 000000 movs r4, r0
000008a8 742b 0111010000101011 011101 ldrb r3, [r5, #16]
000008aa f7ff 1111011111111111 111101 (32-bit)
000008ac ff73 1111111101110011 111101 bl   794

000008ae 7ceb 0111110011101011 011111 ldrb r3, [r5, #19]
000008b0 2b00 0010101100000000 001010 cmp r3, #0  ; 0x00
000008b2 d11b 1101000100011011 110100 bne.n 8ec ; PC + 58

000008b4 0026 0000000000100110 000000 movs r6, r4
000008b6 3629 0011011000101001 001101 adds r6, #41  ; 0x29
000008b8 7833 0111100000110011 011110 ldrb r3, [r6, #0]
000008ba 2b00 0010101100000000 001010 cmp r3, #0  ; 0x00
000008bc d003 1101000000000011 110100 beq.n 8c6 ; PC + 10

000008be 0020 0000000000100000 000000 movs r0, r4
000008c0 7f21 0111111100100001 011111 strb r1, [r4, #28]
000008c2 f7ff 1111011111111111 111101 (32-bit)
000008c4 fe97 1111111010010111 111101 bl   5f4

000008c6 2300 0010001100000000 001000 movs r3, #0  ; 0x00
000008c8 77a3 0111011110100011 011101 strb r3, [r4, #30]
000008ca 7c6a 0111110001101010 011111 ldrb r2, [r5, #17]
000008cc 429a 0100001010011010 010000 cmp  r2, r3
000008ce d00e 1101000000001110 110100 beq.n 8ee ; PC + 32

000008d0 746b 0111010001101011 011101 ldrb r3, [r5, #17]
000008d2 1d22 0001110100100010 000111 adds r2, r4, #4   ;0x4
000008d4 7fd3 0111111111010011 011111 strb r3, [r2, #31]
000008d6 3b01 0011101100000001 001110 subs r3, #1  ; 0x01
000008d8 77d3 0111011111010011 011101 strb r3, [r2, #31]
000008da 2201 0010001000000001 001000 movs r2, #1  ; 0x01
000008dc 1da3 0001110110100011 000111 adds r3, r4, #6   ;0x6
000008de 7fdb 0111111111011011 011111 strb r3, [r3, #31]
000008e0 3401 0011010000000001 001101 adds r4, #1  ; 0x01
000008e2 7831 0111100000110001 011110 ldrb r1, [r6, #0]
000008e4 7fe0 0111111111100000 011111 strb r0, [r4, #31]
000008e6 405a 0100000001011010 010000 eors  r2, r3
000008e8 f7ff 1111011111111111 111101 (32-bit)
000008ea ffa0 1111111110100000 111101 bl   82c

000008ec bd70 1011110101110000 101111 pop {r4, r5, r6, lr}
000008ee 0020 0000000000100000 000000 movs r0, r4
000008f0 f7ff 1111011111111111 111101 (32-bit)
000008f2 febe 1111111010111110 111101 bl   670

000008f4 e7fa 1110011111111010 111001 b.n  8ec

000008f6 be00 1011111000000000 101111 bkpt 0x0000

000008f8 b5f8 1011010111111000 101101 push {r3, r4, r5, r6, r7, lr}
000008fa 0004 0000000000000100 000000 movs r4, r0
000008fc f7ff 1111011111111111 111101 (32-bit)
000008fe fe3e 1111111000111110 111101 bl   57c

00000900 0025 0000000000100101 000000 movs r5, r4
00000902 6802 0110100000000010 011010 ldr  r2, [r0, #0] ; 0x0
00000904 4b19 0100101100011001 010010 ldr  r3, [pc, #100] ; 0x0064
00000906 3528 0011010100101000 001101 adds r5, #40  ; 0x28
00000908 421a 0100001000011010 010000 tst  r2, r3
0000090a d01d 1101000000011101 110100 beq.n 948 ; PC + 62

0000090c 782b 0111100000101011 011110 ldrb r3, [r5, #0]
0000090e 2b00 0010101100000000 001010 cmp r3, #0  ; 0x00
00000910 d003 1101000000000011 110100 beq.n 91a ; PC + 10

00000912 1d23 0001110100100011 000111 adds r3, r4, #4   ;0x4
00000914 7fdb 0111111111011011 011111 strb r3, [r3, #31]
00000916 2b01 0010101100000001 001010 cmp r3, #1  ; 0x01
00000918 d104 1101000100000100 110100 bne.n 924 ; PC + 12

0000091a 2301 0010001100000001 001000 movs r3, #1  ; 0x01
0000091c 1ca2 0001110010100010 000111 adds r2, r4, #2   ;0x2
0000091e 7fd1 0111111111010001 011111 strb r1, [r2, #31]
00000920 404b 0100000001001011 010000 eors  r3, r1
00000922 77d3 0111011111010011 011101 strb r3, [r2, #31]
00000924 1ce3 0001110011100011 000111 adds r3, r4, #3   ;0x3
00000926 7fda 0111111111011010 011111 strb r2, [r3, #31]
00000928 2301 0010001100000001 001000 movs r3, #1  ; 0x01
0000092a 4093 0100000010010011 010000 lsl  r3, r2
0000092c 4910 0100100100010000 010010 ldr  r1, [pc, #64] ; 0x0040
0000092e 4a11 0100101000010001 010010 ldr  r2, [pc, #68] ; 0x0044
00000930 4811 0100100000010001 010010 ldr  r0, [pc, #68] ; 0x0044
00000932 4e12 0100111000010010 010011 ldr  r6, [pc, #72] ; 0x0048
00000934 6653 0110011001010011 011001 str  r3, [r2, #100] ; 0x64
00000936 660b 0110011000001011 011001 str  r3, [r1, #96] ; 0x60
00000938 6e77 0110111001110111 011011 ldr  r7, [r6, #100] ; 0x64
0000093a 423b 0100001000111011 010000 tst  r3, r7
0000093c d102 1101000100000010 110100 bne.n 944 ; PC + 8

0000093e 3801 0011100000000001 001110 subs r0, #1  ; 0x01
00000940 2800 0010100000000000 001010 cmp r0, #0  ; 0x00
00000942 d111 1101000100010001 110100 bne.n 968 ; PC + 38

00000944 6613 0110011000010011 011001 str  r3, [r2, #96] ; 0x60
00000946 6653 0110011001010011 011001 str  r3, [r2, #100] ; 0x64
00000948 0020 0000000000100000 000000 movs r0, r4
0000094a f7ff 1111011111111111 111101 (32-bit)
0000094c fe17 1111111000010111 111101 bl   57c

0000094e 782b 0111100000101011 011110 ldrb r3, [r5, #0]
00000950 2200 0010001000000000 001000 movs r2, #0  ; 0x00
00000952 1e59 0001111001011001 000111 subs  r1, r3, #1   ;0x1
00000954 418b 0100000110001011 010000 sbc  r3, r1
00000956 1d21 0001110100100001 000111 adds r1, r4, #4   ;0x4
00000958 3301 0011001100000001 001100 adds r3, #1  ; 0x01
0000095a 6002 0110000000000010 011000 str  r2, [r0, #0] ; 0x0
0000095c 77cb 0111011111001011 011101 strb r3, [r1, #31]
0000095e 2301 0010001100000001 001000 movs r3, #1  ; 0x01
00000960 84a2 1000010010100010 100001 A5-82 1000 010
00000962 3408 0011010000001000 001101 adds r4, #8  ; 0x08
00000964 77e3 0111011111100011 011101 strb r3, [r4, #31]
00000966 bdf8 1011110111111000 101111 pop {r3, r4, r5, r6, r7, lr}
00000968 660b 0110011000001011 011001 str  r3, [r1, #96] ; 0x60
0000096a e7e5 1110011111100101 111001 b.n  938

0000096c 0400 0000010000000000 000001 lsls  r0, r0, #16
0000096e 0400 0000010000000000 000001 lsls  r0, r0, #16
00000970 2000 0010000000000000 001000 movs r0, #0  ; 0x00
00000972 5011 0101000000010001 010100 str unimplemented form
00000974 3000 0011000000000000 001100 adds r0, #0  ; 0x00
00000976 5011 0101000000010001 010100 str unimplemented form
00000978 86a0 1000011010100000 100001 A5-82 1000 011
0000097a 0001 0000000000000001 000000 movs r1, r0
0000097c 0000 0000000000000000 000000 nop     ; movs r0, r0

0000097e 5011 0101000000010001 010100 str unimplemented form
00000980 b570 1011010101110000 101101 push {r4, r5, r6, lr}
00000982 4d08 0100110100001000 010011 ldr  r5, [pc, #32] ; 0x0020
00000984 0028 0000000000101000 000000 movs r0, r5
00000986 f7ff 1111011111111111 111101 (32-bit)
00000988 ffb7 1111111110110111 111101 bl   8f8

0000098a 4c07 0100110000000111 010011 ldr  r4, [pc, #28] ; 0x001c
0000098c 0020 0000000000100000 000000 movs r0, r4
0000098e f7ff 1111011111111111 111101 (32-bit)
00000990 ffb3 1111111110110011 111101 bl   8f8

00000992 0028 0000000000101000 000000 movs r0, r5
00000994 2101 0010000100000001 001000 movs r1, #1  ; 0x01
00000996 f7ff 1111011111111111 111101 (32-bit)
00000998 ff21 1111111100100001 111101 bl   7dc

0000099a 2101 0010000100000001 001000 movs r1, #1  ; 0x01
0000099c 0020 0000000000100000 000000 movs r0, r4
0000099e f7ff 1111011111111111 111101 (32-bit)
000009a0 ff1d 1111111100011101 111101 bl   7dc

000009a2 bd70 1011110101110000 101111 pop {r4, r5, r6, lr}
000009a4 0f68 0000111101101000 000011 lsrs  r0, r5, #29
000009a6 5010 0101000000010000 010100 str unimplemented form
000009a8 0f94 0000111110010100 000011 lsrs  r4, r2, #30
000009aa 5010 0101000000010000 010100 str unimplemented form
000009ac b570 1011010101110000 101101 push {r4, r5, r6, lr}
000009ae 2500 0010010100000000 001001 movs r5, #0  ; 0x00
000009b0 6085 0110000010000101 011000 str  r5, [r0, #8] ; 0x8
000009b2 000e 0000000000001110 000000 movs r6, r1
000009b4 0004 0000000000000100 000000 movs r4, r0
000009b6 f7ff 1111011111111111 111101 (32-bit)
000009b8 ff9f 1111111110011111 111101 bl   8f8

000009ba 42ae 0100001010101110 010000 cmp  r6, r5
000009bc d001 1101000000000001 110100 beq.n 9c2 ; PC + 6

000009be 1ca2 0001110010100010 000111 adds r2, r4, #2   ;0x2
000009c0 77d5 0111011111010101 011101 strb r5, [r2, #31]
000009c2 77a5 0111011110100101 011101 strb r5, [r4, #30]
000009c4 1de2 0001110111100010 000111 adds r2, r4, #7   ;0x7
000009c6 7fd1 0111111111010001 011111 strb r1, [r2, #31]
000009c8 2900 0010100100000000 001010 cmp r1, #0  ; 0x00
000009ca d005 1101000000000101 110100 beq.n 9d8 ; PC + 14

000009cc 77d5 0111011111010101 011101 strb r5, [r2, #31]
000009ce 6923 0110100100100011 011010 ldr  r3, [r4, #16] ; 0x10
000009d0 2b00 0010101100000000 001010 cmp r3, #0  ; 0x00
000009d2 d001 1101000000000001 110100 beq.n 9d8 ; PC + 6

000009d4 0020 0000000000100000 000000 movs r0, r4
000009d6 4798 0100011110011000 010001 blx  r3

000009d8 4b07 0100101100000111 010010 ldr  r3, [pc, #28] ; 0x001c
000009da 7d5b 0111110101011011 011111 ldrb r3, [r3, #21]
000009dc 2b00 0010101100000000 001010 cmp r3, #0  ; 0x00
000009de d009 1101000000001001 110100 beq.n 9f4 ; PC + 22

000009e0 6861 0110100001100001 011010 ldr  r1, [r4, #4] ; 0x4
000009e2 2900 0010100100000000 001010 cmp r1, #0  ; 0x00
000009e4 d006 1101000000000110 110100 beq.n 9f4 ; PC + 16

000009e6 68a3 0110100010100011 011010 ldr  r3, [r4, #8] ; 0x8
000009e8 2b00 0010101100000000 001010 cmp r3, #0  ; 0x00
000009ea d103 1101000100000011 110100 bne.n 9f4 ; PC + 10

000009ec 0020 0000000000100000 000000 movs r0, r4
000009ee 680a 0110100000001010 011010 ldr  r2, [r1, #0] ; 0x0
000009f0 f7ff 1111011111111111 111101 (32-bit)
000009f2 fe5f 1111111001011111 111101 bl   6b2

000009f4 bd70 1011110101110000 101111 pop {r4, r5, r6, lr}
000009f6 46c0 0100011011000000 010001 nop  ; (mov  r8, r8)

000009f8 09ec 0000100111101100 000010 lsrs  r4, r5, #7
000009fa 5010 0101000000010000 010100 str unimplemented form
000009fc b510 1011010100010000 101101 push {r4, lr}
000009fe 4b1e 0100101100011110 010010 ldr  r3, [pc, #120] ; 0x0078
00000a00 4c1e 0100110000011110 010011 ldr  r4, [pc, #120] ; 0x0078
00000a02 601c 0110000000011100 011000 str  r4, [r3, #0] ; 0x0
00000a04 2480 0010010010000000 001001 movs r4, #128  ; 0x80
00000a06 4b1e 0100101100011110 010010 ldr  r3, [pc, #120] ; 0x0078
00000a08 05e4 0000010111100100 000001 lsls  r4, r4, #23
00000a0a 601c 0110000000011100 011000 str  r4, [r3, #0] ; 0x0
00000a0c 24e0 0010010011100000 001001 movs r4, #224  ; 0xe0
00000a0e 04e4 0000010011100100 000001 lsls  r4, r4, #19
00000a10 601c 0110000000011100 011000 str  r4, [r3, #0] ; 0x0
00000a12 4b1c 0100101100011100 010010 ldr  r3, [pc, #112] ; 0x0070
00000a14 2800 0010100000000000 001010 cmp r0, #0  ; 0x00
00000a16 d02c 1101000000101100 110100 beq.n a72 ; PC + 92

00000a18 2401 0010010000000001 001001 movs r4, #1  ; 0x01
00000a1a 4320 0100001100100000 010000 orr  r0, r4
00000a1c 4c1a 0100110000011010 010011 ldr  r4, [pc, #104] ; 0x0068
00000a1e 61dc 0110000111011100 011000 str  r4, [r3, #28] ; 0x1c
00000a20 69dc 0110100111011100 011010 ldr  r4, [r3, #28] ; 0x1c
00000a22 4264 0100001001100100 010000 rsb  r4, r4
00000a24 4044 0100000001000100 010000 eors  r4, r0
00000a26 621c 0110001000011100 011000 str  r4, [r3, #32] ; 0x20 imm5
00000a28 6259 0110001001011001 011000 str  r1, [r3, #36] ; 0x24 imm5
00000a2a 6298 0110001010011000 011000 str  r0, [r3, #40] ; 0x28 imm5
00000a2c 21fa 0010000111111010 001000 movs r1, #250  ; 0xfa
00000a2e 0089 0000000010001001 000000 lsls  r1, r1, #2
00000a30 434a 0100001101001010 010000 muls  r2, r1
00000a32 605a 0110000001011010 011000 str  r2, [r3, #4] ; 0x4
00000a34 4a15 0100101000010101 010010 ldr  r2, [pc, #84] ; 0x0054
00000a36 6811 0110100000010001 011010 ldr  r1, [r2, #0] ; 0x0
00000a38 2202 0010001000000010 001000 movs r2, #2  ; 0x02
00000a3a 4211 0100001000010001 010000 tst  r1, r2
00000a3c d10b 1101000100001011 110100 bne.n a56 ; PC + 26

00000a3e 4914 0100100100010100 010010 ldr  r1, [pc, #80] ; 0x0050
00000a40 4814 0100100000010100 010010 ldr  r0, [pc, #80] ; 0x0050
00000a42 6809 0110100000001001 011010 ldr  r1, [r1, #0] ; 0x0
00000a44 404a 0100000001001010 010000 eors  r2, r1
00000a46 2103 0010000100000011 001000 movs r1, #3  ; 0x03
00000a48 400a 0100000000001010 010000 ands  r2, r1
00000a4a 4913 0100100100010011 010010 ldr  r1, [pc, #76] ; 0x004c
00000a4c 600a 0110000000001010 011000 str  r2, [r1, #0] ; 0x0
00000a4e 2204 0010001000000100 001000 movs r2, #4  ; 0x04
00000a50 6b81 0110101110000001 011010 ldr  r1, [r0, #56] ; 0x38
00000a52 4211 0100001000010001 010000 tst  r1, r2
00000a54 d0fc 1101000011111100 110100 beq.n a50 ; PC + -4

00000a56 220c 0010001000001100 001000 movs r2, #12  ; 0x0c
00000a58 62da 0110001011011010 011000 str  r2, [r3, #44] ; 0x2c imm5
00000a5a 4b10 0100101100010000 010010 ldr  r3, [pc, #64] ; 0x0040
00000a5c 32f5 0011001011110101 001100 adds r2, #245  ; 0xf5
00000a5e 32ff 0011001011111111 001100 adds r2, #255  ; 0xff
00000a60 601a 0110000000011010 011000 str  r2, [r3, #0] ; 0x0
00000a62 2280 0010001010000000 001000 movs r2, #128  ; 0x80
00000a64 4b0e 0100101100001110 010010 ldr  r3, [pc, #56] ; 0x0038
00000a66 05d2 0000010111010010 000001 lsls  r2, r2, #23
00000a68 601a 0110000000011010 011000 str  r2, [r3, #0] ; 0x0
00000a6a 2201 0010001000000001 001000 movs r2, #1  ; 0x01
00000a6c 4b0d 0100101100001101 010010 ldr  r3, [pc, #52] ; 0x0034
00000a6e 701a 0111000000011010 011100 ldrb r2, [r3, #0]
00000a70 bd10 1011110100010000 101111 pop {r4, lr}
00000a72 61d8 0110000111011000 011000 str  r0, [r3, #28] ; 0x1c
00000a74 e7da 1110011111011010 111001 b.n  a2c

00000a76 46c0 0100011011000000 010001 nop  ; (mov  r8, r8)

00000a78 0008 0000000000001000 000000 movs r0, r1
00000a7a 4001 0100000000000001 010000 ands  r1, r0
00000a7c fffc 1111111111111100 111111 (32-bit)
00000a7e 0001 0000000000000001 111111 To be implemented

00000a80 b000 1011000000000000 101100 add SP plus immediate
00000a82 4005 0100000000000101 010000 ands  r5, r0
00000a84 8000 1000000000000000 100000 A5-82 1000 000
00000a86 4005 0100000000000101 010000 ands  r5, r0
00000a88 c0d3 1100000011010011 110000 ASTM, STMIA, STME A6-157
00000a8a b007 1011000000000111 101100 add SP plus immediate
00000a8c c000 1100000000000000 110000 ASTM, STMIA, STME A6-157
00000a8e 4006 0100000000000110 010000 ands  r6, r0
00000a90 8030 1000000000110000 100000 A5-82 1000 000
00000a92 4000 0100000000000000 010000 ands  r0, r0
00000a94 8000 1000000000000000 100000 A5-82 1000 000
00000a96 4000 0100000000000000 010000 ands  r0, r0
00000a98 9030 1001000000110000 100100 A5-82 1001 000
00000a9a 4000 0100000000000000 010000 ands  r0, r0
00000a9c a02c 1010000000101100 101000 add r0, pc, #176 ; #b0
00000a9e 4005 0100000000000101 010000 ands  r5, r0
00000aa0 a000 1010000000000000 101000 add r0, pc, #0 ; #0
00000aa2 4005 0100000000000101 010000 ands  r5, r0
00000aa4 0eb4 0000111010110100 000011 lsrs  r4, r6, #26
00000aa6 5010 0101000000010000 010100 str unimplemented form
00000aa8 b570 1011010101110000 101101 push {r4, r5, r6, lr}
00000aaa 0004 0000000000000100 000000 movs r4, r0
00000aac 1845 0001100001000101 000110 adds r5, r0, r1
00000aae 2000 0010000000000000 001000 movs r0, #0  ; 0x00
00000ab0 42ac 0100001010101100 010000 cmp  r4, r5
00000ab2 d201 1101001000000001 110100 bcs.n ab8 ; PC + 6

00000ab4 2800 0010100000000000 001010 cmp r0, #0  ; 0x00
00000ab6 d000 1101000000000000 110100 beq.n aba ; PC + 4

00000ab8 bd70 1011110101110000 101111 pop {r4, r5, r6, lr}
00000aba 4b04 0100101100000100 010010 ldr  r3, [pc, #16] ; 0x0010
00000abc 0020 0000000000100000 000000 movs r0, r4
00000abe 681b 0110100000011011 011010 ldr  r3, [r3, #0] ; 0x0
00000ac0 68db 0110100011011011 011010 ldr  r3, [r3, #12] ; 0xc
00000ac2 4798 0100011110011000 010001 blx  r3

00000ac4 2380 0010001110000000 001000 movs r3, #128  ; 0x80
00000ac6 015b 0000000101011011 000000 lsls  r3, r3, #5
00000ac8 18e4 0001100011100100 000110 adds r4, r4, r3
00000aca e7f1 1110011111110001 111001 b.n  ab0

00000acc 0dbc 0000110110111100 000011 lsrs  r4, r7, #22
00000ace 5010 0101000000010000 010100 str unimplemented form
00000ad0 22e0 0010001011100000 001000 movs r2, #224  ; 0xe0
00000ad2 0612 0000011000010010 000001 lsls  r2, r2, #24
00000ad4 1881 0001100010000001 000110 adds r1, r0, r2
00000ad6 2284 0010001010000100 001000 movs r2, #132  ; 0x84
00000ad8 0003 0000000000000011 000000 movs r3, r0
00000ada 02d2 0000001011010010 000000 lsls  r2, r2, #11
00000adc 2001 0010000000000001 001000 movs r0, #1  ; 0x01
00000ade 4291 0100001010010001 010000 cmp  r1, r2
00000ae0 d907 1101100100000111 110110 bls.n af2 ; PC + 18

00000ae2 22eb 0010001011101011 001000 movs r2, #235  ; 0xeb
00000ae4 0612 0000011000010010 000001 lsls  r2, r2, #24
00000ae6 189b 0001100010011011 000110 adds r3, r3, r2
00000ae8 2280 0010001010000000 001000 movs r2, #128  ; 0x80
00000aea 2000 0010000000000000 001000 movs r0, #0  ; 0x00
00000aec 01d2 0000000111010010 000000 lsls  r2, r2, #7
00000aee 429a 0100001010011010 010000 cmp  r2, r3
00000af0 4140 0100000101000000 010000 adc  r0, r0
00000af2 4770 0100011101110000 010001 bx lr

00000af4 b530 1011010100110000 101101 push {r4, r5, lr}
00000af6 1d85 0001110110000101 000111 adds r5, r0, #6   ;0x6
00000af8 0f0c 0000111100001100 000011 lsrs  r4, r1, #28
00000afa b2e2 1011001011100010 101100 uxtb ; a6-172
00000afc 0013 0000000000010011 000000 movs r3, r2
00000afe 3337 0011001100110111 001100 adds r3, #55  ; 0x37
00000b00 2c09 0010110000001001 001011 cmp r4, #9  ; 0x09
00000b02 d800 1101100000000000 110110 bhi.n b06 ; PC + 4

00000b04 3b07 0011101100000111 001110 subs r3, #7  ; 0x07
00000b06 7003 0111000000000011 011100 ldrb r3, [r0, #0]
00000b08 3001 0011000000000001 001100 adds r0, #1  ; 0x01
00000b0a 0109 0000000100001001 000000 lsls  r1, r1, #4
00000b0c 42a8 0100001010101000 010000 cmp  r0, r5
00000b0e d1f3 1101000111110011 110100 bne.n af8 ; PC + -22

00000b10 bd30 1011110100110000 101111 pop {r4, r5, lr}
00000b12 be00 1011111000000000 101111 bkpt 0x0000

00000b14 2200 0010001000000000 001000 movs r2, #0  ; 0x00
00000b16 b510 1011010100010000 101101 push {r4, lr}
00000b18 4b05 0100101100000101 010010 ldr  r3, [pc, #20] ; 0x0014
00000b1a 4806 0100100000000110 010010 ldr  r0, [pc, #24] ; 0x0018
00000b1c 725a 0111001001011010 011100 strb r2, [r3, #9]
00000b1e 7a1b 0111101000011011 011110 strb r3, [r3, #8]
00000b20 2b7f 0010101101111111 001010 cmp r3, #127  ; 0x7f
00000b22 d800 1101100000000000 110110 bhi.n b26 ; PC + 4

00000b24 4804 0100100000000100 010010 ldr  r0, [pc, #16] ; 0x0010
00000b26 4a05 0100101000000101 010010 ldr  r2, [pc, #20] ; 0x0014
00000b28 4905 0100100100000101 010010 ldr  r1, [pc, #20] ; 0x0014
00000b2a f7ff 1111011111111111 111101 (32-bit)
00000b2c fdf5 1111110111110101 111101 bl   718

00000b2e bd10 1011110100010000 101111 pop {r4, lr}
00000b30 0ab8 0000101010111000 000010 lsrs  r0, r7, #10
00000b32 5010 0101000000010000 010100 str unimplemented form
00000b34 0e58 0000111001011000 000011 lsrs  r0, r3, #25
00000b36 5010 0101000000010000 010100 str unimplemented form
00000b38 0e24 0000111000100100 000011 lsrs  r4, r4, #24
00000b3a 5010 0101000000010000 010100 str unimplemented form
00000b3c 0b5d 0000101101011101 000010 lsrs  r5, r3, #13
00000b3e 0000 0000000000000000 000000 nop     ; movs r0, r0

00000b40 08b0 0000100010110000 000010 lsrs  r0, r6, #2
00000b42 5010 0101000000010000 010100 str unimplemented form
00000b44 4b04 0100101100000100 010010 ldr  r3, [pc, #16] ; 0x0010
00000b46 6a02 0110101000000010 011010 ldr  r2, [r0, #32] ; 0x20
00000b48 6cdb 0110110011011011 011011 ldr  r3, [r3, #76] ; 0x4c
00000b4a b510 1011010100010000 101101 push {r4, lr}
00000b4c 429a 0100001010011010 010000 cmp  r2, r3
00000b4e d101 1101000100000001 110100 bne.n b54 ; PC + 6

00000b50 f7ff 1111011111111111 111101 (32-bit)
00000b52 ffe0 1111111111100000 111101 bl   b14

00000b54 bd10 1011110100010000 101111 pop {r4, lr}
00000b56 46c0 0100011011000000 010001 nop  ; (mov  r8, r8)

00000b58 0ac8 0000101011001000 000010 lsrs  r0, r1, #11
00000b5a 5010 0101000000010000 010100 str unimplemented form
00000b5c b510 1011010100010000 101101 push {r4, lr}
00000b5e 4804 0100100000000100 010010 ldr  r0, [pc, #16] ; 0x0010
00000b60 1dc3 0001110111000011 000111 adds r3, r0, #7   ;0x7
00000b62 7fdb 0111111111011011 011111 strb r3, [r3, #31]
00000b64 2b00 0010101100000000 001010 cmp r3, #0  ; 0x00
00000b66 d101 1101000100000001 110100 bne.n b6c ; PC + 6

00000b68 f7ff 1111011111111111 111101 (32-bit)
00000b6a fdc2 1111110111000010 111101 bl   6f0

00000b6c bd10 1011110100010000 101111 pop {r4, lr}
00000b6e 46c0 0100011011000000 010001 nop  ; (mov  r8, r8)

00000b70 0e58 0000111001011000 000011 lsrs  r0, r3, #25
00000b72 5010 0101000000010000 010100 str unimplemented form
00000b74 0003 0000000000000011 000000 movs r3, r0
00000b76 4804 0100100000000100 010010 ldr  r0, [pc, #16] ; 0x0010
00000b78 2b03 0010101100000011 001010 cmp r3, #3  ; 0x03
00000b7a d803 1101100000000011 110110 bhi.n b84 ; PC + 10

00000b7c 4a03 0100101000000011 010010 ldr  r2, [pc, #12] ; 0x000c
00000b7e 3b01 0011101100000001 001110 subs r3, #1  ; 0x01
00000b80 009b 0000000010011011 000000 lsls  r3, r3, #2
00000b82 5898 0101100010011000 010110 ldr r0, [r3, r2]
00000b84 4770 0100011101110000 010001 bx lr

00000b86 46c0 0100011011000000 010001 nop  ; (mov  r8, r8)

00000b88 3db7 0011110110110111 001111 subs r5, #183  ; 0xb7
00000b8a 0000 0000000000000000 000000 nop     ; movs r0, r0

00000b8c 3ee8 0011111011101000 001111 subs r6, #232  ; 0xe8
00000b8e 0000 0000000000000000 000000 nop     ; movs r0, r0

00000b90 4b02 0100101100000010 010010 ldr  r3, [pc, #8] ; 0x0008
00000b92 0200 0000001000000000 000000 lsls  r0, r0, #8
00000b94 6018 0110000000011000 011000 str  r0, [r3, #0] ; 0x0
00000b96 681b 0110100000011011 011010 ldr  r3, [r3, #0] ; 0x0
00000b98 4770 0100011101110000 010001 bx lr

00000b9a 46c0 0100011011000000 010001 nop  ; (mov  r8, r8)

00000b9c 800c 1000000000001100 100000 A5-82 1000 000
00000b9e 4001 0100000000000001 010000 ands  r1, r0
00000ba0 b570 1011010101110000 101101 push {r4, r5, r6, lr}
00000ba2 0004 0000000000000100 000000 movs r4, r0
00000ba4 2002 0010000000000010 001000 movs r0, #2  ; 0x02
00000ba6 000d 0000000000001101 000000 movs r5, r1
00000ba8 f7ff 1111011111111111 111101 (32-bit)
00000baa fff2 1111111111110010 111101 bl   b90

00000bac 22c0 0010001011000000 001000 movs r2, #192  ; 0xc0
00000bae 2304 0010001100000100 001000 movs r3, #4  ; 0x04
00000bb0 0621 0000011000100001 000001 lsls  r1, r4, #24
00000bb2 4329 0100001100101001 010000 orr  r1, r5
00000bb4 0552 0000010101010010 000001 lsls  r2, r2, #21
00000bb6 0e08 0000111000001000 000011 lsrs  r0, r1, #24
00000bb8 3b01 0011101100000001 001110 subs r3, #1  ; 0x01
00000bba 6610 0110011000010000 011001 str  r0, [r2, #96] ; 0x60
00000bbc 0209 0000001000001001 000000 lsls  r1, r1, #8
00000bbe 2b00 0010101100000000 001010 cmp r3, #0  ; 0x00
00000bc0 d1f9 1101000111111001 110100 bne.n bb6 ; PC + -10

00000bc2 bd70 1011110101110000 101111 pop {r4, r5, r6, lr}
00000bc4 4b03 0100101100000011 010010 ldr  r3, [pc, #12] ; 0x000c
00000bc6 4a04 0100101000000100 010010 ldr  r2, [pc, #16] ; 0x0010
00000bc8 6018 0110000000011000 011000 str  r0, [r3, #0] ; 0x0
00000bca 0001 0000000000000001 000000 movs r1, r0
00000bcc 6893 0110100010010011 011010 ldr  r3, [r2, #8] ; 0x8
00000bce 4399 0100001110011001 010000 bic  r1, r3

00000bd0 d1fb 1101000111111011 110100 bne.n bca ; PC + -6

00000bd2 4770 0100011101110000 010001 bx lr

00000bd4 f000 1111000000000000 111100 (32-bit)
00000bd6 4000 0100000000000000 111100 To be implemented

00000bd8 c000 1100000000000000 110000 ASTM, STMIA, STME A6-157
00000bda 4000 0100000000000000 010000 ands  r0, r0
00000bdc b5f7 1011010111110111 101101 push {r0, r1, r2, r4, r5, r6, r7, lr}
00000bde 3029 0011000000101001 001100 adds r0, #41  ; 0x29
00000be0 7803 0111100000000011 011110 ldrb r3, [r0, #0]
00000be2 4c7a 0100110001111010 010011 ldr  r4, [pc, #488] ; 0x01e8
00000be4 2b00 0010101100000000 001010 cmp r3, #0  ; 0x00
00000be6 d00a 1101000000001010 110100 beq.n bfe ; PC + 24

00000be8 2301 0010001100000001 001000 movs r3, #1  ; 0x01
00000bea 6063 0110000001100011 011000 str  r3, [r4, #4] ; 0x4
00000bec f3ef 1111001111101111 111100 (32-bit)
00000bee 8510 1000010100010000 111100 To be implemented

00000bf0 b672 1011011001110010 101101 cps
00000bf2 0020 0000000000100000 000000 movs r0, r4
00000bf4 68a3 0110100010100011 011010 ldr  r3, [r4, #8] ; 0x8
00000bf6 4798 0100011110011000 010001 blx  r3

00000bf8 f385 1111001110000101 111100 (32-bit)
00000bfa 8810 1000100000010000 111100 msr ASPR, r5

00000bfc bdf7 1011110111110111 101111 pop {r0, r1, r2, r4, r5, r6, r7, lr}
00000bfe 4b74 0100101101110100 010010 ldr  r3, [pc, #464] ; 0x01d0
00000c00 2007 0010000000000111 001000 movs r0, #7  ; 0x07
00000c02 781b 0111100000011011 011110 ldrb r3, [r3, #0]
00000c04 2b00 0010101100000000 001010 cmp r3, #0  ; 0x00
00000c06 d109 1101000100001001 110100 bne.n c1c ; PC + 22

00000c08 1d63 0001110101100011 000111 adds r3, r4, #5   ;0x5
00000c0a 7fde 0111111111011110 011111 strb r6, [r3, #31]
00000c0c 7fdb 0111111111011011 011111 strb r3, [r3, #31]
00000c0e b25b 1011001001011011 101100 sxtb ; a6-168
00000c10 2b00 0010101100000000 001010 cmp r3, #0  ; 0x00
00000c12 da25 1101101000100101 110110 bge.n c60 ; PC + 78

00000c14 68e5 0110100011100101 011010 ldr  r5, [r4, #12] ; 0xc
00000c16 07eb 0000011111101011 000001 lsls  r3, r5, #31
00000c18 d502 1101010100000010 110101 bpl.n c20 ; PC + 8

00000c1a 2005 0010000000000101 001000 movs r0, #5  ; 0x05
00000c1c 6060 0110000001100000 011000 str  r0, [r4, #4] ; 0x4
00000c1e e7e5 1110011111100101 111001 b.n  bec

00000c20 0028 0000000000101000 000000 movs r0, r5
00000c22 f7ff 1111011111111111 111101 (32-bit)
00000c24 ff55 1111111101010101 111101 bl   ad0

00000c26 2800 0010100000000000 001010 cmp r0, #0  ; 0x00
00000c28 d101 1101000100000001 110100 bne.n c2e ; PC + 6

00000c2a 2004 0010000000000100 001000 movs r0, #4  ; 0x04
00000c2c e7f6 1110011111110110 111001 b.n  c1c

00000c2e 23eb 0010001111101011 001000 movs r3, #235  ; 0xeb
00000c30 2780 0010011110000000 001001 movs r7, #128  ; 0x80
00000c32 061b 0000011000011011 000001 lsls  r3, r3, #24
00000c34 18eb 0001100011101011 000110 adds r3, r5, r3
00000c36 01ff 0000000111111111 000000 lsls  r7, r7, #7
00000c38 42bb 0100001010111011 010000 cmp  r3, r7
00000c3a d9f6 1101100111110110 110110 bls.n c2a ; PC + -16

00000c3c 0028 0000000000101000 000000 movs r0, r5
00000c3e 301c 0011000000011100 001100 adds r0, #28  ; 0x1c
00000c40 f7ff 1111011111111111 111101 (32-bit)
00000c42 ff46 1111111101000110 111101 bl   ad0

00000c44 2800 0010100000000000 001010 cmp r0, #0  ; 0x00
00000c46 d0f0 1101000011110000 110100 beq.n c2a ; PC + -28

00000c48 4b62 0100101101100010 010010 ldr  r3, [pc, #392] ; 0x0188
00000c4a 18eb 0001100011101011 000110 adds r3, r5, r3
00000c4c 42bb 0100001010111011 010000 cmp  r3, r7
00000c4e d9ec 1101100111101100 110110 bls.n c2a ; PC + -36

00000c50 221c 0010001000011100 001000 movs r2, #28  ; 0x1c
00000c52 0028 0000000000101000 000000 movs r0, r5
00000c54 4960 0100100101100000 010010 ldr  r1, [pc, #384] ; 0x0180
00000c56 f001 1111000000000001 111100 (32-bit)
00000c58 fcf3 1111110011110011 111100 bl   2640

00000c5a 4b60 0100101101100000 010010 ldr  r3, [pc, #384] ; 0x0180
00000c5c 68e2 0110100011100010 011010 ldr  r2, [r4, #12] ; 0xc
00000c5e 601a 0110000000011010 011000 str  r2, [r3, #0] ; 0x0
00000c60 06f3 0000011011110011 000001 lsls  r3, r6, #27
00000c62 d50e 1101010100001110 110101 bpl.n c82 ; PC + 32

00000c64 1da3 0001110110100011 000111 adds r3, r4, #6   ;0x6
00000c66 7fd9 0111111111011001 011111 strb r1, [r3, #31]
00000c68 000a 0000000000001010 000000 movs r2, r1
00000c6a 1e53 0001111001010011 000111 subs  r3, r2, #1   ;0x1
00000c6c 419a 0100000110011010 010000 sbc  r2, r3
00000c6e 4b5c 0100101101011100 010010 ldr  r3, [pc, #368] ; 0x0170
00000c70 b2d2 1011001011010010 101100 uxtb ; a6-172
00000c72 3329 0011001100101001 001100 adds r3, #41  ; 0x29
00000c74 701a 0111000000011010 011100 ldrb r2, [r3, #0]
00000c76 2902 0010100100000010 001010 cmp r1, #2  ; 0x02
00000c78 d103 1101000100000011 110100 bne.n c82 ; PC + 10

00000c7a 2201 0010001000000001 001000 movs r2, #1  ; 0x01
00000c7c 4b59 0100101101011001 010010 ldr  r3, [pc, #356] ; 0x0164
00000c7e 3307 0011001100000111 001100 adds r3, #7  ; 0x07
00000c80 77da 0111011111011010 011101 strb r2, [r3, #31]
00000c82 07f3 0000011111110011 000001 lsls  r3, r6, #31
00000c84 d418 1101010000011000 110101 bmi.n cb8 ; PC + 52

00000c86 0673 0000011001110011 000001 lsls  r3, r6, #25
00000c88 d41d 1101010000011101 110101 bmi.n cc6 ; PC + 62

00000c8a 230a 0010001100001010 001000 movs r3, #10  ; 0x0a
00000c8c 421e 0100001000011110 010000 tst  r6, r3
00000c8e d00c 1101000000001100 110100 beq.n caa ; PC + 28

00000c90 1de3 0001110111100011 000111 adds r3, r4, #7   ;0x7
00000c92 7fda 0111111111011010 011111 strb r2, [r3, #31]
00000c94 0023 0000000000100011 000000 movs r3, r4
00000c96 3308 0011001100001000 001100 adds r3, #8  ; 0x08
00000c98 7fd9 0111111111011001 011111 strb r1, [r3, #31]
00000c9a 4b53 0100101101010011 010010 ldr  r3, [pc, #332] ; 0x014c
00000c9c 2900 0010100100000000 001010 cmp r1, #0  ; 0x00
00000c9e d003 1101000000000011 110100 beq.n ca8 ; PC + 10

00000ca0 7819 0111100000011001 011110 ldrb r1, [r3, #0]
00000ca2 2006 0010000000000110 001000 movs r0, #6  ; 0x06
00000ca4 4291 0100001010010001 010000 cmp  r1, r2
00000ca6 d1b9 1101000110111001 110100 bne.n d1c ; PC + 118

00000ca8 701a 0111000000011010 011100 ldrb r2, [r3, #0]
00000caa 07b3 0000011110110011 000001 lsls  r3, r6, #30
00000cac d410 1101010000010000 110101 bmi.n cd0 ; PC + 36

00000cae 230c 0010001100001100 001000 movs r3, #12  ; 0x0c
00000cb0 421e 0100001000011110 010000 tst  r6, r3
00000cb2 d125 1101000100100101 110100 bne.n d00 ; PC + 78

00000cb4 2000 0010000000000000 001000 movs r0, #0  ; 0x00
00000cb6 e7b1 1110011110110001 111001 b.n  c1c

00000cb8 4b48 0100101101001000 010010 ldr  r3, [pc, #288] ; 0x0120
00000cba 681b 0110100000011011 011010 ldr  r3, [r3, #0] ; 0x0
00000cbc 689b 0110100010011011 011010 ldr  r3, [r3, #8] ; 0x8
00000cbe 4798 0100011110011000 010001 blx  r3

00000cc0 2800 0010100000000000 001010 cmp r0, #0  ; 0x00
00000cc2 d0e0 1101000011100000 110100 beq.n c86 ; PC + -60

00000cc4 e7aa 1110011110101010 111001 b.n  c1c

00000cc6 2301 0010001100000001 001000 movs r3, #1  ; 0x01
00000cc8 68e2 0110100011100010 011010 ldr  r2, [r4, #12] ; 0xc
00000cca 4313 0100001100010011 010000 orr  r3, r2
00000ccc 4798 0100011110011000 010001 blx  r3

00000cce e7dc 1110011111011100 111001 b.n  c8a

00000cd0 6920 0110100100100000 011010 ldr  r0, [r4, #16] ; 0x10
00000cd2 0503 0000010100000011 000001 lsls  r3, r0, #20
00000cd4 d1a1 1101000110100001 110100 bne.n d1a ; PC + 70

00000cd6 6961 0110100101100001 011010 ldr  r1, [r4, #20] ; 0x14
00000cd8 050b 0000010100001011 000001 lsls  r3, r1, #20
00000cda d19e 1101000110011110 110100 bne.n d1a ; PC + 64

00000cdc 25f0 0010010111110000 001001 movs r5, #240  ; 0xf0
00000cde 2280 0010001010000000 001000 movs r2, #128  ; 0x80
00000ce0 062d 0000011000101101 000001 lsls  r5, r5, #24
00000ce2 1943 0001100101000011 000110 adds r3, r0, r5
00000ce4 0552 0000010101010010 000001 lsls  r2, r2, #21
00000ce6 4293 0100001010010011 010000 cmp  r3, r2
00000ce8 d89f 1101100010011111 110110 bhi.n d2a ; PC + 66

00000cea 1843 0001100001000011 000110 adds r3, r0, r1
00000cec 195b 0001100101011011 000110 adds r3, r3, r5
00000cee 4293 0100001010010011 010000 cmp  r3, r2
00000cf0 d89b 1101100010011011 110110 bhi.n d2a ; PC + 58

00000cf2 4b3a 0100101100111010 010010 ldr  r3, [pc, #232] ; 0x00e8
00000cf4 681b 0110100000011011 011010 ldr  r3, [r3, #0] ; 0x0
00000cf6 691b 0110100100011011 011010 ldr  r3, [r3, #16] ; 0x10
00000cf8 4798 0100011110011000 010001 blx  r3

00000cfa 2800 0010100000000000 001010 cmp r0, #0  ; 0x00
00000cfc d0d7 1101000011010111 110100 beq.n cae ; PC + -78

00000cfe e78d 1110011110001101 111001 b.n  c1c

00000d00 68e5 0110100011100101 011010 ldr  r5, [r4, #12] ; 0xc
00000d02 0028 0000000000101000 000000 movs r0, r5
00000d04 f7ff 1111011111111111 111101 (32-bit)
00000d06 fee4 1111111011100100 111101 bl   ad0

00000d08 2800 0010100000000000 001010 cmp r0, #0  ; 0x00
00000d0a d005 1101000000000101 110100 beq.n d18 ; PC + 14

00000d0c 69e3 0110100111100011 011010 ldr  r3, [r4, #28] ; 0x1c
00000d0e 18e8 0001100011101000 000110 adds r0, r5, r3
00000d10 f7ff 1111011111111111 111101 (32-bit)
00000d12 fede 1111111011011110 111101 bl   ad0

00000d14 1e07 0001111000000111 000111 subs  r7, r0, #0   ;0x0
00000d16 d11e 1101000100011110 110100 bne.n d56 ; PC + 64

00000d18 0733 0000011100110011 000001 lsls  r3, r6, #28
00000d1a d40a 1101010000001010 110101 bmi.n d32 ; PC + 24

00000d1c 2280 0010001010000000 001000 movs r2, #128  ; 0x80
00000d1e 0192 0000000110010010 000000 lsls  r2, r2, #6
00000d20 4295 0100001010010101 010000 cmp  r5, r2
00000d22 d206 1101001000000110 110100 bcs.n d32 ; PC + 16

00000d24 69e3 0110100111100011 011010 ldr  r3, [r4, #28] ; 0x1c
00000d26 18eb 0001100011101011 000110 adds r3, r5, r3
00000d28 4293 0100001010010011 010000 cmp  r3, r2
00000d2a d300 1101001100000000 110100 bcc.n d2e ; PC + 4

00000d2c e77d 1110011101111101 111001 b.n  c2a

00000d2e 2701 0010011100000001 001001 movs r7, #1  ; 0x01
00000d30 e011 1110000000010001 111000 b.n  d56

00000d32 21f0 0010000111110000 001000 movs r1, #240  ; 0xf0
00000d34 2280 0010001010000000 001000 movs r2, #128  ; 0x80
00000d36 0609 0000011000001001 000001 lsls  r1, r1, #24
00000d38 186b 0001100001101011 000110 adds r3, r5, r1
00000d3a 0552 0000010101010010 000001 lsls  r2, r2, #21
00000d3c 4293 0100001010010011 010000 cmp  r3, r2
00000d3e d900 1101100100000000 110110 bls.n d42 ; PC + 4

00000d40 e773 1110011101110011 111001 b.n  c2a

00000d42 69e3 0110100111100011 011010 ldr  r3, [r4, #28] ; 0x1c
00000d44 18eb 0001100011101011 000110 adds r3, r5, r3
00000d46 185b 0001100001011011 000110 adds r3, r3, r1
00000d48 4293 0100001010010011 010000 cmp  r3, r2
00000d4a d900 1101100100000000 110110 bls.n d4e ; PC + 4

00000d4c e76d 1110011101101101 111001 b.n  c2a

00000d4e b2ef 1011001011101111 101100 uxtb ; a6-172
00000d50 2f00 0010111100000000 001011 cmp r7, #0  ; 0x00
00000d52 d000 1101000000000000 110100 beq.n d56 ; PC + 4

00000d54 e761 1110011101100001 111001 b.n  c1a

00000d56 0733 0000011100110011 000001 lsls  r3, r6, #28
00000d58 d518 1101010100011000 110101 bpl.n d8c ; PC + 52

00000d5a 4b20 0100101100100000 010010 ldr  r3, [pc, #128] ; 0x0080
00000d5c 69a1 0110100110100001 011010 ldr  r1, [r4, #24] ; 0x18
00000d5e 469c 0100011010011100 010001 mov  r3, r12
00000d60 681b 0110100000011011 011010 ldr  r3, [r3, #0] ; 0x0
00000d62 2f00 0010111100000000 001011 cmp r7, #0  ; 0x00
00000d64 d023 1101000000100011 110100 beq.n dae ; PC + 74

00000d66 69e2 0110100111100010 011010 ldr  r2, [r4, #28] ; 0x1c
00000d68 9501 1001010100000001 100101 A5-82 1001 010
00000d6a 42ab 0100001010101011 010000 cmp  r3, r5
00000d6c d900 1101100100000000 110110 bls.n d70 ; PC + 4

00000d6e 9301 1001001100000001 100100 str r1, [sp, #12]
00000d70 331c 0011001100011100 001100 adds r3, #28  ; 0x1c
00000d72 18a8 0001100010101000 000110 adds r0, r5, r2
00000d74 4283 0100001010000011 010000 cmp  r3, r0
00000d76 d200 1101001000000000 110100 bcs.n d7a ; PC + 4

00000d78 0018 0000000000011000 000000 movs r0, r3
00000d7a 9b01 1001101100000001 100110 A5-82 1001 101
00000d7c 4283 0100001010000011 010000 cmp  r3, r0
00000d7e d202 1101001000000010 110100 bcs.n d86 ; PC + 8

00000d80 4660 0100011001100000 010001 mov  r12, r0
00000d82 4b15 0100101100010101 010010 ldr  r3, [pc, #84] ; 0x0054
00000d84 6003 0110000000000011 011000 str  r3, [r0, #0] ; 0x0
00000d86 0028 0000000000101000 000000 movs r0, r5
00000d88 f001 1111000000000001 111100 (32-bit)
00000d8a fc5a 1111110001011010 111100 bl   2640

00000d8c 0773 0000011101110011 000001 lsls  r3, r6, #29
00000d8e d507 1101010100000111 110101 bpl.n da0 ; PC + 18

00000d90 68e3 0110100011100011 011010 ldr  r3, [r4, #12] ; 0xc
00000d92 69a0 0110100110100000 011010 ldr  r0, [r4, #24] ; 0x18
00000d94 2f00 0010111100000000 001011 cmp r7, #0  ; 0x00
00000d96 d010 1101000000010000 110100 beq.n dba ; PC + 36

00000d98 0019 0000000000011001 000000 movs r1, r3
00000d9a 69e2 0110100111100010 011010 ldr  r2, [r4, #28] ; 0x1c
00000d9c f001 1111000000000001 111100 (32-bit)
00000d9e fc50 1111110001010000 111100 bl   2640

00000da0 06b3 0000011010110011 000001 lsls  r3, r6, #26
00000da2 d587 1101010110000111 110101 bpl.n db4 ; PC + 18

00000da4 4b0d 0100101100001101 010010 ldr  r3, [pc, #52] ; 0x0034
00000da6 681b 0110100000011011 011010 ldr  r3, [r3, #0] ; 0x0
00000da8 685b 0110100001011011 011010 ldr  r3, [r3, #4] ; 0x4
00000daa 4798 0100011110011000 010001 blx  r3

00000dac e736 1110011100110110 111001 b.n  c1c

00000dae 0028 0000000000101000 000000 movs r0, r5
00000db0 695b 0110100101011011 011010 ldr  r3, [r3, #20] ; 0x14
00000db2 4798 0100011110011000 010001 blx  r3

00000db4 2800 0010100000000000 001010 cmp r0, #0  ; 0x00
00000db6 d0e9 1101000011101001 110100 beq.n d8c ; PC + -42

00000db8 e730 1110011100110000 111001 b.n  c1c

00000dba 4a08 0100101000001000 010010 ldr  r2, [pc, #32] ; 0x0020
00000dbc 0001 0000000000000001 000000 movs r1, r0
00000dbe 6812 0110100000010010 011010 ldr  r2, [r2, #0] ; 0x0
00000dc0 0018 0000000000011000 000000 movs r0, r3
00000dc2 6992 0110100110010010 011010 ldr  r2, [r2, #24] ; 0x18
00000dc4 4790 0100011110010000 010001 blx  r2

00000dc6 2800 0010100000000000 001010 cmp r0, #0  ; 0x00
00000dc8 d0ea 1101000011101010 110100 beq.n da0 ; PC + -40

00000dca e727 1110011100100111 111001 b.n  c1c

00000dcc 0d8c 0000110110001100 000011 lsrs  r4, r1, #22
00000dce 5010 0101000000010000 010100 str unimplemented form
00000dd0 0eb4 0000111010110100 000011 lsrs  r4, r6, #26
00000dd2 5010 0101000000010000 010100 str unimplemented form
00000dd4 001c 0000000000011100 000000 movs r4, r3
00000dd6 eb00 1110101100000000 111010 (32-bit)
00000dd8 3ecc 0011111011001100 111010 To be implemented

00000dda 0000 0000000000000000 000000 nop     ; movs r0, r0

00000ddc 0dbc 0000110110111100 000011 lsrs  r4, r7, #22
00000dde 5010 0101000000010000 010100 str unimplemented form
00000de0 0fc0 0000111111000000 000011 lsrs  r0, r0, #31
00000de2 5010 0101000000010000 010100 str unimplemented form
00000de4 0a7c 0000101001111100 000010 lsrs  r4, r7, #9
00000de6 5010 0101000000010000 010100 str unimplemented form
00000de8 0a1c 0000101000011100 000010 lsrs  r4, r3, #8
00000dea 5010 0101000000010000 010100 str unimplemented form
00000dec b5f8 1011010111111000 101101 push {r3, r4, r5, r6, r7, lr}
00000dee 6a46 0110101001000110 011010 ldr  r6, [r0, #36] ; 0x24
00000df0 0004 0000000000000100 000000 movs r4, r0
00000df2 0033 0000000000110011 000000 movs r3, r6
00000df4 3329 0011001100101001 001100 adds r3, #41  ; 0x29
00000df6 781b 0111100000011011 011110 ldrb r3, [r3, #0]
00000df8 0030 0000000000110000 000000 movs r0, r6
00000dfa 2b00 0010101100000000 001010 cmp r3, #0  ; 0x00
00000dfc d023 1101000000100011 110100 beq.n e46 ; PC + 74

00000dfe f7ff 1111011111111111 111101 (32-bit)
00000e00 fbcd 1111101111001101 111101 bl   59c

00000e02 6963 0110100101100011 011010 ldr  r3, [r4, #20] ; 0x14
00000e04 69e2 0110100111100010 011010 ldr  r2, [r4, #28] ; 0x1c
00000e06 001f 0000000000011111 000000 movs r7, r3
00000e08 0005 0000000000000101 000000 movs r5, r0
00000e0a 69a0 0110100110100000 011010 ldr  r0, [r4, #24] ; 0x18
00000e0c 1e51 0001111001010001 000111 subs  r1, r2, #1   ;0x1
00000e0e 3740 0011011101000000 001101 adds r7, #64  ; 0x40
00000e10 2240 0010001001000000 001000 movs r2, #64  ; 0x40
00000e12 4019 0100000000011001 010000 ands  r1, r3
00000e14 4287 0100001010000111 010000 cmp  r7, r0
00000e16 d900 1101100100000000 110110 bls.n e1a ; PC + 4

00000e18 1ac2 0001101011000010 000110 sub reg A6-165
00000e1a 712a 0111000100101010 011100 ldrb r2, [r5, #4]
00000e1c 6a23 0110101000100011 011010 ldr  r3, [r4, #32] ; 0x20
00000e1e 6828 0110100000101000 011010 ldr  r0, [r5, #0] ; 0x0
00000e20 1859 0001100001011001 000110 adds r1, r3, r1
00000e22 f001 1111000000000001 111100 (32-bit)
00000e24 fc0d 1111110000001101 111100 bl   2640

00000e26 792b 0111100100101011 011110 ldrb r3, [r5, #4]
00000e28 6962 0110100101100010 011010 ldr  r2, [r4, #20] ; 0x14
00000e2a 0020 0000000000100000 000000 movs r0, r4
00000e2c 18d3 0001100011010011 000110 adds r3, r2, r3
00000e2e 6163 0110000101100011 011000 str  r3, [r4, #20] ; 0x14
00000e30 6aa3 0110101010100011 011010 ldr  r3, [r4, #40] ; 0x28
00000e32 681b 0110100000011011 011010 ldr  r3, [r3, #0] ; 0x0
00000e34 4798 0100011110011000 010001 blx  r3

00000e36 4b06 0100101100000110 010010 ldr  r3, [pc, #24] ; 0x0018
00000e38 0030 0000000000110000 000000 movs r0, r6
00000e3a 681a 0110100000011010 011010 ldr  r2, [r3, #0] ; 0x0
00000e3c 4b05 0100101100000101 010010 ldr  r3, [pc, #20] ; 0x0014
00000e3e 601a 0110000000011010 011000 str  r2, [r3, #0] ; 0x0
00000e40 f7ff 1111011111111111 111101 (32-bit)
00000e42 fd2e 1111110100101110 111101 bl   8a0

00000e44 bdf8 1011110111111000 101111 pop {r3, r4, r5, r6, r7, lr}
00000e46 f7ff 1111011111111111 111101 (32-bit)
00000e48 fba9 1111101110101001 111101 bl   59c

00000e4a 0005 0000000000000101 000000 movs r5, r0
00000e4c e7eb 1110011111101011 111001 b.n  e26

00000e4e 46c0 0100011011000000 010001 nop  ; (mov  r8, r8)

00000e50 0f64 0000111101100100 000011 lsrs  r4, r4, #29
00000e52 5010 0101000000010000 010100 str unimplemented form
00000e54 0018 0000000000011000 000000 movs r0, r3
00000e56 d000 1101000000000000 110100 beq.n e5a ; PC + 4

00000e58 b570 1011010101110000 101101 push {r4, r5, r6, lr}
00000e5a 4c0c 0100110000001100 010011 ldr  r4, [pc, #48] ; 0x0030
00000e5c 6a03 0110101000000011 011010 ldr  r3, [r0, #32] ; 0x20
00000e5e 6ce2 0110110011100010 011011 ldr  r2, [r4, #76] ; 0x4c
00000e60 0005 0000000000000101 000000 movs r5, r0
00000e62 4293 0100001010010011 010000 cmp  r3, r2
00000e64 d111 1101000100010001 110100 bne.n e8a ; PC + 38

00000e66 6843 0110100001000011 011010 ldr  r3, [r0, #4] ; 0x4
00000e68 4e09 0100111000001001 010011 ldr  r6, [pc, #36] ; 0x0024
00000e6a 6073 0110000001110011 011000 str  r3, [r6, #4] ; 0x4
00000e6c 2b00 0010101100000000 001010 cmp r3, #0  ; 0x00
00000e6e d005 1101000000000101 110100 beq.n e7c ; PC + 14

00000e70 2102 0010000100000010 001000 movs r1, #2  ; 0x02
00000e72 6a60 0110101001100000 011010 ldr  r0, [r4, #36] ; 0x24
00000e74 f7ff 1111011111111111 111101 (32-bit)
00000e76 fcb2 1111110010110010 111101 bl   7dc

00000e78 2300 0010001100000000 001000 movs r3, #0  ; 0x00
00000e7a 7273 0111001001110011 011100 strb r3, [r6, #9]
00000e7c 69eb 0110100111101011 011010 ldr  r3, [r5, #28] ; 0x1c
00000e7e 6ba2 0110101110100010 011010 ldr  r2, [r4, #56] ; 0x38
00000e80 0020 0000000000100000 000000 movs r0, r4
00000e82 18d3 0001100011010011 000110 adds r3, r2, r3
00000e84 63a3 0110001110100011 011000 str  r3, [r4, #56] ; 0x38 imm5
00000e86 f7ff 1111011111111111 111101 (32-bit)
00000e88 ffb1 1111111110110001 111101 bl   dec

00000e8a bd70 1011110101110000 101111 pop {r4, r5, r6, lr}
00000e8c 0ac8 0000101011001000 000010 lsrs  r0, r1, #11
00000e8e 5010 0101000000010000 010100 str unimplemented form
00000e90 0ab8 0000101010111000 000010 lsrs  r0, r7, #10
00000e92 5010 0101000000010000 010100 str unimplemented form
00000e94 b570 1011010101110000 101101 push {r4, r5, r6, lr}
00000e96 0004 0000000000000100 000000 movs r4, r0
00000e98 2601 0010011000000001 001001 movs r6, #1  ; 0x01
00000e9a 4d0a 0100110100001010 010011 ldr  r5, [pc, #40] ; 0x0028
00000e9c 7568 0111010101101000 011101 ldrb r0, [r5, #21]
00000e9e 4b0a 0100101100001010 010010 ldr  r3, [pc, #40] ; 0x0028
00000ea0 00b2 0000000010110010 000000 lsls  r2, r6, #2
00000ea2 58d0 0101100011010000 010110 ldr r0, [r2, r3]
00000ea4 2800 0010100000000000 001010 cmp r0, #0  ; 0x00
00000ea6 d002 1101000000000010 110100 beq.n eae ; PC + 8

00000ea8 2101 0010000100000001 001000 movs r1, #1  ; 0x01
00000eaa f7ff 1111011111111111 111101 (32-bit)
00000eac fd7f 1111110101111111 111101 bl   9ac

00000eae 3601 0011011000000001 001101 adds r6, #1  ; 0x01
00000eb0 2e05 0010111000000101 001011 cmp r6, #5  ; 0x05
00000eb2 d1f4 1101000111110100 110100 bne.n e9e ; PC + -20

00000eb4 1e60 0001111001100000 000111 subs  r0, r4, #1   ;0x1
00000eb6 4184 0100000110000100 010000 sbc  r4, r0
00000eb8 686b 0110100001101011 011010 ldr  r3, [r5, #4] ; 0x4
00000eba 0028 0000000000101000 000000 movs r0, r5
00000ebc b2e1 1011001011100001 101100 uxtb ; a6-172
00000ebe 4798 0100011110011000 010001 blx  r3

00000ec0 bd70 1011110101110000 101111 pop {r4, r5, r6, lr}
00000ec2 46c0 0100011011000000 010001 nop  ; (mov  r8, r8)

00000ec4 09ec 0000100111101100 000010 lsrs  r4, r5, #7
00000ec6 5010 0101000000010000 010100 str unimplemented form
00000ec8 0a08 0000101000001000 000010 lsrs  r0, r1, #8
00000eca 5010 0101000000010000 010100 str unimplemented form
00000ecc b510 1011010100010000 101101 push {r4, lr}
00000ece 2000 0010000000000000 001000 movs r0, #0  ; 0x00
00000ed0 f7ff 1111011111111111 111101 (32-bit)
00000ed2 ffe0 1111111111100000 111101 bl   e94

00000ed4 2300 0010001100000000 001000 movs r3, #0  ; 0x00
00000ed6 4a05 0100101000000101 010010 ldr  r2, [pc, #20] ; 0x0014
00000ed8 7513 0111010100010011 011101 ldrb r3, [r2, #20]
00000eda 4a05 0100101000000101 010010 ldr  r2, [pc, #20] ; 0x0014
00000edc 6013 0110000000010011 011000 str  r3, [r2, #0] ; 0x0
00000ede 2201 0010001000000001 001000 movs r2, #1  ; 0x01
00000ee0 4b04 0100101100000100 010010 ldr  r3, [pc, #16] ; 0x0010
00000ee2 4252 0100001001010010 010000 rsb  r2, r2
00000ee4 659a 0110010110011010 011001 str  r2, [r3, #88] ; 0x58
00000ee6 651a 0110010100011010 011001 str  r2, [r3, #80] ; 0x50
00000ee8 bd10 1011110100010000 101111 pop {r4, lr}
00000eea 46c0 0100011011000000 010001 nop  ; (mov  r8, r8)

00000eec 09ec 0000100111101100 000010 lsrs  r4, r5, #7
00000eee 5010 0101000000010000 010100 str unimplemented form
00000ef0 0000 0000000000000000 000000 nop     ; movs r0, r0

00000ef2 5011 0101000000010001 010100 str unimplemented form
00000ef4 3000 0011000000000000 001100 adds r0, #0  ; 0x00
00000ef6 5011 0101000000010001 010100 str unimplemented form
00000ef8 2220 0010001000100000 001000 movs r2, #32  ; 0x20
00000efa 4b0e 0100101100001110 010010 ldr  r3, [pc, #56] ; 0x0038
00000efc b510 1011010100010000 101101 push {r4, lr}
00000efe 601a 0110000000011010 011000 str  r2, [r3, #0] ; 0x0
00000f00 4b0d 0100101100001101 010010 ldr  r3, [pc, #52] ; 0x0034
00000f02 6818 0110100000011000 011010 ldr  r0, [r3, #0] ; 0x0
00000f04 23d0 0010001111010000 001000 movs r3, #208  ; 0xd0
00000f06 061b 0000011000011011 000001 lsls  r3, r3, #24
00000f08 6158 0110000101011000 011000 str  r0, [r3, #20] ; 0x14
00000f0a 6258 0110001001011000 011000 str  r0, [r3, #36] ; 0x24 imm5
00000f0c f7ff 1111011111111111 111101 (32-bit)
00000f0e fa27 1111101000100111 111101 bl   35e

00000f10 2240 0010001001000000 001000 movs r2, #64  ; 0x40
00000f12 4b0a 0100101100001010 010010 ldr  r3, [pc, #40] ; 0x0028
00000f14 18c3 0001100011000011 000110 adds r3, r0, r3
00000f16 009b 0000000010011011 000000 lsls  r3, r3, #2
00000f18 6819 0110100000011001 011010 ldr  r1, [r3, #0] ; 0x0
00000f1a 430a 0100001100001010 010000 orr  r2, r1
00000f1c 2180 0010000110000000 001000 movs r1, #128  ; 0x80
00000f1e 601a 0110000000011010 011000 str  r2, [r3, #0] ; 0x0
00000f20 681a 0110100000011010 011010 ldr  r2, [r3, #0] ; 0x0
00000f22 438a 0100001110001010 010000 bic  r2, r1

00000f24 601a 0110000000011010 011000 str  r2, [r3, #0] ; 0x0
00000f26 4b06 0100101100000110 010010 ldr  r3, [pc, #24] ; 0x0018
00000f28 18c0 0001100011000000 000110 adds r0, r0, r3
00000f2a 2305 0010001100000101 001000 movs r3, #5  ; 0x05
00000f2c 00c0 0000000011000000 000000 lsls  r0, r0, #3
00000f2e 6043 0110000001000011 011000 str  r3, [r0, #4] ; 0x4
00000f30 bd10 1011110100010000 101111 pop {r4, lr}
00000f32 46c0 0100011011000000 010001 nop  ; (mov  r8, r8)

00000f34 f000 1111000000000000 111100 (32-bit)
00000f36 4000 0100000000000000 111100 To be implemented

00000f38 0f64 0000111101100100 000011 lsrs  r4, r4, #29
00000f3a 5010 0101000000010000 010100 str unimplemented form
00000f3c 7001 0111000000000001 011100 ldrb r1, [r0, #0]
00000f3e 1000 0001000000000000 000100 asr   r0, r0, #64
00000f40 2800 0010100000000000 001010 cmp r0, #0  ; 0x00
00000f42 0800 0000100000000000 000010 lsrs  r0, r0, #32
00000f44 b510 1011010100010000 101101 push {r4, lr}
00000f46 000a 0000000000001010 000000 movs r2, r1
00000f48 2100 0010000100000000 001000 movs r1, #0  ; 0x00
00000f4a f001 1111000000000001 111100 (32-bit)
00000f4c fbc7 1111101111000111 111100 bl   26dc

00000f4e bd10 1011110100010000 101111 pop {r4, lr}
00000f50 4b11 0100101100010001 010010 ldr  r3, [pc, #68] ; 0x0044
00000f52 b570 1011010101110000 101101 push {r4, r5, r6, lr}
00000f54 781a 0111100000011010 011110 ldrb r2, [r3, #0]
00000f56 4c11 0100110000010001 010011 ldr  r4, [pc, #68] ; 0x0044
00000f58 2a00 0010101000000000 001010 cmp r2, #0  ; 0x00
00000f5a d107 1101000100000111 110100 bne.n f6c ; PC + 18

00000f5c 4a10 0100101000010000 010010 ldr  r2, [pc, #64] ; 0x0040
00000f5e 4911 0100100100010001 010010 ldr  r1, [pc, #68] ; 0x0044
00000f60 6322 0110001100100010 011000 str  r2, [r4, #48] ; 0x30 imm5
00000f62 6011 0110000000010001 011000 str  r1, [r2, #0] ; 0x0
00000f64 4a10 0100101000010000 010010 ldr  r2, [pc, #64] ; 0x0040
00000f66 6122 0110000100100010 011000 str  r2, [r4, #16] ; 0x10
00000f68 2201 0010001000000001 001000 movs r2, #1  ; 0x01
00000f6a 701a 0111000000011010 011100 ldrb r2, [r3, #0]
00000f6c 4d0f 0100110100001111 010011 ldr  r5, [pc, #60] ; 0x003c
00000f6e 2128 0010000100101000 001000 movs r1, #40  ; 0x28
00000f70 0028 0000000000101000 000000 movs r0, r5
00000f72 f7ff 1111011111111111 111101 (32-bit)
00000f74 ffe7 1111111111100111 111101 bl   f44

00000f76 2370 0010001101110000 001000 movs r3, #112  ; 0x70
00000f78 736b 0111001101101011 011100 strb r3, [r5, #13]
00000f7a 3b66 0011101101100110 001110 subs r3, #102  ; 0x66
00000f7c 752b 0111010100101011 011101 ldrb r3, [r5, #20]
00000f7e 2500 0010010100000000 001001 movs r5, #0  ; 0x00
00000f80 4b0b 0100101100001011 010010 ldr  r3, [pc, #44] ; 0x002c
00000f82 0029 0000000000101001 000000 movs r1, r5
00000f84 0020 0000000000100000 000000 movs r0, r4
00000f86 611d 0110000100011101 011000 str  r5, [r3, #16] ; 0x10
00000f88 f7ff 1111011111111111 111101 (32-bit)
00000f8a fd10 1111110100010000 111101 bl   9ac

00000f8c 0020 0000000000100000 000000 movs r0, r4
00000f8e 0029 0000000000101001 000000 movs r1, r5
00000f90 302c 0011000000101100 001100 adds r0, #44  ; 0x2c
00000f92 f7ff 1111011111111111 111101 (32-bit)
00000f94 fd0b 1111110100001011 111101 bl   9ac

00000f96 bd70 1011110101110000 101111 pop {r4, r5, r6, lr}
00000f98 0e20 0000111000100000 000011 lsrs  r0, r4, #24
00000f9a 5010 0101000000010000 010100 str unimplemented form
00000f9c 0dc0 0000110111000000 000011 lsrs  r0, r0, #23
00000f9e 5010 0101000000010000 010100 str unimplemented form
00000fa0 0a38 0000101000111000 000010 lsrs  r0, r7, #8
00000fa2 5010 0101000000010000 010100 str unimplemented form
00000fa4 3dda 0011110111011010 001111 subs r5, #218  ; 0xda
00000fa6 0000 0000000000000000 000000 nop     ; movs r0, r0

00000fa8 144d 0001010001001101 000101 asr   r5, r1, #81
00000faa 0000 0000000000000000 000000 nop     ; movs r0, r0

00000fac 0a7c 0000101001111100 000010 lsrs  r4, r7, #9
00000fae 5010 0101000000010000 010100 str unimplemented form
00000fb0 0d3c 0000110100111100 000011 lsrs  r4, r7, #20
00000fb2 5010 0101000000010000 010100 str unimplemented form
00000fb4 2260 0010001001100000 001000 movs r2, #96  ; 0x60
00000fb6 780b 0111100000001011 011110 ldrb r3, [r1, #0]
00000fb8 b510 1011010100010000 101101 push {r4, lr}
00000fba 401a 0100000000011010 010000 ands  r2, r3
00000fbc 2400 0010010000000000 001001 movs r4, #0  ; 0x00
00000fbe 2a20 0010101000100000 001010 cmp r2, #32  ; 0x20
00000fc0 d114 1101000100010100 110100 bne.n fec ; PC + 44

00000fc2 b25b 1011001001011011 101100 sxtb ; a6-168
00000fc4 784a 0111100001001010 011110 ldrb r2, [r1, #1]
00000fc6 42a3 0100001010100011 010000 cmp  r3, r4
00000fc8 da12 1101101000010010 110110 bge.n ff0 ; PC + 40

00000fca 2afe 0010101011111110 001010 cmp r2, #254  ; 0xfe
00000fcc d10e 1101000100001110 110100 bne.n fec ; PC + 32

00000fce 884b 1000100001001011 100010 A5-82 1000 100
00000fd0 42a3 0100001010100011 010000 cmp  r3, r4
00000fd2 d10b 1101000100001011 110100 bne.n fec ; PC + 26

00000fd4 88cb 1000100011001011 100010 A5-82 1000 100
00000fd6 42a3 0100001010100011 010000 cmp  r3, r4
00000fd8 d008 1101000000001000 110100 beq.n fec ; PC + 20

00000fda 4813 0100100000010011 010010 ldr  r0, [pc, #76] ; 0x004c
00000fdc f7ff 1111011111111111 111101 (32-bit)
00000fde fade 1111101011011110 111101 bl   59c

00000fe0 6803 0110100000000011 011010 ldr  r3, [r0, #0] ; 0x0
00000fe2 701c 0111000000011100 011100 ldrb r4, [r3, #0]
00000fe4 3401 0011010000000001 001101 adds r4, #1  ; 0x01
00000fe6 7104 0111000100000100 011100 ldrb r4, [r0, #4]
00000fe8 f7ff 1111011111111111 111101 (32-bit)
00000fea fbc4 1111101111000100 111101 bl   774

00000fec 0020 0000000000100000 000000 movs r0, r4
00000fee bd10 1011110100010000 101111 pop {r4, lr}
00000ff0 2aff 0010101011111111 001010 cmp r2, #255  ; 0xff
00000ff2 d1fb 1101000111111011 110100 bne.n fec ; PC + -6

00000ff4 884b 1000100001001011 100010 A5-82 1000 100
00000ff6 2b00 0010101100000000 001010 cmp r3, #0  ; 0x00
00000ff8 d1f8 1101000111111000 110100 bne.n fec ; PC + -12

00000ffa 88ca 1000100011001010 100010 A5-82 1000 100
00000ffc 001c 0000000000011100 000000 movs r4, r3
00000ffe 2a00 0010101000000000 001010 cmp r2, #0  ; 0x00
00001000 d1f4 1101000111110100 110100 bne.n fec ; PC + -20

00001002 4b0a 0100101100001010 010010 ldr  r3, [pc, #40] ; 0x0028
00001004 1dda 0001110111011010 000111 adds r2, r3, #7   ;0x7
00001006 7fd1 0111111111010001 011111 strb r1, [r2, #31]
00001008 2903 0010100100000011 001010 cmp r1, #3  ; 0x03
0000100a d101 1101000100000001 110100 bne.n 1010 ; PC + 6

0000100c 3901 0011100100000001 001110 subs r1, #1  ; 0x01
0000100e 77d1 0111011111010001 011101 strb r1, [r2, #31]
00001010 3352 0011001101010010 001100 adds r3, #82  ; 0x52
00001012 781a 0111100000011010 011110 ldrb r2, [r3, #0]
00001014 2a03 0010101000000011 001010 cmp r2, #3  ; 0x03
00001016 d101 1101000100000001 110100 bne.n 101c ; PC + 6

00001018 3a01 0011101000000001 001110 subs r2, #1  ; 0x01
0000101a 701a 0111000000011010 011100 ldrb r2, [r3, #0]
0000101c f7ff 1111011111111111 111101 (32-bit)
0000101e ff98 1111111110011000 111101 bl   f50

00001020 2401 0010010000000001 001001 movs r4, #1  ; 0x01
00001022 f7ff 1111011111111111 111101 (32-bit)
00001024 fb8f 1111101110001111 111101 bl   744

00001026 e7e1 1110011111100001 111001 b.n  fec

00001028 0f68 0000111101101000 000011 lsrs  r0, r5, #29
0000102a 5010 0101000000010000 010100 str unimplemented form
0000102c 0dc0 0000110111000000 000011 lsrs  r0, r0, #23
0000102e 5010 0101000000010000 010100 str unimplemented form
00001030 b5f7 1011010111110111 101101 push {r0, r1, r2, r4, r5, r6, r7, lr}
00001032 000d 0000000000001101 000000 movs r5, r1
00001034 2180 0010000110000000 001000 movs r1, #128  ; 0x80
00001036 0010 0000000000010000 000000 movs r0, r2
00001038 0089 0000000010001001 000000 lsls  r1, r1, #2
0000103a 0014 0000000000010100 000000 movs r4, r2
0000103c f7ff 1111011111111111 111101 (32-bit)
0000103e ff82 1111111110000010 111101 bl   f44

00001040 2d00 0010110100000000 001011 cmp r5, #0  ; 0x00
00001042 d120 1101000100100000 110100 bne.n 1086 ; PC + 68

00001044 0020 0000000000100000 000000 movs r0, r4
00001046 30c3 0011000011000011 001100 adds r0, #195  ; 0xc3
00001048 220b 0010001000001011 001000 movs r2, #11  ; 0x0b
0000104a 494f 0100100101001111 010010 ldr  r1, [pc, #316] ; 0x013c
0000104c 30ff 0011000011111111 001100 adds r0, #255  ; 0xff
0000104e f001 1111000000000001 111100 (32-bit)
00001050 faf7 1111101011110111 111100 bl   2640

00001052 23ff 0010001111111111 001000 movs r3, #255  ; 0xff
00001054 2255 0010001001010101 001000 movs r2, #85  ; 0x55
00001056 005b 0000000001011011 000000 lsls  r3, r3, #1
00001058 54e2 0101010011100010 010101 strb r2, [r4, r3]
0000105a 4b4c 0100101101001100 010010 ldr  r3, [pc, #304] ; 0x0130
0000105c 1892 0001100010010010 000110 adds r2, r2, r2
0000105e 54e2 0101010011100010 010101 strb r2, [r4, r3]
00001060 4b4b 0100101101001011 010010 ldr  r3, [pc, #300] ; 0x012c
00001062 791a 0111100100011010 011110 ldrb r2, [r3, #4]
00001064 2a00 0010101000000000 001010 cmp r2, #0  ; 0x00
00001066 d104 1101000100000100 110100 bne.n 1072 ; PC + 12

00001068 4a4a 0100101001001010 010010 ldr  r2, [pc, #296] ; 0x0128
0000106a 6a92 0110101010010010 011010 ldr  r2, [r2, #40] ; 0x28
0000106c 601a 0110000000011010 011000 str  r2, [r3, #0] ; 0x0
0000106e 2201 0010001000000001 001000 movs r2, #1  ; 0x01
00001070 711a 0111000100011010 011100 ldrb r2, [r3, #4]
00001072 0020 0000000000100000 000000 movs r0, r4
00001074 681b 0110100000011011 011010 ldr  r3, [r3, #0] ; 0x0
00001076 30b9 0011000010111001 001100 adds r0, #185  ; 0xb9
00001078 9301 1001001100000001 100100 str r1, [sp, #12]
0000107a 30ff 0011000011111111 001100 adds r0, #255  ; 0xff
0000107c 2204 0010001000000100 001000 movs r2, #4  ; 0x04
0000107e a901 1010100100000001 101010 A6-104
00001080 f001 1111000000000001 111100 (32-bit)
00001082 fade 1111101011011110 111100 bl   2640

00001084 e023 1110000000100011 111000 b.n  10ce

00001086 2d01 0010110100000001 001011 cmp r5, #1  ; 0x01
00001088 d111 1101000100010001 110100 bne.n 10ae ; PC + 38

0000108a 4b41 0100101101000001 010010 ldr  r3, [pc, #260] ; 0x0104
0000108c 791a 0111100100011010 011110 ldrb r2, [r3, #4]
0000108e 2a00 0010101000000000 001010 cmp r2, #0  ; 0x00
00001090 d103 1101000100000011 110100 bne.n 109a ; PC + 10

00001092 4a40 0100101001000000 010010 ldr  r2, [pc, #256] ; 0x0100
00001094 6a92 0110101010010010 011010 ldr  r2, [r2, #40] ; 0x28
00001096 711d 0111000100011101 011100 ldrb r5, [r3, #4]
00001098 601a 0110000000011010 011000 str  r2, [r3, #0] ; 0x0
0000109a 681b 0110100000011011 011010 ldr  r3, [r3, #0] ; 0x0
0000109c 2240 0010001001000000 001000 movs r2, #64  ; 0x40
0000109e 0020 0000000000100000 000000 movs r0, r4
000010a0 493d 0100100100111101 010010 ldr  r1, [pc, #244] ; 0x00f4
000010a2 9301 1001001100000001 100100 str r1, [sp, #12]
000010a4 f001 1111000000000001 111100 (32-bit)
000010a6 facc 1111101011001100 111100 bl   2640

000010a8 0020 0000000000100000 000000 movs r0, r4
000010aa 3027 0011000000100111 001100 adds r0, #39  ; 0x27
000010ac e7e6 1110011111100110 111001 b.n  107c

000010ae 2281 0010001010000001 001000 movs r2, #129  ; 0x81
000010b0 1eab 0001111010101011 000111 subs  r3, r5, #2   ;0x2
000010b2 0052 0000000001010010 000000 lsls  r2, r2, #1
000010b4 4293 0100001010010011 010000 cmp  r3, r2
000010b6 d20c 1101001000001100 110100 bcs.n 10d2 ; PC + 28

000010b8 2b80 0010101110000000 001010 cmp r3, #128  ; 0x80
000010ba d900 1101100100000000 110110 bls.n 10be ; PC + 4

000010bc 3b81 0011101110000001 001110 subs r3, #129  ; 0x81
000010be 2b00 0010101100000000 001010 cmp r3, #0  ; 0x00
000010c0 d105 1101000100000101 110100 bne.n 10ce ; PC + 14

000010c2 3b08 0011101100001000 001110 subs r3, #8  ; 0x08
000010c4 8023 1000000000100011 100000 A5-82 1000 000
000010c6 3307 0011001100000111 001100 adds r3, #7  ; 0x07
000010c8 8063 1000000001100011 100000 A5-82 1000 000
000010ca 80a3 1000000010100011 100000 A5-82 1000 000
000010cc 80e3 1000000011100011 100000 A5-82 1000 000
000010ce 2000 0010000000000000 001000 movs r0, #0  ; 0x00
000010d0 bdfe 1011110111111110 101111 pop {r1, r2, r3, r4, r5, r6, r7, lr}
000010d2 1f6b 0001111101101011 000111 subs  r3, r5, #5   ;0x5
000010d4 3bff 0011101111111111 001110 subs r3, #255  ; 0xff
000010d6 2b1f 0010101100011111 001010 cmp r3, #31  ; 0x1f
000010d8 d839 1101100000111001 110110 bhi.n 114e ; PC + 118

000010da 2b00 0010101100000000 001010 cmp r3, #0  ; 0x00
000010dc d1f7 1101000111110111 110100 bne.n 10ce ; PC + -14

000010de 492e 0100100100101110 010010 ldr  r1, [pc, #184] ; 0x00b8
000010e0 220b 0010001000001011 001000 movs r2, #11  ; 0x0b
000010e2 312b 0011000100101011 001100 adds r1, #43  ; 0x2b
000010e4 0020 0000000000100000 000000 movs r0, r4
000010e6 f001 1111000000000001 111100 (32-bit)
000010e8 faab 1111101010101011 111100 bl   2640

000010ea 2328 0010001100101000 001000 movs r3, #40  ; 0x28
000010ec 72e3 0111001011100011 011100 strb r3, [r4, #11]
000010ee 0023 0000000000100011 000000 movs r3, r4
000010f0 2264 0010001001100100 001000 movs r2, #100  ; 0x64
000010f2 0020 0000000000100000 000000 movs r0, r4
000010f4 4e29 0100111000101001 010011 ldr  r6, [pc, #164] ; 0x00a4
000010f6 4d2a 0100110100101010 010011 ldr  r5, [pc, #168] ; 0x00a8
000010f8 332d 0011001100101101 001100 adds r3, #45  ; 0x2d
000010fa 701a 0111000000011010 011100 ldrb r2, [r3, #0]
000010fc 4929 0100100100101001 010010 ldr  r1, [pc, #164] ; 0x00a4
000010fe 3a59 0011101001011001 001110 subs r2, #89  ; 0x59
00001100 85e6 1000010111100110 100001 A5-82 1000 010
00001102 8625 1000011000100101 100001 A5-82 1000 011
00001104 86e6 1000011011100110 100001 A5-82 1000 011
00001106 8725 1000011100100101 100001 A5-82 1000 011
00001108 3020 0011000000100000 001100 adds r0, #32  ; 0x20
0000110a f001 1111000000000001 111100 (32-bit)
0000110c fa99 1111101010011001 111100 bl   2640

0000110e 0023 0000000000100011 000000 movs r3, r4
00001110 2121 0010000100100001 001000 movs r1, #33  ; 0x21
00001112 332b 0011001100101011 001100 adds r3, #43  ; 0x2b
00001114 7019 0111000000011001 011100 ldrb r1, [r3, #0]
00001116 2302 0010001100000010 001000 movs r3, #2  ; 0x02
00001118 8763 1000011101100011 100001 A5-82 1000 011
0000111a 33ef 0011001111101111 001100 adds r3, #239  ; 0xef
0000111c 63e3 0110001111100011 011000 str  r3, [r4, #60] ; 0x3c imm5
0000111e 0027 0000000000100111 000000 movs r7, r4
00001120 0023 0000000000100011 000000 movs r3, r4
00001122 2264 0010001001100100 001000 movs r2, #100  ; 0x64
00001124 334e 0011001101001110 001100 adds r3, #78  ; 0x4e
00001126 3740 0011011101000000 001101 adds r7, #64  ; 0x40
00001128 737a 0111001101111010 011100 strb r2, [r7, #13]
0000112a 491f 0100100100011111 010010 ldr  r1, [pc, #124] ; 0x007c
0000112c 801e 1000000000011110 100000 A5-82 1000 000
0000112e 805d 1000000001011101 100000 A5-82 1000 000
00001130 811e 1000000100011110 100000 A5-82 1000 000
00001132 815d 1000000101011101 100000 A5-82 1000 000
00001134 3a59 0011101001011001 001110 subs r2, #89  ; 0x59
00001136 0038 0000000000111000 000000 movs r0, r7
00001138 f001 1111000000000001 111100 (32-bit)
0000113a fa82 1111101010000010 111100 bl   2640

0000113c 0023 0000000000100011 000000 movs r3, r4
0000113e 2121 0010000100100001 001000 movs r1, #33  ; 0x21
00001140 2203 0010001000000011 001000 movs r2, #3  ; 0x03
00001142 335a 0011001101011010 001100 adds r3, #90  ; 0x5a
00001144 72f9 0111001011111001 011100 strb r1, [r7, #11]
00001146 801a 1000000000011010 100000 A5-82 1000 000
00001148 233e 0010001100111110 001000 movs r3, #62  ; 0x3e
0000114a 65e3 0110010111100011 011001 str  r3, [r4, #92] ; 0x5c
0000114c e7bf 1110011110111111 111001 b.n  10ce

0000114e 3d25 0011110100100101 001111 subs r5, #37  ; 0x25
00001150 3dff 0011110111111111 001111 subs r5, #255  ; 0xff
00001152 076b 0000011101101011 000001 lsls  r3, r5, #29
00001154 d1bb 1101000110111011 110100 bne.n 11ce ; PC + 122

00001156 08ed 0000100011101101 000010 lsrs  r5, r5, #3
00001158 d110 1101000100010000 110100 bne.n 117c ; PC + 36

0000115a 0022 0000000000100010 000000 movs r2, r4
0000115c 219f 0010000110011111 001000 movs r1, #159  ; 0x9f
0000115e 4813 0100100000010011 010010 ldr  r0, [pc, #76] ; 0x004c
00001160 f001 1111000000000001 111100 (32-bit)
00001162 fa4f 1111101001001111 111100 bl   2602

00001164 0020 0000000000100000 000000 movs r0, r4
00001166 4d12 0100110100010010 010011 ldr  r5, [pc, #72] ; 0x0048
00001168 220c 0010001000001100 001000 movs r2, #12  ; 0x0c
0000116a 0029 0000000000101001 000000 movs r1, r5
0000116c 3062 0011000001100010 001100 adds r0, #98  ; 0x62
0000116e f001 1111000000000001 111100 (32-bit)
00001170 fa67 1111101001100111 111100 bl   2640

00001172 0020 0000000000100000 000000 movs r0, r4
00001174 220c 0010001000001100 001000 movs r2, #12  ; 0x0c
00001176 0029 0000000000101001 000000 movs r1, r5
00001178 30c2 0011000011000010 001100 adds r0, #194  ; 0xc2
0000117a e781 1110011110000001 111001 b.n  1080

0000117c 2d01 0010110100000001 001011 cmp r5, #1  ; 0x01
0000117e d1a6 1101000110100110 110100 bne.n 11ce ; PC + 80

00001180 223e 0010001000111110 001000 movs r2, #62  ; 0x3e
00001182 0020 0000000000100000 000000 movs r0, r4
00001184 490b 0100100100001011 010010 ldr  r1, [pc, #44] ; 0x002c
00001186 e77b 1110011101111011 111001 b.n  1080

00001188 3df8 0011110111111000 001111 subs r5, #248  ; 0xf8
0000118a 0000 0000000000000000 000000 nop     ; movs r0, r0

0000118c 01ff 0000000111111111 000000 lsls  r7, r7, #7
0000118e 0000 0000000000000000 000000 nop     ; movs r0, r0

00001190 0db4 0000110110110100 000011 lsrs  r4, r6, #22
00001192 5010 0101000000010000 010100 str unimplemented form
00001194 4000 0100000000000000 010000 ands  r0, r0
00001196 4005 0100000000000101 010000 ands  r5, r0
00001198 3e6c 0011111001101100 001111 subs r6, #108  ; 0x6c
0000119a 0000 0000000000000000 000000 nop     ; movs r0, r0

0000119c 8299 1000001010011001 100000 strh r1, [r3, #20]
0000119e ffff 1111111111111111 111111 (32-bit)
000011a0 3925 0011100100100101 111111 To be implemented

000011a2 0000 0000000000000000 000000 nop     ; movs r0, r0

000011a4 3dac 0011110110101100 001111 subs r5, #172  ; 0xac
000011a6 0000 0000000000000000 000000 nop     ; movs r0, r0

000011a8 3db8 0011110110111000 001111 subs r5, #184  ; 0xb8
000011aa 0000 0000000000000000 000000 nop     ; movs r0, r0

000011ac 3ffa 0011111111111010 001111 subs r7, #250  ; 0xfa
000011ae 0000 0000000000000000 000000 nop     ; movs r0, r0

000011b0 0eb5 0000111010110101 000011 lsrs  r5, r6, #26
000011b2 5010 0101000000010000 010100 str unimplemented form
000011b4 3ef4 0011111011110100 001111 subs r6, #244  ; 0xf4
000011b6 0000 0000000000000000 000000 nop     ; movs r0, r0

000011b8 b5f0 1011010111110000 101101 push {r4, r5, r6, r7, lr}
000011ba 4b85 0100101110000101 010010 ldr  r3, [pc, #532] ; 0x0214
000011bc 0016 0000000000010110 000000 movs r6, r2
000011be 6812 0110100000010010 011010 ldr  r2, [r2, #0] ; 0x0
000011c0 b085 1011000010000101 101100 sub SP plus immediate
000011c2 9003 1001000000000011 100100 A5-82 1001 000
000011c4 429a 0100001010011010 010000 cmp  r2, r3
000011c6 d002 1101000000000010 110100 beq.n 11ce ; PC + 8

000011c8 2000 0010000000000000 001000 movs r0, #0  ; 0x00
000011ca b005 1011000000000101 101100 add SP plus immediate
000011cc bdf0 1011110111110000 101111 pop {r4, r5, r6, r7, lr}
000011ce 4b81 0100101110000001 010010 ldr  r3, [pc, #516] ; 0x0204
000011d0 6872 0110100001110010 011010 ldr  r2, [r6, #4] ; 0x4
000011d2 429a 0100001010011010 010000 cmp  r2, r3
000011d4 d1f8 1101000111111000 110100 bne.n 11c8 ; PC + -12

000011d6 22fe 0010001011111110 001000 movs r2, #254  ; 0xfe
000011d8 0052 0000000001010010 000000 lsls  r2, r2, #1
000011da 4b7f 0100101101111111 010010 ldr  r3, [pc, #508] ; 0x01fc
000011dc 58b2 0101100010110010 010110 ldr r2, [r6, r2]
000011de 429a 0100001010011010 010000 cmp  r2, r3
000011e0 d1f2 1101000111110010 110100 bne.n 11c8 ; PC + -24

000011e2 68b3 0110100010110011 011010 ldr  r3, [r6, #8] ; 0x8
000011e4 049a 0000010010011010 000001 lsls  r2, r3, #18
000011e6 d5ef 1101010111101111 110101 bpl.n 11c8 ; PC + -30

000011e8 4a7c 0100101001111100 010010 ldr  r2, [pc, #496] ; 0x01f0
000011ea 69f1 0110100111110001 011010 ldr  r1, [r6, #28] ; 0x1c
000011ec 4291 0100001010010001 010000 cmp  r1, r2
000011ee d1eb 1101000111101011 110100 bne.n 11c8 ; PC + -38

000011f0 2201 0010001000000001 001000 movs r2, #1  ; 0x01
000011f2 001d 0000000000011101 000000 movs r5, r3
000011f4 4015 0100000000010101 010000 ands  r5, r2
000011f6 4213 0100001000010011 010000 tst  r3, r2
000011f8 d1e6 1101000111100110 110100 bne.n 11c8 ; PC + -48

000011fa 2380 0010001110000000 001000 movs r3, #128  ; 0x80
000011fc 6932 0110100100110010 011010 ldr  r2, [r6, #16] ; 0x10
000011fe 005b 0000000001011011 000000 lsls  r3, r3, #1
00001200 429a 0100001010011010 010000 cmp  r2, r3
00001202 d1e1 1101000111100001 110100 bne.n 11c8 ; PC + -58

00001204 68f7 0110100011110111 011010 ldr  r7, [r6, #12] ; 0xc
00001206 0038 0000000000111000 000000 movs r0, r7
00001208 f7ff 1111011111111111 111101 (32-bit)
0000120a fc62 1111110001100010 111101 bl   ad0

0000120c 2800 0010100000000000 001010 cmp r0, #0  ; 0x00
0000120e d004 1101000000000100 110100 beq.n 121a ; PC + 12

00001210 0038 0000000000111000 000000 movs r0, r7
00001212 30ff 0011000011111111 001100 adds r0, #255  ; 0xff
00001214 f7ff 1111011111111111 111101 (32-bit)
00001216 fc5c 1111110001011100 111101 bl   ad0

00001218 0005 0000000000000101 000000 movs r5, r0
0000121a 69b3 0110100110110011 011010 ldr  r3, [r6, #24] ; 0x18
0000121c 4c70 0100110001110000 010011 ldr  r4, [pc, #448] ; 0x01c0
0000121e 2b00 0010101100000000 001010 cmp r3, #0  ; 0x00
00001220 d009 1101000000001001 110100 beq.n 1236 ; PC + 22

00001222 22f0 0010001011110000 001000 movs r2, #240  ; 0xf0
00001224 0612 0000011000010010 000001 lsls  r2, r2, #24
00001226 18ba 0001100010111010 000110 adds r2, r7, r2
00001228 9201 1001001000000001 100100 str r1, [sp, #8]
0000122a 2d00 0010110100000000 001011 cmp r5, #0  ; 0x00
0000122c d106 1101000100000110 110100 bne.n 123c ; PC + 16

0000122e 0011 0000000000010001 000000 movs r1, r2
00001230 4a6c 0100101001101100 010010 ldr  r2, [pc, #432] ; 0x01b0
00001232 4291 0100001010010001 010000 cmp  r1, r2
00001234 d907 1101100100000111 110110 bls.n 1246 ; PC + 18

00001236 2000 0010000000000000 001000 movs r0, #0  ; 0x00
00001238 6120 0110000100100000 011000 str  r0, [r4, #16] ; 0x10
0000123a e7c6 1110011111000110 111001 b.n  11ca

0000123c 9a01 1001101000000001 100110 A5-82 1001 101
0000123e 0011 0000000000010001 000000 movs r1, r2
00001240 4a68 0100101001101000 010010 ldr  r2, [pc, #416] ; 0x01a0
00001242 4291 0100001010010001 010000 cmp  r1, r2
00001244 d802 1101100000000010 110110 bhi.n 124c ; PC + 8

00001246 b2ff 1011001011111111 101100 uxtb ; a6-172
00001248 2f00 0010111100000000 001011 cmp r7, #0  ; 0x00
0000124a d1f4 1101000111110100 110100 bne.n 1236 ; PC + -20

0000124c 4a66 0100101001100110 010010 ldr  r2, [pc, #408] ; 0x0198
0000124e 3229 0011001000101001 001100 adds r2, #41  ; 0x29
00001250 7812 0111100000010010 011110 ldrb r2, [r2, #0]
00001252 2a00 0010101000000000 001010 cmp r2, #0  ; 0x00
00001254 d1ef 1101000111101111 110100 bne.n 1236 ; PC + -30

00001256 3201 0011001000000001 001100 adds r2, #1  ; 0x01
00001258 402a 0100000000101010 010000 ands  r2, r5
0000125a 9202 1001001000000010 100100 str r2, [sp, #8]
0000125c 6922 0110100100100010 011010 ldr  r2, [r4, #16] ; 0x10
0000125e 2708 0010011100001000 001001 movs r7, #8  ; 0x08
00001260 4293 0100001010010011 010000 cmp  r3, r2
00001262 d035 1101000000110101 110100 beq.n 12d0 ; PC + 110

00001264 0020 0000000000100000 000000 movs r0, r4
00001266 2150 0010000101010000 001000 movs r1, #80  ; 0x50
00001268 f7ff 1111011111111111 111101 (32-bit)
0000126a fe6c 1111111001101100 111101 bl   f44

0000126c 0023 0000000000100011 000000 movs r3, r4
0000126e 9a02 1001101000000010 100110 A5-82 1001 101
00001270 334c 0011001101001100 001100 adds r3, #76  ; 0x4c
00001272 485e 0100100001011110 010010 ldr  r0, [pc, #376] ; 0x0178
00001274 701a 0111000000011010 011100 ldrb r2, [r3, #0]
00001276 2d00 0010110100000000 001011 cmp r5, #0  ; 0x00
00001278 d101 1101000100000001 110100 bne.n 127e ; PC + 6

0000127a 20a8 0010000010101000 001000 movs r0, #168  ; 0xa8
0000127c 0540 0000010101000000 000001 lsls  r0, r0, #21
0000127e 4269 0100001001101001 010000 rsb  r1, r5
00001280 4169 0100000101101001 010000 adc  r1, r5
00001282 23a0 0010001110100000 001000 movs r3, #160  ; 0xa0
00001284 4d5a 0100110101011010 010011 ldr  r5, [pc, #360] ; 0x0168
00001286 4249 0100001001001001 010000 rsb  r1, r1
00001288 00db 0000000011011011 000000 lsls  r3, r3, #3
0000128a 4029 0100000000101001 010000 ands  r1, r5
0000128c 18c9 0001100011001001 000110 adds r1, r1, r3
0000128e 6061 0110000001100001 011000 str  r1, [r4, #4] ; 0x4
00001290 08c9 0000100011001001 000010 lsrs  r1, r1, #3
00001292 6020 0110000000100000 011000 str  r0, [r4, #0] ; 0x0
00001294 f7ff 1111011111111111 111101 (32-bit)
00001296 fe56 1111111001010110 111101 bl   f44

00001298 9b01 1001101100000001 100110 A5-82 1001 101
0000129a 001a 0000000000011010 000000 movs r2, r3
0000129c 4b51 0100101101010001 010010 ldr  r3, [pc, #324] ; 0x0144
0000129e 429a 0100001010011010 010000 cmp  r2, r3
000012a0 d806 1101100000000110 110110 bhi.n 12b0 ; PC + 16

000012a2 4854 0100100001010100 010010 ldr  r0, [pc, #336] ; 0x0150
000012a4 4b54 0100101101010100 010010 ldr  r3, [pc, #336] ; 0x0150
000012a6 4955 0100100101010101 010010 ldr  r1, [pc, #340] ; 0x0154
000012a8 60a0 0110000010100000 011000 str  r0, [r4, #8] ; 0x8
000012aa 60e3 0110000011100011 011000 str  r3, [r4, #12] ; 0xc
000012ac f7ff 1111011111111111 111101 (32-bit)
000012ae fe4a 1111111001001010 111101 bl   f44

000012b0 69b3 0110100110110011 011010 ldr  r3, [r6, #24] ; 0x18
000012b2 6862 0110100001100010 011010 ldr  r2, [r4, #4] ; 0x4
000012b4 4293 0100001010010011 010000 cmp  r3, r2
000012b6 d900 1101100100000000 110110 bls.n 12ba ; PC + 4

000012b8 e786 1110011110000110 111001 b.n  11c8

000012ba 6123 0110000100100011 011000 str  r3, [r4, #16] ; 0x10
000012bc 2301 0010001100000001 001000 movs r3, #1  ; 0x01
000012be 2700 0010011100000000 001001 movs r7, #0  ; 0x00
000012c0 425b 0100001001011011 010000 rsb  r3, r3
000012c2 9a01 1001101000000001 100110 A5-82 1001 101
000012c4 61e3 0110000111100011 011000 str  r3, [r4, #28] ; 0x1c
000012c6 4b47 0100101101000111 010010 ldr  r3, [pc, #284] ; 0x011c
000012c8 61a7 0110000110100111 011000 str  r7, [r4, #24] ; 0x18
000012ca 4293 0100001010010011 010000 cmp  r3, r2
000012cc 417f 0100000101111111 010000 adc  r7, r7
000012ce 3708 0011011100001000 001101 adds r7, #8  ; 0x08
000012d0 0023 0000000000100011 000000 movs r3, r4
000012d2 334c 0011001101001100 001100 adds r3, #76  ; 0x4c
000012d4 781b 0111100000011011 011110 ldrb r3, [r3, #0]
000012d6 9a02 1001101000000010 100110 A5-82 1001 101
000012d8 4293 0100001010010011 010000 cmp  r3, r2
000012da d1ac 1101000110101100 110100 bne.n 1336 ; PC + 92

000012dc 6973 0110100101110011 011010 ldr  r3, [r6, #20] ; 0x14
000012de 69b2 0110100110110010 011010 ldr  r2, [r6, #24] ; 0x18
000012e0 4293 0100001010010011 010000 cmp  r3, r2
000012e2 d2a8 1101001010101000 110100 bcs.n 1336 ; PC + 84

000012e4 0020 0000000000100000 000000 movs r0, r4
000012e6 2128 0010000100101000 001000 movs r1, #40  ; 0x28
000012e8 3024 0011000000100100 001100 adds r0, #36  ; 0x24
000012ea f7ff 1111011111111111 111101 (32-bit)
000012ec fe2b 1111111000101011 111101 bl   f44

000012ee 0022 0000000000100010 000000 movs r2, r4
000012f0 9b03 1001101100000011 100110 A5-82 1001 101
000012f2 3248 0011001001001000 001100 adds r2, #72  ; 0x48
000012f4 6971 0110100101110001 011010 ldr  r1, [r6, #20] ; 0x14
000012f6 6263 0110001001100011 011000 str  r3, [r4, #36] ; 0x24 imm5
000012f8 6163 0110000101100011 011000 str  r3, [r4, #20] ; 0x14
000012fa 68f3 0110100011110011 011010 ldr  r3, [r6, #12] ; 0xc
000012fc 7017 0111000000010111 011100 ldrb r7, [r2, #0]
000012fe 4a40 0100101001000000 010010 ldr  r2, [pc, #256] ; 0x0100
00001300 2001 0010000000000001 001000 movs r0, #1  ; 0x01
00001302 4694 0100011010010100 010001 mov  r2, r12
00001304 62e2 0110001011100010 011000 str  r2, [r4, #44] ; 0x2c imm5
00001306 2280 0010001010000000 001000 movs r2, #128  ; 0x80
00001308 0052 0000000001010010 000000 lsls  r2, r2, #1
0000130a 6422 0110010000100010 011001 str  r2, [r4, #64] ; 0x40
0000130c 0022 0000000000100010 000000 movs r2, r4
0000130e 324a 0011001001001010 001100 adds r2, #74  ; 0x4a
00001310 7010 0111000000010000 011100 ldrb r0, [r2, #0]
00001312 221f 0010001000011111 001000 movs r2, #31  ; 0x1f
00001314 400a 0100000000001010 010000 ands  r2, r1
00001316 4090 0100000010010000 010000 lsl  r0, r2
00001318 6825 0110100000100101 011010 ldr  r5, [r4, #0] ; 0x0
0000131a 094a 0000100101001010 000010 lsrs  r2, r1, #5
0000131c 0092 0000000010010010 000000 lsls  r2, r2, #2
0000131e 6221 0110001000100001 011000 str  r1, [r4, #32] ; 0x20 imm5
00001320 6323 0110001100100011 011000 str  r3, [r4, #48] ; 0x30 imm5
00001322 18aa 0001100010101010 000110 adds r2, r5, r2
00001324 6815 0110100000010101 011010 ldr  r5, [r2, #0] ; 0x0
00001326 3620 0011011000100000 001101 adds r6, #32  ; 0x20
00001328 63e6 0110001111100110 011000 str  r6, [r4, #60] ; 0x3c imm5
0000132a 9001 1001000000000001 100100 A5-82 1001 000
0000132c 4205 0100001000000101 010000 tst  r5, r0
0000132e d000 1101000000000000 110100 beq.n 1332 ; PC + 4

00001330 e74a 1110011101001010 111001 b.n  11c8

00001332 2580 0010010110000000 001001 movs r5, #128  ; 0x80
00001334 69e6 0110100111100110 011010 ldr  r6, [r4, #28] ; 0x1c
00001336 05ad 0000010110101101 000001 lsls  r5, r5, #22
00001338 42b3 0100001010110011 010000 cmp  r3, r6
0000133a d20b 1101001000001011 110100 bcs.n 1354 ; PC + 26

0000133c 42ab 0100001010101011 010000 cmp  r3, r5
0000133e 41bf 0100000110111111 010000 sbc  r7, r7
00001340 427f 0100001001111111 010000 rsb  r7, r7
00001342 0038 0000000000111000 000000 movs r0, r7
00001344 42ae 0100001010101110 010000 cmp  r6, r5
00001346 41bf 0100000110111111 010000 sbc  r7, r7
00001348 427f 0100001001111111 010000 rsb  r7, r7
0000134a 9702 1001011100000010 100101 A5-82 1001 011
0000134c 0007 0000000000000111 000000 movs r7, r0
0000134e 9802 1001100000000010 100110 A5-82 1001 100
00001350 4287 0100001010000111 010000 cmp  r7, r0
00001352 d003 1101000000000011 110100 beq.n 135c ; PC + 10

00001354 42ae 0100001010101110 010000 cmp  r6, r5
00001356 d202 1101001000000010 110100 bcs.n 135e ; PC + 8

00001358 42ab 0100001010101011 010000 cmp  r3, r5
0000135a d300 1101001100000000 110100 bcc.n 135e ; PC + 4

0000135c 61e3 0110000111100011 011000 str  r3, [r4, #28] ; 0x1c
0000135e 0025 0000000000100101 000000 movs r5, r4
00001360 354c 0011010101001100 001101 adds r5, #76  ; 0x4c
00001362 782d 0111100000101101 011110 ldrb r5, [r5, #0]
00001364 2d00 0010110100000000 001011 cmp r5, #0  ; 0x00
00001366 d11a 1101000100011010 110100 bne.n 139e ; PC + 56

00001368 020e 0000001000001110 000000 lsls  r6, r1, #8
0000136a 05c9 0000010111001001 000001 lsls  r1, r1, #23
0000136c 0ec9 0000111011001001 000011 lsrs  r1, r1, #27
0000136e 3501 0011010100000001 001101 adds r5, #1  ; 0x01
00001370 408d 0100000010001101 010000 lsl  r5, r1
00001372 0c71 0000110001110001 000011 lsrs  r1, r6, #17
00001374 68a6 0110100010100110 011010 ldr  r6, [r4, #8] ; 0x8
00001376 0089 0000000010001001 000000 lsls  r1, r1, #2
00001378 1871 0001100001110001 000110 adds r1, r6, r1
0000137a 680e 0110100000001110 011010 ldr  r6, [r1, #0] ; 0x0
0000137c 422e 0100001000101110 010000 tst  r6, r5
0000137e d10e 1101000100001110 110100 bne.n 139e ; PC + 32

00001380 0b1b 0000101100011011 000010 lsrs  r3, r3, #12
00001382 031b 0000001100011011 000000 lsls  r3, r3, #12
00001384 6363 0110001101100011 011000 str  r3, [r4, #52] ; 0x34 imm5
00001386 2380 0010001110000000 001000 movs r3, #128  ; 0x80
00001388 015b 0000000101011011 000000 lsls  r3, r3, #5
0000138a 63a3 0110001110100011 011000 str  r3, [r4, #56] ; 0x38 imm5
0000138c 680b 0110100000001011 011010 ldr  r3, [r1, #0] ; 0x0
0000138e 431d 0100001100011101 010000 orr  r5, r3
00001390 600d 0110000000001101 011000 str  r5, [r1, #0] ; 0x0
00001392 0021 0000000000100001 000000 movs r1, r4
00001394 2302 0010001100000010 001000 movs r3, #2  ; 0x02
00001396 3148 0011000101001000 001100 adds r1, #72  ; 0x48
00001398 780d 0111100000001101 011110 ldrb r5, [r1, #0]
0000139a 432b 0100001100101011 010000 orr  r3, r5
0000139c 700b 0111000000001011 011100 ldrb r3, [r1, #0]
0000139e 69a3 0110100110100011 011010 ldr  r3, [r4, #24] ; 0x18
000013a0 9801 1001100000000001 100110 A5-82 1001 100
000013a2 3301 0011001100000001 001100 adds r3, #1  ; 0x01
000013a4 61a3 0110000110100011 011000 str  r3, [r4, #24] ; 0x18
000013a6 6813 0110100000010011 011010 ldr  r3, [r2, #0] ; 0x0
000013a8 0021 0000000000100001 000000 movs r1, r4
000013aa 4318 0100001100011000 010000 orr  r0, r3
000013ac 4663 0100011001100011 010001 mov  r12, r3
000013ae 4d0e 0100110100001110 010011 ldr  r5, [pc, #56] ; 0x0038
000013b0 6010 0110000000010000 011000 str  r0, [r2, #0] ; 0x0
000013b2 3528 0011010100101000 001101 adds r5, #40  ; 0x28
000013b4 62e3 0110001011100011 011000 str  r3, [r4, #44] ; 0x2c imm5
000013b6 2228 0010001000101000 001000 movs r2, #40  ; 0x28
000013b8 3124 0011000100100100 001100 adds r1, #36  ; 0x24
000013ba 480b 0100100000001011 010010 ldr  r0, [pc, #44] ; 0x002c
000013bc 782b 0111100000101011 011110 ldrb r3, [r5, #0]
000013be f001 1111000000000001 111100 (32-bit)
000013c0 f93f 1111100100111111 111100 bl   2640

000013c2 2001 0010000000000001 001000 movs r0, #1  ; 0x01
000013c4 7028 0111000000101000 011100 ldrb r0, [r5, #0]
000013c6 bf40 1011111101000000 101111 sev ; a6-156
000013c8 344b 0011010001001011 001101 adds r4, #75  ; 0x4b
000013ca 7020 0111000000100000 011100 ldrb r0, [r4, #0]
000013cc e6fd 1110011011111101 111001 b.n  11ca

000013ce 46c0 0100011011000000 010001 nop  ; (mov  r8, r8)

000013d0 4655 0100011001010101 010001 mov  r10, r5
000013d2 0a32 0000101000110010 000010 lsrs  r2, r6, #8
000013d4 5157 0101000101010111 010100 str unimplemented form
000013d6 9e5d 1001111001011101 100111 A5-82 1001 111
000013d8 6f30 0110111100110000 011011 ldr  r0, [r6, #112] ; 0x70
000013da 0ab1 0000101010110001 000010 lsrs  r1, r6, #10
000013dc ff56 1111111101010110 111111 (32-bit)
000013de e48b 1110010010001011 111111 To be implemented

000013e0 0d3c 0000110100111100 000011 lsrs  r4, r7, #20
000013e2 5010 0101000000010000 010100 str unimplemented form
000013e4 ff01 1111111100000001 111111 (32-bit)
000013e6 0fff 0000111111111111 111111 To be implemented

000013e8 0fc0 0000111111000000 000011 lsrs  r0, r0, #31
000013ea 5010 0101000000010000 010100 str unimplemented form
000013ec 0ec4 0000111011000100 000011 lsrs  r4, r0, #27
000013ee 5010 0101000000010000 010100 str unimplemented form
000013f0 dce0 1101110011100000 110111 bgt.n 13b4 ; PC + -60

000013f2 0001 0000000000000001 000000 movs r1, r0
000013f4 3c3c 0011110000111100 001111 subs r4, #60  ; 0x3c
000013f6 1500 0001010100000000 000101 asr   r0, r0, #84
000013f8 1e1e 0001111000011110 000111 subs  r6, r3, #0   ;0x0
000013fa 0000 0000000000000000 000000 nop     ; movs r0, r0

000013fc 03c3 0000001111000011 000000 lsls  r3, r0, #15
000013fe 0000 0000000000000000 000000 nop     ; movs r0, r0

00001400 1631 0001011000110001 000101 asr   r1, r6, #88
00001402 0000 0000000000000000 000000 nop     ; movs r0, r0

00001404 b570 1011010101110000 101101 push {r4, r5, r6, lr}
00001406 000d 0000000000001101 000000 movs r5, r1
00001408 f7ff 1111011111111111 111101 (32-bit)
0000140a f8c8 1111100011001000 111101 bl   59c

0000140c 0004 0000000000000100 000000 movs r4, r0
0000140e 0029 0000000000101001 000000 movs r1, r5
00001410 6800 0110100000000000 011010 ldr  r0, [r0, #0] ; 0x0
00001412 f7ff 1111011111111111 111101 (32-bit)
00001414 fd97 1111110110010111 111101 bl   f44

00001416 6820 0110100000100000 011010 ldr  r0, [r4, #0] ; 0x0
00001418 7125 0111000100100101 011100 ldrb r5, [r4, #4]
0000141a bd70 1011110101110000 101111 pop {r4, r5, r6, lr}
0000141c 2200 0010001000000000 001000 movs r2, #0  ; 0x00
0000141e b510 1011010100010000 101101 push {r4, lr}
00001420 4c07 0100110000000111 010011 ldr  r4, [pc, #28] ; 0x001c
00001422 210d 0010000100001101 001000 movs r1, #13  ; 0x0d
00001424 1da3 0001110110100011 000111 adds r3, r4, #6   ;0x6
00001426 4807 0100100000000111 010010 ldr  r0, [pc, #28] ; 0x001c
00001428 77da 0111011111011010 011101 strb r2, [r3, #31]
0000142a f7ff 1111011111111111 111101 (32-bit)
0000142c ffeb 1111111111101011 111101 bl   1404

0000142e 220d 0010001000001101 001000 movs r2, #13  ; 0x0d
00001430 0021 0000000000100001 000000 movs r1, r4
00001432 f001 1111000000000001 111100 (32-bit)
00001434 f905 1111100100000101 111100 bl   2640

00001436 4804 0100100000000100 010010 ldr  r0, [pc, #16] ; 0x0010
00001438 f7ff 1111011111111111 111101 (32-bit)
0000143a f94c 1111100101001100 111101 bl   6d4

0000143c bd10 1011110100010000 101111 pop {r4, lr}
0000143e 46c0 0100011011000000 010001 nop  ; (mov  r8, r8)

00001440 0a7c 0000101001111100 000010 lsrs  r4, r7, #9
00001442 5010 0101000000010000 010100 str unimplemented form
00001444 0dc0 0000110111000000 000011 lsrs  r0, r0, #23
00001446 5010 0101000000010000 010100 str unimplemented form
00001448 0705 0000011100000101 000001 lsls  r5, r0, #28
0000144a 0000 0000000000000000 000000 nop     ; movs r0, r0

0000144c b510 1011010100010000 101101 push {r4, lr}
0000144e 1dc3 0001110111000011 000111 adds r3, r0, #7   ;0x7
00001450 7fdb 0111111111011011 011111 strb r3, [r3, #31]
00001452 2b00 0010101100000000 001010 cmp r3, #0  ; 0x00
00001454 d109 1101000100001001 110100 bne.n 146a ; PC + 22

00001456 4b05 0100101100000101 010010 ldr  r3, [pc, #20] ; 0x0014
00001458 4298 0100001010011000 010000 cmp  r0, r3
0000145a d106 1101000100000110 110100 bne.n 146a ; PC + 16

0000145c 4b04 0100101100000100 010010 ldr  r3, [pc, #16] ; 0x0010
0000145e 3306 0011001100000110 001100 adds r3, #6  ; 0x06
00001460 7fdb 0111111111011011 011111 strb r3, [r3, #31]
00001462 2b00 0010101100000000 001010 cmp r3, #0  ; 0x00
00001464 d001 1101000000000001 110100 beq.n 146a ; PC + 6

00001466 f7ff 1111011111111111 111101 (32-bit)
00001468 ffd9 1111111111011001 111101 bl   141c

0000146a bd10 1011110100010000 101111 pop {r4, lr}
0000146c 0dc0 0000110111000000 000011 lsrs  r0, r0, #23
0000146e 5010 0101000000010000 010100 str unimplemented form
00001470 0a7c 0000101001111100 000010 lsrs  r4, r7, #9
00001472 5010 0101000000010000 010100 str unimplemented form
00001474 b510 1011010100010000 101101 push {r4, lr}
00001476 4a0c 0100101000001100 010010 ldr  r2, [pc, #48] ; 0x0030
00001478 1d53 0001110101010011 000111 adds r3, r2, #5   ;0x5
0000147a 7fd9 0111111111011001 011111 strb r1, [r3, #31]
0000147c 2901 0010100100000001 001010 cmp r1, #1  ; 0x01
0000147e d107 1101000100000111 110100 bne.n 1490 ; PC + 18

00001480 2380 0010001110000000 001000 movs r3, #128  ; 0x80
00001482 005b 0000000001011011 000000 lsls  r3, r3, #1
00001484 4809 0100100000001001 010010 ldr  r0, [pc, #36] ; 0x0024
00001486 8493 1000010010010011 100001 A5-82 1000 010
00001488 3101 0011000100000001 001100 adds r1, #1  ; 0x01
0000148a f7ff 1111011111111111 111101 (32-bit)
0000148c f9a7 1111100110100111 111101 bl   7dc

0000148e bd10 1011110100010000 101111 pop {r4, lr}
00001490 2902 0010100100000010 001010 cmp r1, #2  ; 0x02
00001492 d105 1101000100000101 110100 bne.n 14a0 ; PC + 14

00001494 2200 0010001000000000 001000 movs r2, #0  ; 0x00
00001496 4805 0100100000000101 010010 ldr  r0, [pc, #20] ; 0x0014
00001498 77da 0111011111011010 011101 strb r2, [r3, #31]
0000149a 302c 0011000000101100 001100 adds r0, #44  ; 0x2c
0000149c f7ff 1111011111111111 111101 (32-bit)
0000149e f99e 1111100110011110 111101 bl   7dc

000014a0 f7ff 1111011111111111 111101 (32-bit)
000014a2 ffbc 1111111110111100 111101 bl   141c

000014a4 e7f3 1110011111110011 111001 b.n  148e

000014a6 46c0 0100011011000000 010001 nop  ; (mov  r8, r8)

000014a8 0a7c 0000101001111100 000010 lsrs  r4, r7, #9
000014aa 5010 0101000000010000 010100 str unimplemented form
000014ac 0dc0 0000110111000000 000011 lsrs  r0, r0, #23
000014ae 5010 0101000000010000 010100 str unimplemented form
000014b0 2300 0010001100000000 001000 movs r3, #0  ; 0x00
000014b2 b570 1011010101110000 101101 push {r4, r5, r6, lr}
000014b4 4c11 0100110000010001 010011 ldr  r4, [pc, #68] ; 0x0044
000014b6 1d65 0001110101100101 000111 adds r5, r4, #5   ;0x5
000014b8 77eb 0111011111101011 011101 strb r3, [r5, #31]
000014ba 6223 0110001000100011 011000 str  r3, [r4, #32] ; 0x20 imm5
000014bc 7b05 0111101100000101 011110 strb r5, [r0, #12]
000014be 3301 0011001100000001 001100 adds r3, #1  ; 0x01
000014c0 2d7f 0010110101111111 001011 cmp r5, #127  ; 0x7f
000014c2 d800 1101100000000000 110110 bhi.n 14c6 ; PC + 4

000014c4 3301 0011001100000001 001100 adds r3, #1  ; 0x01
000014c6 429a 0100001010011010 010000 cmp  r2, r3
000014c8 d007 1101000000000111 110100 beq.n 14da ; PC + 18

000014ca 1d62 0001110101100010 000111 adds r2, r4, #5   ;0x5
000014cc 77d3 0111011111010011 011101 strb r3, [r2, #31]
000014ce 2302 0010001100000010 001000 movs r3, #2  ; 0x02
000014d0 7323 0111001100100011 011100 strb r3, [r4, #12]
000014d2 f7ff 1111011111111111 111101 (32-bit)
000014d4 ffcf 1111111111001111 111101 bl   1474

000014d6 2000 0010000000000000 001000 movs r0, #0  ; 0x00
000014d8 e00f 1110000000001111 111000 b.n  14fa

000014da 6883 0110100010000011 011010 ldr  r3, [r0, #8] ; 0x8
000014dc 428b 0100001010001011 010000 cmp  r3, r1
000014de d008 1101000000001000 110100 beq.n 14f2 ; PC + 20

000014e0 1d60 0001110101100000 000111 adds r0, r4, #5   ;0x5
000014e2 77c2 0111011111000010 011101 strb r2, [r0, #31]
000014e4 428b 0100001010001011 010000 cmp  r3, r1
000014e6 d201 1101001000000001 110100 bcs.n 14ec ; PC + 6

000014e8 2202 0010001000000010 001000 movs r2, #2  ; 0x02
000014ea 7322 0111001100100010 011100 strb r2, [r4, #12]
000014ec 428b 0100001010001011 010000 cmp  r3, r1
000014ee d900 1101100100000000 110110 bls.n 14f2 ; PC + 4

000014f0 000b 0000000000001011 000000 movs r3, r1
000014f2 2001 0010000000000001 001000 movs r0, #1  ; 0x01
000014f4 6223 0110001000100011 011000 str  r3, [r4, #32] ; 0x20 imm5
000014f6 2b00 0010101100000000 001010 cmp r3, #0  ; 0x00
000014f8 d0eb 1101000011101011 110100 beq.n 14d2 ; PC + -38

000014fa bd70 1011110101110000 101111 pop {r4, r5, r6, lr}
000014fc 0a7c 0000101001111100 000010 lsrs  r4, r7, #9
000014fe 5010 0101000000010000 010100 str unimplemented form
00001500 b5f8 1011010111111000 101101 push {r3, r4, r5, r6, r7, lr}
00001502 7c82 0111110010000010 011111 ldrb r2, [r0, #18]
00001504 7c43 0111110001000011 011111 ldrb r3, [r0, #17]
00001506 0212 0000001000010010 000000 lsls  r2, r2, #8
00001508 431a 0100001100011010 010000 orr  r2, r3
0000150a 7cc3 0111110011000011 011111 ldrb r3, [r0, #19]
0000150c 000f 0000000000001111 000000 movs r7, r1
0000150e 041b 0000010000011011 000001 lsls  r3, r3, #16
00001510 431a 0100001100011010 010000 orr  r2, r3
00001512 7d03 0111110100000011 011111 ldrb r3, [r0, #20]
00001514 7dc1 0111110111000001 011111 ldrb r1, [r0, #23]
00001516 061b 0000011000011011 000001 lsls  r3, r3, #24
00001518 4313 0100001100010011 010000 orr  r3, r2
0000151a 7d82 0111110110000010 011111 ldrb r2, [r0, #22]
0000151c 0209 0000001000001001 000000 lsls  r1, r1, #8
0000151e 4311 0100001100010001 010000 orr  r1, r2
00001520 4e20 0100111000100000 010011 ldr  r6, [pc, #128] ; 0x0080
00001522 ba49 1011101001001001 101110 revsh r1, r1
00001524 0032 0000000000110010 000000 movs r2, r6
00001526 ba1b 1011101000011011 101110 rev r3, r3
00001528 b289 1011001010001001 101100 uxth ; a6-173
0000152a 2f01 0010111100000001 001011 cmp r7, #1  ; 0x01
0000152c d000 1101000000000000 110100 beq.n 1530 ; PC + 4

0000152e 322c 0011001000101100 001100 adds r2, #44  ; 0x2c
00001530 4c1d 0100110000011101 010011 ldr  r4, [pc, #116] ; 0x0074
00001532 0249 0000001001001001 000000 lsls  r1, r1, #9
00001534 6262 0110001001100010 011000 str  r2, [r4, #36] ; 0x24 imm5
00001536 003a 0000000000111010 000000 movs r2, r7
00001538 62e3 0110001011100011 011000 str  r3, [r4, #44] ; 0x2c imm5
0000153a f7ff 1111011111111111 111101 (32-bit)
0000153c ffb9 1111111110111001 111101 bl   14b0

0000153e 2800 0010100000000000 001010 cmp r0, #0  ; 0x00
00001540 d029 1101000000101001 110100 beq.n 1596 ; PC + 86

00001542 4b1a 0100101100011010 010010 ldr  r3, [pc, #104] ; 0x0068
00001544 6a1d 0110101000011101 011010 ldr  r5, [r3, #32] ; 0x20
00001546 2d3f 0010110100111111 001011 cmp r5, #63  ; 0x3f
00001548 d928 1101100100101000 110110 bls.n 159c ; PC + 84

0000154a 4a19 0100101000011001 010010 ldr  r2, [pc, #100] ; 0x0064
0000154c 0020 0000000000100000 000000 movs r0, r4
0000154e 6813 0110100000010011 011010 ldr  r3, [r2, #0] ; 0x0
00001550 4918 0100100100011000 010010 ldr  r1, [pc, #96] ; 0x0060
00001552 3301 0011001100000001 001100 adds r3, #1  ; 0x01
00001554 6013 0110000000010011 011000 str  r3, [r2, #0] ; 0x0
00001556 233f 0010001100111111 001000 movs r3, #63  ; 0x3f
00001558 439d 0100001110011101 010000 bic  r5, r3

0000155a 4b17 0100101100010111 010010 ldr  r3, [pc, #92] ; 0x005c
0000155c 61a5 0110000110100101 011000 str  r5, [r4, #24] ; 0x18
0000155e 62a3 0110001010100011 011000 str  r3, [r4, #40] ; 0x28 imm5
00001560 4b16 0100101100010110 010010 ldr  r3, [pc, #88] ; 0x0058
00001562 4a17 0100101000010111 010010 ldr  r2, [pc, #92] ; 0x005c
00001564 6223 0110001000100011 011000 str  r3, [r4, #32] ; 0x20 imm5
00001566 2380 0010001110000000 001000 movs r3, #128  ; 0x80
00001568 009b 0000000010011011 000000 lsls  r3, r3, #2
0000156a 61e3 0110000111100011 011000 str  r3, [r4, #28] ; 0x1c
0000156c 2300 0010001100000000 001000 movs r3, #0  ; 0x00
0000156e 6163 0110000101100011 011000 str  r3, [r4, #20] ; 0x14
00001570 f7fe 1111011111111110 111101 (32-bit)
00001572 ff7e 1111111101111110 111101 bl   470

00001574 353f 0011010100111111 001101 adds r5, #63  ; 0x3f
00001576 68a3 0110100010100011 011010 ldr  r3, [r4, #8] ; 0x8
00001578 09ad 0000100110101101 000010 lsrs  r5, r5, #6
0000157a 195b 0001100101011011 000110 adds r3, r3, r5
0000157c 60a3 0110000010100011 011000 str  r3, [r4, #8] ; 0x8
0000157e 68e3 0110100011100011 011010 ldr  r3, [r4, #12] ; 0xc
00001580 195d 0001100101011101 000110 adds r5, r3, r5
00001582 60e5 0110000011100101 011000 str  r5, [r4, #12] ; 0xc
00001584 2f01 0010111100000001 001011 cmp r7, #1  ; 0x01
00001586 d107 1101000100000111 110100 bne.n 1598 ; PC + 18

00001588 2300 0010001100000000 001000 movs r3, #0  ; 0x00
0000158a 0030 0000000000110000 000000 movs r0, r6
0000158c 60b4 0110000010110100 011000 str  r4, [r6, #8] ; 0x8
0000158e 60f3 0110000011110011 011000 str  r3, [r6, #12] ; 0xc
00001590 74a7 0111010010100111 011101 ldrb r7, [r4, #18]
00001592 f7ff 1111011111111111 111101 (32-bit)
00001594 f86d 1111100001101101 111101 bl   670

00001596 bdf8 1011110111111000 101111 pop {r3, r4, r5, r6, r7, lr}
00001598 63b4 0110001110110100 011000 str  r4, [r6, #56] ; 0x38 imm5
0000159a e7fc 1110011111111100 111001 b.n  1596

0000159c f7ff 1111011111111111 111101 (32-bit)
0000159e ff6a 1111111101101010 111101 bl   1474

000015a0 e7f9 1110011111111001 111001 b.n  1596

000015a2 46c0 0100011011000000 010001 nop  ; (mov  r8, r8)

000015a4 0dc0 0000110111000000 000011 lsrs  r0, r0, #23
000015a6 5010 0101000000010000 010100 str unimplemented form
000015a8 0a4c 0000101001001100 000010 lsrs  r4, r1, #9
000015aa 5010 0101000000010000 010100 str unimplemented form
000015ac 0a7c 0000101001111100 000010 lsrs  r4, r7, #9
000015ae 5010 0101000000010000 010100 str unimplemented form
000015b0 0a20 0000101000100000 000010 lsrs  r0, r4, #8
000015b2 5010 0101000000010000 010100 str unimplemented form
000015b4 3e17 0011111000010111 001111 subs r6, #23  ; 0x17
000015b6 0000 0000000000000000 000000 nop     ; movs r0, r0

000015b8 3de4 0011110111100100 001111 subs r5, #228  ; 0xe4
000015ba 0000 0000000000000000 000000 nop     ; movs r0, r0

000015bc 0b1c 0000101100011100 000010 lsrs  r4, r3, #12
000015be 5010 0101000000010000 010100 str unimplemented form
000015c0 1475 0001010001110101 000101 asr   r5, r6, #81
000015c2 0000 0000000000000000 000000 nop     ; movs r0, r0

000015c4 b570 1011010101110000 101101 push {r4, r5, r6, lr}
000015c6 0005 0000000000000101 000000 movs r5, r0
000015c8 480c 0100100000001100 010010 ldr  r0, [pc, #48] ; 0x0030
000015ca f7fe 1111011111111110 111101 (32-bit)
000015cc ffe7 1111111111100111 111101 bl   59c

000015ce 68a9 0110100010101001 011010 ldr  r1, [r5, #8] ; 0x8
000015d0 7903 0111100100000011 011110 ldrb r3, [r0, #4]
000015d2 0004 0000000000000100 000000 movs r4, r0
000015d4 4299 0100001010011001 010000 cmp  r1, r3
000015d6 d900 1101100100000000 110110 bls.n 15da ; PC + 4

000015d8 0019 0000000000011001 000000 movs r1, r3
000015da 2201 0010001000000001 001000 movs r2, #1  ; 0x01
000015dc 0028 0000000000101000 000000 movs r0, r5
000015de f7ff 1111011111111111 111101 (32-bit)
000015e0 ff67 1111111101100111 111101 bl   14b0

000015e2 2800 0010100000000000 001010 cmp r0, #0  ; 0x00
000015e4 d009 1101000000001001 110100 beq.n 15fa ; PC + 22

000015e6 4a06 0100101000000110 010010 ldr  r2, [pc, #24] ; 0x0018
000015e8 4806 0100100000000110 010010 ldr  r0, [pc, #24] ; 0x0018
000015ea 6a13 0110101000010011 011010 ldr  r3, [r2, #32] ; 0x20
000015ec 7123 0111000100100011 011100 ldrb r3, [r4, #4]
000015ee 6891 0110100010010001 011010 ldr  r1, [r2, #8] ; 0x8
000015f0 b2db 1011001011011011 101100 uxtb ; a6-172
000015f2 1acb 0001101011001011 000110 sub reg A6-165
000015f4 6093 0110000010010011 011000 str  r3, [r2, #8] ; 0x8
000015f6 f7ff 1111011111111111 111101 (32-bit)
000015f8 f86d 1111100001101101 111101 bl   6d4

000015fa bd70 1011110101110000 101111 pop {r4, r5, r6, lr}
000015fc 0dc0 0000110111000000 000011 lsrs  r0, r0, #23
000015fe 5010 0101000000010000 010100 str unimplemented form
00001600 0a7c 0000101001111100 000010 lsrs  r4, r7, #9
00001602 5010 0101000000010000 010100 str unimplemented form
00001604 1475 0001010001110101 000101 asr   r5, r6, #81
00001606 0000 0000000000000000 000000 nop     ; movs r0, r0

00001608 2100 0010000100000000 001000 movs r1, #0  ; 0x00
0000160a 4b08 0100101100001000 010010 ldr  r3, [pc, #32] ; 0x0020
0000160c b510 1011010100010000 101101 push {r4, lr}
0000160e 1d5a 0001110101011010 000111 adds r2, r3, #5   ;0x5
00001610 77d1 0111011111010001 011101 strb r1, [r2, #31]
00001612 6882 0110100010000010 011010 ldr  r2, [r0, #8] ; 0x8
00001614 428a 0100001010001010 010000 cmp  r2, r1
00001616 d006 1101000000000110 110100 beq.n 1626 ; PC + 16

00001618 7b01 0111101100000001 011110 strb r1, [r0, #12]
0000161a 2201 0010001000000001 001000 movs r2, #1  ; 0x01
0000161c 297f 0010100101111111 001010 cmp r1, #127  ; 0x7f
0000161e d800 1101100000000000 110110 bhi.n 1622 ; PC + 4

00001620 1892 0001100010010010 000110 adds r2, r2, r2
00001622 3305 0011001100000101 001100 adds r3, #5  ; 0x05
00001624 77da 0111011111011010 011101 strb r2, [r3, #31]
00001626 f7ff 1111011111111111 111101 (32-bit)
00001628 ff25 1111111100100101 111101 bl   1474

0000162a bd10 1011110100010000 101111 pop {r4, lr}
0000162c 0a7c 0000101001111100 000010 lsrs  r4, r7, #9
0000162e 5010 0101000000010000 010100 str unimplemented form
00001630 4b1a 0100101100011010 010010 ldr  r3, [pc, #104] ; 0x0068
00001632 6802 0110100000000010 011010 ldr  r2, [r0, #0] ; 0x0
00001634 6959 0110100101011001 011010 ldr  r1, [r3, #20] ; 0x14
00001636 b510 1011010100010000 101101 push {r4, lr}
00001638 0004 0000000000000100 000000 movs r4, r0
0000163a 428a 0100001010001010 010000 cmp  r2, r1
0000163c d111 1101000100010001 110100 bne.n 1662 ; PC + 38

0000163e 6840 0110100001000000 011010 ldr  r0, [r0, #4] ; 0x4
00001640 2800 0010100000000000 001010 cmp r0, #0  ; 0x00
00001642 d10e 1101000100001110 110100 bne.n 1662 ; PC + 32

00001644 699a 0110100110011010 011010 ldr  r2, [r3, #24] ; 0x18
00001646 6919 0110100100011001 011010 ldr  r1, [r3, #16] ; 0x10
00001648 428a 0100001010001010 010000 cmp  r2, r1
0000164a d10a 1101000100001010 110100 bne.n 1662 ; PC + 24

0000164c 001a 0000000000011010 000000 movs r2, r3
0000164e 324c 0011001001001100 001100 adds r2, #76  ; 0x4c
00001650 7812 0111100000010010 011110 ldrb r2, [r2, #0]
00001652 2a00 0010101000000000 001010 cmp r2, #0  ; 0x00
00001654 d000 1101000000000000 110100 beq.n 1658 ; PC + 4

00001656 69d8 0110100111011000 011010 ldr  r0, [r3, #28] ; 0x1c
00001658 22fa 0010001011111010 001000 movs r2, #250  ; 0xfa
0000165a 4911 0100100100010001 010010 ldr  r1, [pc, #68] ; 0x0044
0000165c 0092 0000000010010010 000000 lsls  r2, r2, #2
0000165e f7ff 1111011111111111 111101 (32-bit)
00001660 f9cd 1111100111001101 111101 bl   9fc

00001662 cc0a 1100110000001010 110011 ldmia r4, {r1}
00001664 f3ef 1111001111101111 111100 (32-bit)
00001666 8410 1000010000010000 111100 To be implemented

00001668 b672 1011011001110010 101101 cps
0000166a 4a0e 0100101000001110 010010 ldr  r2, [pc, #56] ; 0x0038
0000166c 6812 0110100000010010 011010 ldr  r2, [r2, #0] ; 0x0
0000166e 4291 0100001010010001 010000 cmp  r1, r2
00001670 d111 1101000100010001 110100 bne.n 1696 ; PC + 38

00001672 2b00 0010101100000000 001010 cmp r3, #0  ; 0x00
00001674 d00c 1101000000001100 110100 beq.n 1690 ; PC + 28

00001676 2201 0010001000000001 001000 movs r2, #1  ; 0x01
00001678 4b0b 0100101100001011 010010 ldr  r3, [pc, #44] ; 0x002c
0000167a 731a 0111001100011010 011100 strb r2, [r3, #12]
0000167c 3206 0011001000000110 001100 adds r2, #6  ; 0x06
0000167e 73da 0111001111011010 011100 strb r2, [r3, #15]
00001680 3219 0011001000011001 001100 adds r2, #25  ; 0x19
00001682 765a 0111011001011010 011101 strb r2, [r3, #25]
00001684 3a1e 0011101000011110 001110 subs r2, #30  ; 0x1e
00001686 769a 0111011010011010 011101 strb r2, [r3, #26]
00001688 3305 0011001100000101 001100 adds r3, #5  ; 0x05
0000168a 77da 0111011111011010 011101 strb r2, [r3, #31]
0000168c f7ff 1111011111111111 111101 (32-bit)
0000168e fef2 1111111011110010 111101 bl   1474

00001690 4806 0100100000000110 010010 ldr  r0, [pc, #24] ; 0x0018
00001692 f7ff 1111011111111111 111101 (32-bit)
00001694 fbab 1111101110101011 111101 bl   dec

00001696 f384 1111001110000100 111100 (32-bit)
00001698 8810 1000100000010000 111100 msr ASPR, r4

0000169a bd10 1011110100010000 101111 pop {r4, lr}
0000169c 0d3c 0000110100111100 000011 lsrs  r4, r7, #20
0000169e 5010 0101000000010000 010100 str unimplemented form
000016a0 2000 0010000000000000 001000 movs r0, #0  ; 0x00
000016a2 2004 0010000000000100 001000 movs r0, #4  ; 0x04
000016a4 0a20 0000101000100000 000010 lsrs  r0, r4, #8
000016a6 5010 0101000000010000 010100 str unimplemented form
000016a8 0a7c 0000101001111100 000010 lsrs  r4, r7, #9
000016aa 5010 0101000000010000 010100 str unimplemented form
000016ac 0a4c 0000101001001100 000010 lsrs  r4, r1, #9
000016ae 5010 0101000000010000 010100 str unimplemented form
000016b0 2100 0010000100000000 001000 movs r1, #0  ; 0x00
000016b2 b510 1011010100010000 101101 push {r4, lr}
000016b4 480f 0100100000001111 010010 ldr  r0, [pc, #60] ; 0x003c
000016b6 f7ff 1111011111111111 111101 (32-bit)
000016b8 f979 1111100101111001 111101 bl   9ac

000016ba 480f 0100100000001111 010010 ldr  r0, [pc, #60] ; 0x003c
000016bc 2100 0010000100000000 001000 movs r1, #0  ; 0x00
000016be f7ff 1111011111111111 111101 (32-bit)
000016c0 f975 1111100101110101 111101 bl   9ac

000016c2 480e 0100100000001110 010010 ldr  r0, [pc, #56] ; 0x0038
000016c4 7a43 0111101001000011 011110 strb r3, [r0, #9]
000016c6 2b00 0010101100000000 001010 cmp r3, #0  ; 0x00
000016c8 d003 1101000000000011 110100 beq.n 16d2 ; PC + 10

000016ca 2280 0010001010000000 001000 movs r2, #128  ; 0x80
000016cc 4b0c 0100101100001100 010010 ldr  r3, [pc, #48] ; 0x0030
000016ce 0292 0000001010010010 000000 lsls  r2, r2, #10
000016d0 601a 0110000000011010 011000 str  r2, [r3, #0] ; 0x0
000016d2 2110 0010000100010000 001000 movs r1, #16  ; 0x10
000016d4 f7ff 1111011111111111 111101 (32-bit)
000016d6 fc36 1111110000110110 111101 bl   f44

000016d8 4b0a 0100101100001010 010010 ldr  r3, [pc, #40] ; 0x0028
000016da 2200 0010001000000000 001000 movs r2, #0  ; 0x00
000016dc 0019 0000000000011001 000000 movs r1, r3
000016de 3329 0011001100101001 001100 adds r3, #41  ; 0x29
000016e0 3128 0011000100101000 001100 adds r1, #40  ; 0x28
000016e2 700a 0111000000001010 011100 ldrb r2, [r1, #0]
000016e4 701a 0111000000011010 011100 ldrb r2, [r3, #0]
000016e6 4b08 0100101100001000 010010 ldr  r3, [pc, #32] ; 0x0020
000016e8 0019 0000000000011001 000000 movs r1, r3
000016ea 3329 0011001100101001 001100 adds r3, #41  ; 0x29
000016ec 3128 0011000100101000 001100 adds r1, #40  ; 0x28
000016ee 700a 0111000000001010 011100 ldrb r2, [r1, #0]
000016f0 701a 0111000000011010 011100 ldrb r2, [r3, #0]
000016f2 bd10 1011110100010000 101111 pop {r4, lr}
000016f4 0e58 0000111001011000 000011 lsrs  r0, r3, #25
000016f6 5010 0101000000010000 010100 str unimplemented form
000016f8 0e24 0000111000100100 000011 lsrs  r4, r4, #24
000016fa 5010 0101000000010000 010100 str unimplemented form
000016fc 0ab8 0000101010111000 000010 lsrs  r0, r7, #10
000016fe 5010 0101000000010000 010100 str unimplemented form
00001700 a01c 1010000000011100 101000 add r0, pc, #112 ; #70
00001702 4001 0100000000000001 010000 ands  r1, r0
00001704 0fc0 0000111111000000 000011 lsrs  r0, r0, #31
00001706 5010 0101000000010000 010100 str unimplemented form
00001708 0e84 0000111010000100 000011 lsrs  r4, r0, #26
0000170a 5010 0101000000010000 010100 str unimplemented form
0000170c 2280 0010001010000000 001000 movs r2, #128  ; 0x80
0000170e 4b05 0100101100000101 010010 ldr  r3, [pc, #20] ; 0x0014
00001710 0292 0000001010010010 000000 lsls  r2, r2, #10
00001712 b510 1011010100010000 101101 push {r4, lr}
00001714 601a 0110000000011010 011000 str  r2, [r3, #0] ; 0x0
00001716 2900 0010100100000000 001010 cmp r1, #0  ; 0x00
00001718 d003 1101000000000011 110100 beq.n 1722 ; PC + 10

0000171a f7ff 1111011111111111 111101 (32-bit)
0000171c fc19 1111110000011001 111101 bl   f50

0000171e f7ff 1111011111111111 111101 (32-bit)
00001720 ffc7 1111111111000111 111101 bl   16b0

00001722 bd10 1011110100010000 101111 pop {r4, lr}
00001724 a01c 1010000000011100 101000 add r0, pc, #112 ; #70
00001726 4001 0100000000000001 010000 ands  r1, r0
00001728 2260 0010001001100000 001000 movs r2, #96  ; 0x60
0000172a 780b 0111100000001011 011110 ldrb r3, [r1, #0]
0000172c 2000 0010000000000000 001000 movs r0, #0  ; 0x00
0000172e b510 1011010100010000 101101 push {r4, lr}
00001730 401a 0100000000011010 010000 ands  r2, r3
00001732 2a40 0010101001000000 001010 cmp r2, #64  ; 0x40
00001734 d113 1101000100010011 110100 bne.n 175e ; PC + 42

00001736 b25b 1011001001011011 101100 sxtb ; a6-168
00001738 784a 0111100001001010 011110 ldrb r2, [r1, #1]
0000173a 4283 0100001010000011 010000 cmp  r3, r0
0000173c da10 1101101000010000 110110 bge.n 1760 ; PC + 36

0000173e 2a42 0010101001000010 001010 cmp r2, #66  ; 0x42
00001740 d10d 1101000100001101 110100 bne.n 175e ; PC + 30

00001742 88cc 1000100011001100 100010 A5-82 1000 100
00001744 2c10 0010110000010000 001011 cmp r4, #16  ; 0x10
00001746 d10a 1101000100001010 110100 bne.n 175e ; PC + 24

00001748 0021 0000000000100001 000000 movs r1, r4
0000174a 4809 0100100000001001 010010 ldr  r0, [pc, #36] ; 0x0024
0000174c f7ff 1111011111111111 111101 (32-bit)
0000174e fe5a 1111111001011010 111101 bl   1404

00001750 0022 0000000000100010 000000 movs r2, r4
00001752 4908 0100100100001000 010010 ldr  r1, [pc, #32] ; 0x0020
00001754 f000 1111000000000000 111100 (32-bit)
00001756 ff74 1111111101110100 111100 bl   2640

00001758 f7ff 1111011111111111 111101 (32-bit)
0000175a f80c 1111100000001100 111101 bl   774

0000175c 2001 0010000000000001 001000 movs r0, #1  ; 0x01
0000175e bd10 1011110100010000 101111 pop {r4, lr}
00001760 2a41 0010101001000001 001010 cmp r2, #65  ; 0x41
00001762 d1fc 1101000111111100 110100 bne.n 175e ; PC + -4

00001764 f7ff 1111011111111111 111101 (32-bit)
00001766 ffa4 1111111110100100 111101 bl   16b0

00001768 f7fe 1111011111111110 111101 (32-bit)
0000176a ffec 1111111111101100 111101 bl   744

0000176c e7f6 1110011111110110 111001 b.n  175c

0000176e 46c0 0100011011000000 010001 nop  ; (mov  r8, r8)

00001770 0f68 0000111101101000 000011 lsrs  r0, r5, #29
00001772 5010 0101000000010000 010100 str unimplemented form
00001774 0ab8 0000101010111000 000010 lsrs  r0, r7, #10
00001776 5010 0101000000010000 010100 str unimplemented form
00001778 b5f8 1011010111111000 101101 push {r3, r4, r5, r6, r7, lr}
0000177a 4e18 0100111000011000 010011 ldr  r6, [pc, #96] ; 0x0060
0000177c 24c0 0010010011000000 001001 movs r4, #192  ; 0xc0
0000177e 0015 0000000000010101 000000 movs r5, r2
00001780 46b4 0100011010110100 010001 mov  r6, r12
00001782 0564 0000010101100100 000001 lsls  r4, r4, #21
00001784 001e 0000000000011110 000000 movs r6, r3
00001786 4316 0100001100010110 010000 orr  r6, r2
00001788 432e 0100001100101110 010000 orr  r6, r5
0000178a d103 1101000100000011 110100 bne.n 1794 ; PC + 10

0000178c 2003 0010000000000011 001000 movs r0, #3  ; 0x03
0000178e f7ff 1111011111111111 111101 (32-bit)
00001790 f9ff 1111100111111111 111101 bl   b90

00001792 bdf8 1011110111111000 101111 pop {r3, r4, r5, r6, r7, lr}
00001794 6a27 0110101000100111 011010 ldr  r7, [r4, #32] ; 0x20
00001796 6a66 0110101001100110 011010 ldr  r6, [r4, #36] ; 0x24
00001798 2a00 0010101000000000 001010 cmp r2, #0  ; 0x00
0000179a d015 1101000000010101 110100 beq.n 17c8 ; PC + 46

0000179c 19bf 0001100110111111 000110 adds r7, r7, r6
0000179e 2f0d 0010111100001101 001011 cmp r7, #13  ; 0x0d
000017a0 d812 1101100000010010 110110 bhi.n 17c8 ; PC + 40

000017a2 1e07 0001111000000111 000111 subs  r7, r0, #0   ;0x0
000017a4 d001 1101000000000001 110100 beq.n 17aa ; PC + 6

000017a6 7807 0111100000000111 011110 ldrb r7, [r0, #0]
000017a8 3001 0011000000000001 001100 adds r0, #1  ; 0x01
000017aa 6627 0110011000100111 011001 str  r7, [r4, #96] ; 0x60
000017ac 3a01 0011101000000001 001110 subs r2, #1  ; 0x01
000017ae 2e00 0010111000000000 001011 cmp r6, #0  ; 0x00
000017b0 d0e8 1101000011101000 110100 beq.n 1784 ; PC + -44

000017b2 6e26 0110111000100110 011011 ldr  r6, [r4, #96] ; 0x60
000017b4 2b00 0010101100000000 001010 cmp r3, #0  ; 0x00
000017b6 d001 1101000000000001 110100 beq.n 17bc ; PC + 6

000017b8 3b01 0011101100000001 001110 subs r3, #1  ; 0x01
000017ba e7e3 1110011111100011 111001 b.n  1784

000017bc 2900 0010100100000000 001010 cmp r1, #0  ; 0x00
000017be d001 1101000000000001 110100 beq.n 17c4 ; PC + 6

000017c0 700e 0111000000001110 011100 ldrb r6, [r1, #0]
000017c2 3101 0011000100000001 001100 adds r1, #1  ; 0x01
000017c4 3d01 0011110100000001 001111 subs r5, #1  ; 0x01
000017c6 e7dd 1110011111011101 111001 b.n  1784

000017c8 2e00 0010111000000000 001011 cmp r6, #0  ; 0x00
000017ca d1f2 1101000111110010 110100 bne.n 17b2 ; PC + -24

000017cc 4666 0100011001100110 010001 mov  r12, r6
000017ce 27c0 0010011111000000 001001 movs r7, #192  ; 0xc0
000017d0 6836 0110100000110110 011010 ldr  r6, [r6, #0] ; 0x0
000017d2 02bf 0000001010111111 000000 lsls  r7, r7, #10
000017d4 423e 0100001000111110 010000 tst  r6, r7
000017d6 d0d5 1101000011010101 110100 beq.n 1784 ; PC + -82

000017d8 e7d8 1110011111011000 111001 b.n  178c

000017da 46c0 0100011011000000 010001 nop  ; (mov  r8, r8)

000017dc 801c 1000000000011100 100000 A5-82 1000 000
000017de 4001 0100000000000001 010000 ands  r1, r0
000017e0 b510 1011010100010000 101101 push {r4, lr}
000017e2 000c 0000000000001100 000000 movs r4, r1
000017e4 0001 0000000000000001 000000 movs r1, r0
000017e6 2003 0010000000000011 001000 movs r0, #3  ; 0x03
000017e8 f7ff 1111011111111111 111101 (32-bit)
000017ea f9da 1111100111011010 111101 bl   ba0

000017ec 2280 0010001010000000 001000 movs r2, #128  ; 0x80
000017ee 2304 0010001100000100 001000 movs r3, #4  ; 0x04
000017f0 0021 0000000000100001 000000 movs r1, r4
000017f2 2000 0010000000000000 001000 movs r0, #0  ; 0x00
000017f4 0052 0000000001010010 000000 lsls  r2, r2, #1
000017f6 f7ff 1111011111111111 111101 (32-bit)
000017f8 ffbf 1111111110111111 111101 bl   1778

000017fa bd10 1011110100010000 101111 pop {r4, lr}
000017fc 23f0 0010001111110000 001000 movs r3, #240  ; 0xf0
000017fe b510 1011010100010000 101101 push {r4, lr}
00001800 061b 0000011000011011 000001 lsls  r3, r3, #24
00001802 18c0 0001100011000000 000110 adds r0, r0, r3
00001804 f7ff 1111011111111111 111101 (32-bit)
00001806 ffec 1111111111101100 111101 bl   17e0

00001808 2000 0010000000000000 001000 movs r0, #0  ; 0x00
0000180a bd10 1011110100010000 101111 pop {r4, lr}
0000180c b510 1011010100010000 101101 push {r4, lr}
0000180e 2002 0010000000000010 001000 movs r0, #2  ; 0x02
00001810 f7ff 1111011111111111 111101 (32-bit)
00001812 f9be 1111100110111110 111101 bl   b90

00001814 23c0 0010001111000000 001000 movs r3, #192  ; 0xc0
00001816 2206 0010001000000110 001000 movs r2, #6  ; 0x06
00001818 055b 0000010101011011 000001 lsls  r3, r3, #21
0000181a 661a 0110011000011010 011001 str  r2, [r3, #96] ; 0x60
0000181c 2200 0010001000000000 001000 movs r2, #0  ; 0x00
0000181e 2301 0010001100000001 001000 movs r3, #1  ; 0x01
00001820 0011 0000000000010001 000000 movs r1, r2
00001822 0010 0000000000010000 000000 movs r0, r2
00001824 f7ff 1111011111111111 111101 (32-bit)
00001826 ffa8 1111111110101000 111101 bl   1778

00001828 bd10 1011110100010000 101111 pop {r4, lr}
0000182a be00 1011111000000000 101111 bkpt 0x0000

0000182c b573 1011010101110011 101101 push {r0, r1, r4, r5, r6, lr}
0000182e 26c0 0010011011000000 001001 movs r6, #192  ; 0xc0
00001830 2401 0010010000000001 001001 movs r4, #1  ; 0x01
00001832 0576 0000010101110110 000001 lsls  r6, r6, #21
00001834 2002 0010000000000010 001000 movs r0, #2  ; 0x02
00001836 f7ff 1111011111111111 111101 (32-bit)
00001838 f9ab 1111100110101011 111101 bl   b90

0000183a 2305 0010001100000101 001000 movs r3, #5  ; 0x05
0000183c 6633 0110011000110011 011001 str  r3, [r6, #96] ; 0x60
0000183e 466b 0100011001101011 010001 mov  r13, r3
00001840 1ddd 0001110111011101 000111 adds r5, r3, #7   ;0x7
00001842 0022 0000000000100010 000000 movs r2, r4
00001844 0023 0000000000100011 000000 movs r3, r4
00001846 0029 0000000000101001 000000 movs r1, r5
00001848 2000 0010000000000000 001000 movs r0, #0  ; 0x00
0000184a f7ff 1111011111111111 111101 (32-bit)
0000184c ff95 1111111110010101 111101 bl   1778

0000184e 782b 0111100000101011 011110 ldrb r3, [r5, #0]
00001850 4223 0100001000100011 010000 tst  r3, r4
00001852 d005 1101000000000101 110100 beq.n 1860 ; PC + 14

00001854 4b03 0100101100000011 010010 ldr  r3, [pc, #12] ; 0x000c
00001856 681a 0110100000011010 011010 ldr  r2, [r3, #0] ; 0x0
00001858 23c0 0010001111000000 001000 movs r3, #192  ; 0xc0
0000185a 029b 0000001010011011 000000 lsls  r3, r3, #10
0000185c 421a 0100001000011010 010000 tst  r2, r3
0000185e d0e9 1101000011101001 110100 beq.n 1834 ; PC + -42

00001860 bd73 1011110101110011 101111 pop {r0, r1, r4, r5, r6, lr}
00001862 46c0 0100011011000000 010001 nop  ; (mov  r8, r8)

00001864 801c 1000000000011100 100000 A5-82 1000 000
00001866 4001 0100000000000001 010000 ands  r1, r0
00001868 b570 1011010101110000 101101 push {r4, r5, r6, lr}
0000186a 0005 0000000000000101 000000 movs r5, r0
0000186c 000c 0000000000001100 000000 movs r4, r1
0000186e f7ff 1111011111111111 111101 (32-bit)
00001870 ffcd 1111111111001101 111101 bl   180c

00001872 0029 0000000000101001 000000 movs r1, r5
00001874 0020 0000000000100000 000000 movs r0, r4
00001876 f7ff 1111011111111111 111101 (32-bit)
00001878 f993 1111100110010011 111101 bl   ba0

0000187a 2200 0010001000000000 001000 movs r2, #0  ; 0x00
0000187c 2304 0010001100000100 001000 movs r3, #4  ; 0x04
0000187e 0011 0000000000010001 000000 movs r1, r2
00001880 0010 0000000000010000 000000 movs r0, r2
00001882 f7ff 1111011111111111 111101 (32-bit)
00001884 ff79 1111111101111001 111101 bl   1778

00001886 f7ff 1111011111111111 111101 (32-bit)
00001888 ffd1 1111111111010001 111101 bl   182c

0000188a bd70 1011110101110000 101111 pop {r4, r5, r6, lr}
0000188c 23f0 0010001111110000 001000 movs r3, #240  ; 0xf0
0000188e b510 1011010100010000 101101 push {r4, lr}
00001890 061b 0000011000011011 000001 lsls  r3, r3, #24
00001892 18c0 0001100011000000 000110 adds r0, r0, r3
00001894 2120 0010000100100000 001000 movs r1, #32  ; 0x20
00001896 f7ff 1111011111111111 111101 (32-bit)
00001898 ffe7 1111111111100111 111101 bl   1868

0000189a 2000 0010000000000000 001000 movs r0, #0  ; 0x00
0000189c bd10 1011110100010000 101111 pop {r4, lr}
0000189e b570 1011010101110000 101101 push {r4, r5, r6, lr}
000018a0 0005 0000000000000101 000000 movs r5, r0
000018a2 000c 0000000000001100 000000 movs r4, r1
000018a4 f7ff 1111011111111111 111101 (32-bit)
000018a6 ffb2 1111111110110010 111101 bl   180c

000018a8 0029 0000000000101001 000000 movs r1, r5
000018aa 2002 0010000000000010 001000 movs r0, #2  ; 0x02
000018ac f7ff 1111011111111111 111101 (32-bit)
000018ae f978 1111100101111000 111101 bl   ba0

000018b0 2280 0010001010000000 001000 movs r2, #128  ; 0x80
000018b2 2304 0010001100000100 001000 movs r3, #4  ; 0x04
000018b4 2100 0010000100000000 001000 movs r1, #0  ; 0x00
000018b6 0020 0000000000100000 000000 movs r0, r4
000018b8 0052 0000000001010010 000000 lsls  r2, r2, #1
000018ba f7ff 1111011111111111 111101 (32-bit)
000018bc ff5d 1111111101011101 111101 bl   1778

000018be f7ff 1111011111111111 111101 (32-bit)
000018c0 ffb5 1111111110110101 111101 bl   182c

000018c2 bd70 1011110101110000 101111 pop {r4, r5, r6, lr}
000018c4 23f0 0010001111110000 001000 movs r3, #240  ; 0xf0
000018c6 b510 1011010100010000 101101 push {r4, lr}
000018c8 061b 0000011000011011 000001 lsls  r3, r3, #24
000018ca 18c0 0001100011000000 000110 adds r0, r0, r3
000018cc f7ff 1111011111111111 111101 (32-bit)
000018ce ffe7 1111111111100111 111101 bl   189e

000018d0 2000 0010000000000000 001000 movs r0, #0  ; 0x00
000018d2 bd10 1011110100010000 101111 pop {r4, lr}
000018d4 2280 0010001010000000 001000 movs r2, #128  ; 0x80
000018d6 4b82 0100101110000010 010010 ldr  r3, [pc, #520] ; 0x0208
000018d8 b5f0 1011010111110000 101101 push {r4, r5, r6, r7, lr}
000018da 0452 0000010001010010 000001 lsls  r2, r2, #17
000018dc 601a 0110000000011010 011000 str  r2, [r3, #0] ; 0x0
000018de 4a81 0100101010000001 010010 ldr  r2, [pc, #516] ; 0x0204
000018e0 0006 0000000000000110 000000 movs r6, r0
000018e2 6812 0110100000010010 011010 ldr  r2, [r2, #0] ; 0x0
000018e4 000d 0000000000001101 000000 movs r5, r1
000018e6 b085 1011000010000101 101100 sub SP plus immediate
000018e8 0792 0000011110010010 000001 lsls  r2, r2, #30
000018ea d439 1101010000111001 110101 bmi.n 1960 ; PC + 118

000018ec 2003 0010000000000011 001000 movs r0, #3  ; 0x03
000018ee 4a7e 0100101001111110 010010 ldr  r2, [pc, #504] ; 0x01f8
000018f0 497e 0100100101111110 010010 ldr  r1, [pc, #504] ; 0x01f8
000018f2 4c7f 0100110001111111 010011 ldr  r4, [pc, #508] ; 0x01fc
000018f4 6011 0110000000010001 011000 str  r1, [r2, #0] ; 0x0
000018f6 4a7f 0100101001111111 010010 ldr  r2, [pc, #508] ; 0x01fc
000018f8 6010 0110000000010000 011000 str  r0, [r2, #0] ; 0x0
000018fa 4a7f 0100101001111111 010010 ldr  r2, [pc, #508] ; 0x01fc
000018fc 487f 0100100001111111 010010 ldr  r0, [pc, #508] ; 0x01fc
000018fe 67a2 0110011110100010 011001 str  r2, [r4, #120] ; 0x78
00001900 3aff 0011101011111111 001110 subs r2, #255  ; 0xff
00001902 3aff 0011101011111111 001110 subs r2, #255  ; 0xff
00001904 6002 0110000000000010 011000 str  r2, [r0, #0] ; 0x0
00001906 6c60 0110110001100000 011011 ldr  r0, [r4, #68] ; 0x44
00001908 4210 0100001000010000 010000 tst  r0, r2
0000190a d0fc 1101000011111100 110100 beq.n 1906 ; PC + -4

0000190c 2280 0010001010000000 001000 movs r2, #128  ; 0x80
0000190e 0052 0000000001010010 000000 lsls  r2, r2, #1
00001910 6422 0110010000100010 011001 str  r2, [r4, #64] ; 0x40
00001912 65a2 0110010110100010 011001 str  r2, [r4, #88] ; 0x58
00001914 4a7a 0100101001111010 010010 ldr  r2, [pc, #488] ; 0x01e8
00001916 6011 0110000000010001 011000 str  r1, [r2, #0] ; 0x0
00001918 6851 0110100001010001 011010 ldr  r1, [r2, #4] ; 0x4
0000191a 2900 0010100100000000 001010 cmp r1, #0  ; 0x00
0000191c dafc 1101101011111100 110110 bge.n 1918 ; PC + -4

0000191e 2080 0010000010000000 001000 movs r0, #128  ; 0x80
00001920 0140 0000000101000000 000000 lsls  r0, r0, #5
00001922 6018 0110000000011000 011000 str  r0, [r3, #0] ; 0x0
00001924 f7ff 1111011111111111 111101 (32-bit)
00001926 f94e 1111100101001110 111101 bl   bc4

00001928 2201 0010001000000001 001000 movs r2, #1  ; 0x01
0000192a 4b76 0100101101110110 010010 ldr  r3, [pc, #472] ; 0x01d8
0000192c 2121 0010000100100001 001000 movs r1, #33  ; 0x21
0000192e 601a 0110000000011010 011000 str  r2, [r3, #0] ; 0x0
00001930 3263 0011001001100011 001100 adds r2, #99  ; 0x63
00001932 609a 0110000010011010 011000 str  r2, [r3, #8] ; 0x8
00001934 22aa 0010001010101010 001000 movs r2, #170  ; 0xaa
00001936 02d2 0000001011010010 000000 lsls  r2, r2, #11
00001938 60da 0110000011011010 011000 str  r2, [r3, #12] ; 0xc
0000193a 4a73 0100101001110011 010010 ldr  r2, [pc, #460] ; 0x01cc
0000193c 6011 0110000000010001 011000 str  r1, [r2, #0] ; 0x0
0000193e 6819 0110100000011001 011010 ldr  r1, [r3, #0] ; 0x0
00001940 2900 0010100100000000 001010 cmp r1, #0  ; 0x00
00001942 dafc 1101101011111100 110110 bge.n 193e ; PC + -4

00001944 2308 0010001100001000 001000 movs r3, #8  ; 0x08
00001946 6013 0110000000010011 011000 str  r3, [r2, #0] ; 0x0
00001948 2300 0010001100000000 001000 movs r3, #0  ; 0x00
0000194a 63e3 0110001111100011 011000 str  r3, [r4, #60] ; 0x3c imm5
0000194c 2382 0010001110000010 001000 movs r3, #130  ; 0x82
0000194e 2201 0010001000000001 001000 movs r2, #1  ; 0x01
00001950 011b 0000000100011011 000000 lsls  r3, r3, #4
00001952 6563 0110010101100011 011001 str  r3, [r4, #84] ; 0x54
00001954 4b6d 0100101101101101 010010 ldr  r3, [pc, #436] ; 0x01b4
00001956 601a 0110000000011010 011000 str  r2, [r3, #0] ; 0x0
00001958 2302 0010001100000010 001000 movs r3, #2  ; 0x02
0000195a 6c62 0110110001100010 011011 ldr  r2, [r4, #68] ; 0x44
0000195c 421a 0100001000011010 010000 tst  r2, r3
0000195e d0fc 1101000011111100 110100 beq.n 195a ; PC + -4

00001960 2080 0010000010000000 001000 movs r0, #128  ; 0x80
00001962 0440 0000010001000000 000001 lsls  r0, r0, #17
00001964 f7ff 1111011111111111 111101 (32-bit)
00001966 f92e 1111100100101110 111101 bl   bc4

00001968 220c 0010001000001100 001000 movs r2, #12  ; 0x0c
0000196a 4b69 0100101101101001 010010 ldr  r3, [pc, #420] ; 0x01a4
0000196c 2180 0010000110000000 001000 movs r1, #128  ; 0x80
0000196e 62da 0110001011011010 011000 str  r2, [r3, #44] ; 0x2c imm5
00001970 4b68 0100101101101000 010010 ldr  r3, [pc, #416] ; 0x01a0
00001972 32f5 0011001011110101 001100 adds r2, #245  ; 0xf5
00001974 32ff 0011001011111111 001100 adds r2, #255  ; 0xff
00001976 601a 0110000000011010 011000 str  r2, [r3, #0] ; 0x0
00001978 2201 0010001000000001 001000 movs r2, #1  ; 0x01
0000197a 4b67 0100101101100111 010010 ldr  r3, [pc, #412] ; 0x019c
0000197c 4867 0100100001100111 010010 ldr  r0, [pc, #412] ; 0x019c
0000197e 601a 0110000000011010 011000 str  r2, [r3, #0] ; 0x0
00001980 0149 0000000101001001 000000 lsls  r1, r1, #5
00001982 f7ff 1111011111111111 111101 (32-bit)
00001984 fadf 1111101011011111 111101 bl   f44

00001986 4b66 0100101101100110 010010 ldr  r3, [pc, #408] ; 0x0198
00001988 601e 0110000000011110 011000 str  r6, [r3, #0] ; 0x0
0000198a 43eb 0100001111101011 010000 mvn  r3, r5
0000198c 079b 0000011110011011 000001 lsls  r3, r3, #30
0000198e d100 1101000100000000 110100 bne.n 1992 ; PC + 4

00001990 2500 0010010100000000 001001 movs r5, #0  ; 0x00
00001992 2e00 0010111000000000 001011 cmp r6, #0  ; 0x00
00001994 d001 1101000000000001 110100 beq.n 199a ; PC + 6

00001996 f7ff 1111011111111111 111101 (32-bit)
00001998 faaf 1111101010101111 111101 bl   ef8

0000199a 4c62 0100110001100010 010011 ldr  r4, [pc, #392] ; 0x0188
0000199c 4b62 0100101101100010 010010 ldr  r3, [pc, #392] ; 0x0188
0000199e 0020 0000000000100000 000000 movs r0, r4
000019a0 6819 0110100000011001 011010 ldr  r1, [r3, #0] ; 0x0
000019a2 f7ff 1111011111111111 111101 (32-bit)
000019a4 f8a7 1111100010100111 111101 bl   af4

000019a6 4b61 0100101101100001 010010 ldr  r3, [pc, #388] ; 0x0184
000019a8 1da0 0001110110100000 000111 adds r0, r4, #6   ;0x6
000019aa 6819 0110100000011001 011010 ldr  r1, [r3, #0] ; 0x0
000019ac f7ff 1111011111111111 111101 (32-bit)
000019ae f8a2 1111100010100010 111101 bl   af4

000019b0 2601 0010011000000001 001001 movs r6, #1  ; 0x01
000019b2 4c5f 0100110001011111 010011 ldr  r4, [pc, #380] ; 0x017c
000019b4 2d00 0010110100000000 001011 cmp r5, #0  ; 0x00
000019b6 d01f 1101000000011111 110100 beq.n 19f8 ; PC + 66

000019b8 4f5e 0100111101011110 010011 ldr  r7, [pc, #376] ; 0x0178
000019ba 2220 0010001000100000 001000 movs r2, #32  ; 0x20
000019bc 0021 0000000000100001 000000 movs r1, r4
000019be 0038 0000000000111000 000000 movs r0, r7
000019c0 f000 1111000000000000 111100 (32-bit)
000019c2 fe3e 1111111000111110 111100 bl   2640

000019c4 2320 0010001100100000 001000 movs r3, #32  ; 0x20
000019c6 70bb 0111000010111011 011100 ldrb r3, [r7, #2]
000019c8 2300 0010001100000000 001000 movs r3, #0  ; 0x00
000019ca 2601 0010011000000001 001001 movs r6, #1  ; 0x01
000019cc 70fb 0111000011111011 011100 ldrb r3, [r7, #3]
000019ce 002b 0000000000101011 000000 movs r3, r5
000019d0 4033 0100000000110011 010000 ands  r3, r6
000019d2 9303 1001001100000011 100100 str r3, [sp, #12]
000019d4 4235 0100001000110101 010000 tst  r5, r6
000019d6 d007 1101000000000111 110100 beq.n 19e8 ; PC + 18

000019d8 0021 0000000000100001 000000 movs r1, r4
000019da 0038 0000000000111000 000000 movs r0, r7
000019dc 2217 0010001000010111 001000 movs r2, #23  ; 0x17
000019de 3120 0011000100100000 001100 adds r1, #32  ; 0x20
000019e0 3009 0011000000001001 001100 adds r0, #9  ; 0x09
000019e2 f000 1111000000000000 111100 (32-bit)
000019e4 fe2d 1111111000101101 111100 bl   2640

000019e6 2600 0010011000000000 001001 movs r6, #0  ; 0x00
000019e8 2301 0010001100000001 001000 movs r3, #1  ; 0x01
000019ea 713b 0111000100111011 011100 ldrb r3, [r7, #4]
000019ec 2300 0010001100000000 001000 movs r3, #0  ; 0x00
000019ee 72fb 0111001011111011 011100 strb r3, [r7, #11]
000019f0 9b03 1001101100000011 100110 A5-82 1001 101
000019f2 003c 0000000000111100 000000 movs r4, r7
000019f4 2b00 0010101100000000 001010 cmp r3, #0  ; 0x00
000019f6 d108 1101000100001000 110100 bne.n 1a0a ; PC + 20

000019f8 0021 0000000000100001 000000 movs r1, r4
000019fa 4f4f 0100111101001111 010011 ldr  r7, [pc, #316] ; 0x013c
000019fc 4a4f 0100101001001111 010010 ldr  r2, [pc, #316] ; 0x013c
000019fe 0038 0000000000111000 000000 movs r0, r7
00001a00 3109 0011000100001001 001100 adds r1, #9  ; 0x09
00001a02 f7fe 1111011111111110 111101 (32-bit)
00001a04 fd91 1111110110010001 111101 bl   528

00001a06 4b4e 0100101101001110 010010 ldr  r3, [pc, #312] ; 0x0138
00001a08 607b 0110000001111011 011000 str  r3, [r7, #4] ; 0x4
00001a0a 07ab 0000011110101011 000001 lsls  r3, r5, #30
00001a0c d40f 1101010000001111 110101 bmi.n 1a2e ; PC + 34

00001a0e 2117 0010000100010111 001000 movs r1, #23  ; 0x17
00001a10 4371 0100001101110001 010000 muls  r1, r6
00001a12 4e4c 0100111001001100 010011 ldr  r6, [pc, #304] ; 0x0130
00001a14 3109 0011000100001001 001100 adds r1, #9  ; 0x09
00001a16 4a4c 0100101001001100 010010 ldr  r2, [pc, #304] ; 0x0130
00001a18 0030 0000000000110000 000000 movs r0, r6
00001a1a 1861 0001100001100001 000110 adds r1, r4, r1
00001a1c f7fe 1111011111111110 111101 (32-bit)
00001a1e fd84 1111110110000100 111101 bl   528

00001a20 4b4a 0100101101001010 010010 ldr  r3, [pc, #296] ; 0x0128
00001a22 4a4b 0100101001001011 010010 ldr  r2, [pc, #300] ; 0x012c
00001a24 601a 0110000000011010 011000 str  r2, [r3, #0] ; 0x0
00001a26 4a4b 0100101001001011 010010 ldr  r2, [pc, #300] ; 0x012c
00001a28 6053 0110000001010011 011000 str  r3, [r2, #4] ; 0x4
00001a2a 4b4b 0100101101001011 010010 ldr  r3, [pc, #300] ; 0x012c
00001a2c 6073 0110000001110011 011000 str  r3, [r6, #4] ; 0x4
00001a2e 4b4b 0100101101001011 010010 ldr  r3, [pc, #300] ; 0x012c
00001a30 2d01 0010110100000001 001011 cmp r5, #1  ; 0x01
00001a32 d100 1101000100000000 110100 bne.n 1a36 ; PC + 4

00001a34 3304 0011001100000100 001100 adds r3, #4  ; 0x04
00001a36 4d4a 0100110101001010 010011 ldr  r5, [pc, #296] ; 0x0128
00001a38 4a4a 0100101001001010 010010 ldr  r2, [pc, #296] ; 0x0128
00001a3a 60ec 0110000011101100 011000 str  r4, [r5, #12] ; 0xc
00001a3c 2400 0010010000000000 001001 movs r4, #0  ; 0x00
00001a3e 4f4a 0100111101001010 010011 ldr  r7, [pc, #296] ; 0x0128
00001a40 612b 0110000100101011 011000 str  r3, [r5, #16] ; 0x10
00001a42 4b4a 0100101101001010 010010 ldr  r3, [pc, #296] ; 0x0128
00001a44 0021 0000000000100001 000000 movs r1, r4
00001a46 602a 0110000000101010 011000 str  r2, [r5, #0] ; 0x0
00001a48 60ab 0110000010101011 011000 str  r3, [r5, #8] ; 0x8
00001a4a 2201 0010001000000001 001000 movs r2, #1  ; 0x01
00001a4c 2340 0010001101000000 001000 movs r3, #64  ; 0x40
00001a4e 9400 1001010000000000 100101 A5-82 1001 010
00001a50 0038 0000000000111000 000000 movs r0, r7
00001a52 f7fe 1111011111111110 111101 (32-bit)
00001a54 fd55 1111110101010101 111101 bl   500

00001a56 4e46 0100111001000110 010011 ldr  r6, [pc, #280] ; 0x0118
00001a58 0022 0000000000100010 000000 movs r2, r4
00001a5a 0021 0000000000100001 000000 movs r1, r4
00001a5c 2340 0010001101000000 001000 movs r3, #64  ; 0x40
00001a5e 9400 1001010000000000 100101 A5-82 1001 010
00001a60 0030 0000000000110000 000000 movs r0, r6
00001a62 f7fe 1111011111111110 111101 (32-bit)
00001a64 fd4d 1111110101001101 111101 bl   500

00001a66 2380 0010001110000000 001000 movs r3, #128  ; 0x80
00001a68 0021 0000000000100001 000000 movs r1, r4
00001a6a 005b 0000000001011011 000000 lsls  r3, r3, #1
00001a6c 0038 0000000000111000 000000 movs r0, r7
00001a6e 832b 1000001100101011 100000 strh r3, [r5, #24]
00001a70 f7fe 1111011111111110 111101 (32-bit)
00001a72 fd12 1111110100010010 111101 bl   498

00001a74 2380 0010001110000000 001000 movs r3, #128  ; 0x80
00001a76 0021 0000000000100001 000000 movs r1, r4
00001a78 005b 0000000001011011 000000 lsls  r3, r3, #1
00001a7a 0030 0000000000110000 000000 movs r0, r6
00001a7c 832b 1000001100101011 100000 strh r3, [r5, #24]
00001a7e f7fe 1111011111111110 111101 (32-bit)
00001a80 fd0b 1111110100001011 111101 bl   498

00001a82 23c0 0010001111000000 001000 movs r3, #192  ; 0xc0
00001a84 005b 0000000001011011 000000 lsls  r3, r3, #1
00001a86 832b 1000001100101011 100000 strh r3, [r5, #24]
00001a88 3401 0011010000000001 001101 adds r4, #1  ; 0x01
00001a8a 4b3a 0100101100111010 010010 ldr  r3, [pc, #232] ; 0x00e8
00001a8c 00a2 0000000010100010 000000 lsls  r2, r4, #2
00001a8e 58d0 0101100011010000 010110 ldr r0, [r2, r3]
00001a90 2800 0010100000000000 001010 cmp r0, #0  ; 0x00
00001a92 d002 1101000000000010 110100 beq.n 1a9a ; PC + 8

00001a94 2100 0010000100000000 001000 movs r1, #0  ; 0x00
00001a96 f7fe 1111011111111110 111101 (32-bit)
00001a98 fcff 1111110011111111 111101 bl   498

00001a9a 3401 0011010000000001 001101 adds r4, #1  ; 0x01
00001a9c 2c05 0010110000000101 001011 cmp r4, #5  ; 0x05
00001a9e d1f4 1101000111110100 110100 bne.n 1a8a ; PC + -20

00001aa0 4b35 0100101100110101 010010 ldr  r3, [pc, #212] ; 0x00d4
00001aa2 2000 0010000000000000 001000 movs r0, #0  ; 0x00
00001aa4 606b 0110000001101011 011000 str  r3, [r5, #4] ; 0x4
00001aa6 4b35 0100101100110101 010010 ldr  r3, [pc, #212] ; 0x00d4
00001aa8 4a35 0100101000110101 010010 ldr  r2, [pc, #212] ; 0x00d4
00001aaa 001c 0000000000011100 000000 movs r4, r3
00001aac 0019 0000000000011001 000000 movs r1, r3
00001aae 3304 0011001100000100 001100 adds r3, #4  ; 0x04
00001ab0 6008 0110000000001000 011000 str  r0, [r1, #0] ; 0x0
00001ab2 4293 0100001010010011 010000 cmp  r3, r2
00001ab4 d1fa 1101000111111010 110100 bne.n 1aac ; PC + -8

00001ab6 2309 0010001100001001 001000 movs r3, #9  ; 0x09
00001ab8 6763 0110011101100011 011001 str  r3, [r4, #116] ; 0x74
00001aba 3303 0011001100000011 001100 adds r3, #3  ; 0x03
00001abc 67a3 0110011110100011 011001 str  r3, [r4, #120] ; 0x78
00001abe 3b0b 0011101100001011 001110 subs r3, #11  ; 0x0b
00001ac0 6423 0110010000100011 011001 str  r3, [r4, #64] ; 0x40
00001ac2 f7ff 1111011111111111 111101 (32-bit)
00001ac4 fa03 1111101000000011 111101 bl   ecc

00001ac6 4b2f 0100101100101111 010010 ldr  r3, [pc, #188] ; 0x00bc
00001ac8 4a2f 0100101000101111 010010 ldr  r2, [pc, #188] ; 0x00bc
00001aca 64e3 0110010011100011 011001 str  r3, [r4, #76] ; 0x4c
00001acc 4b2f 0100101100101111 010010 ldr  r3, [pc, #188] ; 0x00bc
00001ace 601a 0110000000011010 011000 str  r2, [r3, #0] ; 0x0
00001ad0 2320 0010001100100000 001000 movs r3, #32  ; 0x20
00001ad2 4a2f 0100101000101111 010010 ldr  r2, [pc, #188] ; 0x00bc
00001ad4 6013 0110000000010011 011000 str  r3, [r2, #0] ; 0x0
00001ad6 4a2f 0100101000101111 010010 ldr  r2, [pc, #188] ; 0x00bc
00001ad8 6013 0110000000010011 011000 str  r3, [r2, #0] ; 0x0
00001ada f7fe 1111011111111110 111101 (32-bit)
00001adc fbe5 1111101111100101 111101 bl   2a8

00001ade 46c0 0100011011000000 010001 nop  ; (mov  r8, r8)

00001ae0 e000 1110000000000000 111000 b.n  1ae4

00001ae2 4000 0100000000000000 010000 ands  r0, r0
00001ae4 c000 1100000000000000 110000 ASTM, STMIA, STME A6-157
00001ae6 4006 0100000000000110 010000 ands  r6, r0
00001ae8 0000 0000000000000000 000000 nop     ; movs r0, r0

00001aea 4006 0100000000000110 010000 ands  r6, r0
00001aec b000 1011000000000000 101100 add SP plus immediate
00001aee 00fa 0000000011111010 000000 lsls  r2, r7, #3
00001af0 8000 1000000000000000 100000 A5-82 1000 000
00001af2 4000 0100000000000000 010000 ands  r0, r0
00001af4 b030 1011000000110000 101100 add SP plus immediate
00001af6 4000 0100000000000000 010000 ands  r0, r0
00001af8 01ff 0000000111111111 000000 lsls  r7, r7, #7
00001afa 0000 0000000000000000 000000 nop     ; movs r0, r0

00001afc b03c 1011000000111100 101100 add SP plus immediate
00001afe 4000 0100000000000000 010000 ands  r0, r0
00001b00 4000 0100000000000000 010000 ands  r0, r0
00001b02 4002 0100000000000010 010000 ands  r2, r0
00001b04 8000 1000000000000000 100000 A5-82 1000 000
00001b06 4002 0100000000000010 010000 ands  r2, r0
00001b08 b004 1011000000000100 101100 add SP plus immediate
00001b0a 4002 0100000000000010 010000 ands  r2, r0
00001b0c a03c 1010000000111100 101000 add r0, pc, #240 ; #f0
00001b0e 4000 0100000000000000 010000 ands  r0, r0
00001b10 8000 1000000000000000 100000 A5-82 1000 000
00001b12 4005 0100000000000101 010000 ands  r5, r0
00001b14 a02c 1010000000101100 101000 add r0, pc, #176 ; #b0
00001b16 4005 0100000000000101 010000 ands  r5, r0
00001b18 3000 0011000000000000 001100 adds r0, #0  ; 0x00
00001b1a 1400 0001010000000000 000101 asr   r0, r0, #80
00001b1c 0000 0000000000000000 000000 nop     ; movs r0, r0

00001b1e 5010 0101000000010000 010100 str unimplemented form
00001b20 0f64 0000111101100100 000011 lsrs  r4, r4, #29
00001b22 5010 0101000000010000 010100 str unimplemented form
00001b24 0eb5 0000111010110101 000011 lsrs  r5, r6, #26
00001b26 5010 0101000000010000 010100 str unimplemented form
00001b28 0040 0000000001000000 000000 lsls  r0, r0, #1
00001b2a 4000 0100000000000000 010000 ands  r0, r0
00001b2c 0050 0000000001010000 000000 lsls  r0, r2, #1
00001b2e 0000 0000000000000000 000000 nop     ; movs r0, r0

00001b30 3e19 0011111000011001 001111 subs r6, #25  ; 0x19
00001b32 0000 0000000000000000 000000 nop     ; movs r0, r0

00001b34 0d1c 0000110100011100 000011 lsrs  r4, r3, #20
00001b36 5010 0101000000010000 010100 str unimplemented form
00001b38 0e18 0000111000011000 000011 lsrs  r0, r3, #24
00001b3a 5010 0101000000010000 010100 str unimplemented form
00001b3c 3ddc 0011110111011100 001111 subs r5, #220  ; 0xdc
00001b3e 0000 0000000000000000 000000 nop     ; movs r0, r0

00001b40 0fb5 0000111110110101 000011 lsrs  r5, r6, #30
00001b42 0000 0000000000000000 000000 nop     ; movs r0, r0

00001b44 0e50 0000111001010000 000011 lsrs  r0, r2, #25
00001b46 5010 0101000000010000 010100 str unimplemented form
00001b48 3f38 0011111100111000 001111 subs r7, #56  ; 0x38
00001b4a 0000 0000000000000000 000000 nop     ; movs r0, r0

00001b4c 0aa4 0000101010100100 000010 lsrs  r4, r4, #10
00001b4e 5010 0101000000010000 010100 str unimplemented form
00001b50 3dec 0011110111101100 001111 subs r5, #236  ; 0xec
00001b52 0000 0000000000000000 000000 nop     ; movs r0, r0

00001b54 0e58 0000111001011000 000011 lsrs  r0, r3, #25
00001b56 5010 0101000000010000 010100 str unimplemented form
00001b58 1729 0001011100101001 000101 asr   r1, r5, #92
00001b5a 0000 0000000000000000 000000 nop     ; movs r0, r0

00001b5c 3e64 0011111001100100 001111 subs r6, #100  ; 0x64
00001b5e 0000 0000000000000000 000000 nop     ; movs r0, r0

00001b60 09ec 0000100111101100 000010 lsrs  r4, r5, #7
00001b62 5010 0101000000010000 010100 str unimplemented form
00001b64 3e50 0011111001010000 001111 subs r6, #80  ; 0x50
00001b66 0000 0000000000000000 000000 nop     ; movs r0, r0

00001b68 0f68 0000111101101000 000011 lsrs  r0, r5, #29
00001b6a 5010 0101000000010000 010100 str unimplemented form
00001b6c 0b75 0000101101110101 000010 lsrs  r5, r6, #13
00001b6e 0000 0000000000000000 000000 nop     ; movs r0, r0

00001b70 0f94 0000111110010100 000011 lsrs  r4, r2, #30
00001b72 5010 0101000000010000 010100 str unimplemented form
00001b74 0a08 0000101000001000 000010 lsrs  r0, r1, #8
00001b76 5010 0101000000010000 010100 str unimplemented form
00001b78 170d 0001011100001101 000101 asr   r5, r1, #92
00001b7a 0000 0000000000000000 000000 nop     ; movs r0, r0

00001b7c 0000 0000000000000000 000000 nop     ; movs r0, r0

00001b7e 5011 0101000000010001 010100 str unimplemented form
00001b80 0084 0000000010000100 000000 lsls  r4, r0, #2
00001b82 5011 0101000000010001 010100 str unimplemented form
00001b84 0000 0000000000000000 000000 nop     ; movs r0, r0

00001b86 2001 0010000000000001 001000 movs r0, #1  ; 0x01
00001b88 13f0 0001001111110000 000100 asr   r0, r6, #79
00001b8a 0001 0000000000000001 000000 movs r1, r0
00001b8c 0090 0000000010010000 000000 lsls  r0, r2, #2
00001b8e 5011 0101000000010001 010100 str unimplemented form
00001b90 e280 1110001010000000 111000 b.n  2094

00001b92 e000 1110000000000000 111000 b.n  1b96

00001b94 e100 1110000100000000 111000 b.n  1d98

00001b96 e000 1110000000000000 111000 b.n  1b9a

00001b98 4b02 0100101100000010 010010 ldr  r3, [pc, #8] ; 0x0008
00001b9a b510 1011010100010000 101101 push {r4, lr}
00001b9c 68d8 0110100011011000 011010 ldr  r0, [r3, #12] ; 0xc
00001b9e 6919 0110100100011001 011010 ldr  r1, [r3, #16] ; 0x10
00001ba0 f7ff 1111011111111111 111101 (32-bit)
00001ba2 fe98 1111111010011000 111101 bl   18d4

00001ba4 8000 1000000000000000 100000 A5-82 1000 000
00001ba6 4005 0100000000000101 010000 ands  r5, r0
00001ba8 4b24 0100101100100100 010010 ldr  r3, [pc, #144] ; 0x0090
00001baa b5f7 1011010111110111 101101 push {r0, r1, r2, r4, r5, r6, r7, lr}
00001bac 681a 0110100000011010 011010 ldr  r2, [r3, #0] ; 0x0
00001bae 4b24 0100101100100100 010010 ldr  r3, [pc, #144] ; 0x0090
00001bb0 6884 0110100010000100 011010 ldr  r4, [r0, #8] ; 0x8
00001bb2 601a 0110000000011010 011000 str  r2, [r3, #0] ; 0x0
00001bb4 0002 0000000000000010 000000 movs r2, r0
00001bb6 69e5 0110100111100101 011010 ldr  r5, [r4, #28] ; 0x1c
00001bb8 3229 0011001000101001 001100 adds r2, #41  ; 0x29
00001bba 6963 0110100101100011 011010 ldr  r3, [r4, #20] ; 0x14
00001bbc 7812 0111100000010010 011110 ldrb r2, [r2, #0]
00001bbe 1e6e 0001111001101110 000111 subs  r6, r5, #1   ;0x1
00001bc0 401e 0100000000011110 010000 ands  r6, r3
00001bc2 9201 1001001000000001 100100 str r1, [sp, #8]
00001bc4 2a00 0010101000000000 001010 cmp r2, #0  ; 0x00
00001bc6 d015 1101000000010101 110100 beq.n 1bf4 ; PC + 46

00001bc8 2e00 0010111000000000 001011 cmp r6, #0  ; 0x00
00001bca d003 1101000000000011 110100 beq.n 1bd4 ; PC + 10

00001bcc 0020 0000000000100000 000000 movs r0, r4
00001bce f7ff 1111011111111111 111101 (32-bit)
00001bd0 f90d 1111100100001101 111101 bl   dec

00001bd2 bdf7 1011110111110111 101111 pop {r0, r1, r2, r4, r5, r6, r7, lr}
00001bd4 69a2 0110100110100010 011010 ldr  r2, [r4, #24] ; 0x18
00001bd6 1959 0001100101011001 000110 adds r1, r3, r5
00001bd8 4291 0100001010010001 010000 cmp  r1, r2
00001bda d900 1101100100000000 110110 bls.n 1bde ; PC + 4

00001bdc 1ad5 0001101011010101 000110 sub reg A6-165
00001bde 2d00 0010110100000000 001011 cmp r5, #0  ; 0x00
00001be0 d0f4 1101000011110100 110100 beq.n 1bcc ; PC + -20

00001be2 6aa3 0110101010100011 011010 ldr  r3, [r4, #40] ; 0x28
00001be4 4a17 0100101000010111 010010 ldr  r2, [pc, #92] ; 0x005c
00001be6 791b 0111100100011011 011110 ldrb r3, [r3, #4]
00001be8 0028 0000000000101000 000000 movs r0, r5
00001bea 5ad3 0101101011010011 010110 ldrh r3, [r2, r3]
00001bec 4798 0100011110011000 010001 blx  r3

00001bee 2800 0010100000000000 001010 cmp r0, #0  ; 0x00
00001bf0 d0ec 1101000011101100 110100 beq.n 1bcc ; PC + -36

00001bf2 e7ee 1110011111101110 111001 b.n  1bd2

00001bf4 f7fe 1111011111111110 111101 (32-bit)
00001bf6 fcd2 1111110011010010 111101 bl   59c

00001bf8 6961 0110100101100001 011010 ldr  r1, [r4, #20] ; 0x14
00001bfa 69a2 0110100110100010 011010 ldr  r2, [r4, #24] ; 0x18
00001bfc 3140 0011000101000000 001100 adds r1, #64  ; 0x40
00001bfe 0007 0000000000000111 000000 movs r7, r0
00001c00 69e3 0110100111100011 011010 ldr  r3, [r4, #28] ; 0x1c
00001c02 4291 0100001010010001 010000 cmp  r1, r2
00001c04 d312 1101001100010010 110100 bcc.n 1c2c ; PC + 40

00001c06 0015 0000000000010101 000000 movs r5, r2
00001c08 1e59 0001111001011001 000111 subs  r1, r3, #1   ;0x1
00001c0a 400d 0100000000001101 010000 ands  r5, r1
00001c0c 420a 0100001000001010 010000 tst  r2, r1
00001c0e d100 1101000100000000 110100 bne.n 1c12 ; PC + 4

00001c10 001d 0000000000011101 000000 movs r5, r3
00001c12 2e00 0010111000000000 001011 cmp r6, #0  ; 0x00
00001c14 d103 1101000100000011 110100 bne.n 1c1e ; PC + 10

00001c16 69e1 0110100111100001 011010 ldr  r1, [r4, #28] ; 0x1c
00001c18 6a20 0110101000100000 011010 ldr  r0, [r4, #32] ; 0x20
00001c1a f7ff 1111011111111111 111101 (32-bit)
00001c1c f993 1111100110010011 111101 bl   f44

00001c1e 6a23 0110101000100011 011010 ldr  r3, [r4, #32] ; 0x20
00001c20 793a 0111100100111010 011110 ldrb r2, [r7, #4]
00001c22 6839 0110100000111001 011010 ldr  r1, [r7, #0] ; 0x0
00001c24 1998 0001100110011000 000110 adds r0, r3, r6
00001c26 f000 1111000000000000 111100 (32-bit)
00001c28 fd0b 1111110100001011 111100 bl   2640

00001c2a e7d8 1110011111011000 111001 b.n  1bde

00001c2c 001d 0000000000011101 000000 movs r5, r3
00001c2e 0033 0000000000110011 000000 movs r3, r6
00001c30 3340 0011001101000000 001100 adds r3, #64  ; 0x40
00001c32 42ab 0100001010101011 010000 cmp  r3, r5
00001c34 d2ed 1101001011101101 110100 bcs.n 1c12 ; PC + -34

00001c36 9d01 1001110100000001 100111 A5-82 1001 110
00001c38 e7eb 1110011111101011 111001 b.n  1c12

00001c3a 46c0 0100011011000000 010001 nop  ; (mov  r8, r8)

00001c3c 0f64 0000111101100100 000011 lsrs  r4, r4, #29
00001c3e 5010 0101000000010000 010100 str unimplemented form
00001c40 0014 0000000000010100 000000 movs r4, r2
00001c42 d000 1101000000000000 110100 beq.n 1c46 ; PC + 4

00001c44 043c 0000010000111100 000001 lsls  r4, r7, #16
00001c46 0000 0000000000000000 000000 nop     ; movs r0, r0

00001c48 b5f8 1011010111111000 101101 push {r3, r4, r5, r6, r7, lr}
00001c4a 0006 0000000000000110 000000 movs r6, r0
00001c4c f7fe 1111011111111110 111101 (32-bit)
00001c4e fca6 1111110010100110 111101 bl   59c

00001c50 7903 0111100100000011 011110 ldrb r3, [r0, #4]
00001c52 2b1f 0010101100011111 001010 cmp r3, #31  ; 0x1f
00001c54 d000 1101000000000000 110100 beq.n 1c58 ; PC + 4

00001c56 e0a0 1110000010100000 111000 b.n  1d9a

00001c58 6805 0110100000000101 011010 ldr  r5, [r0, #0] ; 0x0
00001c5a 4b55 0100101101010101 010010 ldr  r3, [pc, #340] ; 0x0154
00001c5c 682a 0110100000101010 011010 ldr  r2, [r5, #0] ; 0x0
00001c5e 429a 0100001010011010 010000 cmp  r2, r3
00001c60 d000 1101000000000000 110100 beq.n 1c64 ; PC + 4

00001c62 e09a 1110000010011010 111000 b.n  1d9a

00001c64 7b6b 0111101101101011 011110 strb r3, [r5, #13]
00001c66 2b00 0010101100000000 001010 cmp r3, #0  ; 0x00
00001c68 d000 1101000000000000 110100 beq.n 1c6c ; PC + 4

00001c6a e096 1110000010010110 111000 b.n  1d9a

00001c6c 7b29 0111101100101001 011110 strb r1, [r5, #12]
00001c6e 337f 0011001101111111 001100 adds r3, #127  ; 0x7f
00001c70 000a 0000000000001010 000000 movs r2, r1
00001c72 401a 0100000000011010 010000 ands  r2, r3
00001c74 4219 0100001000011001 010000 tst  r1, r3
00001c76 d000 1101000000000000 110100 beq.n 1c7a ; PC + 4

00001c78 e08f 1110000010001111 111000 b.n  1d9a

00001c7a 7bab 0111101110101011 011110 strb r3, [r5, #14]
00001c7c 3b01 0011101100000001 001110 subs r3, #1  ; 0x01
00001c7e 2b0f 0010101100001111 001010 cmp r3, #15  ; 0x0f
00001c80 d900 1101100100000000 110110 bls.n 1c84 ; PC + 4

00001c82 e08a 1110000010001010 111000 b.n  1d9a

00001c84 4c4b 0100110001001011 010011 ldr  r4, [pc, #300] ; 0x012c
00001c86 4b4c 0100101101001100 010010 ldr  r3, [pc, #304] ; 0x0130
00001c88 6023 0110000000100011 011000 str  r3, [r4, #0] ; 0x0
00001c8a 686b 0110100001101011 011010 ldr  r3, [r5, #4] ; 0x4
00001c8c 6063 0110000001100011 011000 str  r3, [r4, #4] ; 0x4
00001c8e 68ab 0110100010101011 011010 ldr  r3, [r5, #8] ; 0x8
00001c90 60a3 0110000010100011 011000 str  r3, [r4, #8] ; 0x8
00001c92 7beb 0111101111101011 011110 strb r3, [r5, #15]
00001c94 2b03 0010101100000011 001010 cmp r3, #3  ; 0x03
00001c96 d002 1101000000000010 110100 beq.n 1c9e ; PC + 8

00001c98 73e2 0111001111100010 011100 strb r2, [r4, #15]
00001c9a 7662 0111011001100010 011101 strb r2, [r4, #25]
00001c9c 76a2 0111011010100010 011101 strb r2, [r4, #26]
00001c9e 2700 0010011100000000 001001 movs r7, #0  ; 0x00
00001ca0 7327 0111001100100111 011100 strb r7, [r4, #12]
00001ca2 2b23 0010101100100011 001010 cmp r3, #35  ; 0x23
00001ca4 d047 1101000001000111 110100 beq.n 1c36 ; PC + -110

00001ca6 d818 1101100000011000 110110 bhi.n 1cda ; PC + 52

00001ca8 2b1a 0010101100011010 001010 cmp r3, #26  ; 0x1a
00001caa d03b 1101000000111011 110100 beq.n 1d24 ; PC + 122

00001cac d80d 1101100000001101 110110 bhi.n 1cca ; PC + 30

00001cae 2b03 0010101100000011 001010 cmp r3, #3  ; 0x03
00001cb0 d051 1101000001010001 110100 beq.n 1c56 ; PC + -90

00001cb2 2b12 0010101100010010 001010 cmp r3, #18  ; 0x12
00001cb4 d025 1101000000100101 110100 beq.n 1d02 ; PC + 78

00001cb6 42bb 0100001010111011 010000 cmp  r3, r7
00001cb8 d05a 1101000001011010 110100 beq.n 1c70 ; PC + -72

00001cba 2301 0010001100000001 001000 movs r3, #1  ; 0x01
00001cbc 7323 0111001100100011 011100 strb r3, [r4, #12]
00001cbe 3304 0011001100000100 001100 adds r3, #4  ; 0x04
00001cc0 73e3 0111001111100011 011100 strb r3, [r4, #15]
00001cc2 331b 0011001100011011 001100 adds r3, #27  ; 0x1b
00001cc4 7663 0111011001100011 011101 strb r3, [r4, #25]
00001cc6 2300 0010001100000000 001000 movs r3, #0  ; 0x00
00001cc8 e05c 1110000001011100 111000 b.n  1d84

00001cca 2b1b 0010101100011011 001010 cmp r3, #27  ; 0x1b
00001ccc d05c 1101000001011100 110100 beq.n 1c88 ; PC + -68

00001cce 2b1e 0010101100011110 001010 cmp r3, #30  ; 0x1e
00001cd0 d1f3 1101000111110011 110100 bne.n 1cba ; PC + -22

00001cd2 0028 0000000000101000 000000 movs r0, r5
00001cd4 f7ff 1111011111111111 111101 (32-bit)
00001cd6 fc98 1111110010011000 111101 bl   1608

00001cd8 e00a 1110000000001010 111000 b.n  1cf0

00001cda 2b2a 0010101100101010 001010 cmp r3, #42  ; 0x2a
00001cdc d029 1101000000101001 110100 beq.n 1d32 ; PC + 86

00001cde d80b 1101100000001011 110110 bhi.n 1cf8 ; PC + 26

00001ce0 2b25 0010101100100101 001010 cmp r3, #37  ; 0x25
00001ce2 d031 1101000000110001 110100 beq.n 1d48 ; PC + 102

00001ce4 2101 0010000100000001 001000 movs r1, #1  ; 0x01
00001ce6 2b28 0010101100101000 001010 cmp r3, #40  ; 0x28
00001ce8 d1e7 1101000111100111 110100 bne.n 1cba ; PC + -46

00001cea 0028 0000000000101000 000000 movs r0, r5
00001cec f7ff 1111011111111111 111101 (32-bit)
00001cee fc08 1111110000001000 111101 bl   1500

00001cf0 0030 0000000000110000 000000 movs r0, r6
00001cf2 f7fe 1111011111111110 111101 (32-bit)
00001cf4 fdd5 1111110111010101 111101 bl   8a0

00001cf6 bdf8 1011110111111000 101111 pop {r3, r4, r5, r6, r7, lr}
00001cf8 2b2f 0010101100101111 001010 cmp r3, #47  ; 0x2f
00001cfa d0ea 1101000011101010 110100 beq.n 1cd2 ; PC + -40

00001cfc 2b35 0010101100110101 001010 cmp r3, #53  ; 0x35
00001cfe d0e8 1101000011101000 110100 beq.n 1cd2 ; PC + -44

00001d00 e7db 1110011111011011 111001 b.n  1cba

00001d02 2124 0010000100100100 001000 movs r1, #36  ; 0x24
00001d04 482d 0100100000101101 010010 ldr  r0, [pc, #180] ; 0x00b4
00001d06 f7ff 1111011111111111 111101 (32-bit)
00001d08 fb7d 1111101101111101 111101 bl   1404

00001d0a 2119 0010000100011001 001000 movs r1, #25  ; 0x19
00001d0c 0004 0000000000000100 000000 movs r4, r0
00001d0e 482c 0100100000101100 010010 ldr  r0, [pc, #176] ; 0x00b0
00001d10 0022 0000000000100010 000000 movs r2, r4
00001d12 1840 0001100001000000 000110 adds r0, r0, r1
00001d14 f000 1111000000000000 111100 (32-bit)
00001d16 fc75 1111110001110101 111100 bl   2602

00001d18 2380 0010001110000000 001000 movs r3, #128  ; 0x80
00001d1a 7063 0111000001100011 011100 ldrb r3, [r4, #1]
00001d1c 0028 0000000000101000 000000 movs r0, r5
00001d1e f7ff 1111011111111111 111101 (32-bit)
00001d20 fc51 1111110001010001 111101 bl   15c4

00001d22 e7e5 1110011111100101 111001 b.n  1cf0

00001d24 2104 0010000100000100 001000 movs r1, #4  ; 0x04
00001d26 4825 0100100000100101 010010 ldr  r0, [pc, #148] ; 0x0094
00001d28 f7ff 1111011111111111 111101 (32-bit)
00001d2a fb6c 1111101101101100 111101 bl   1404

00001d2c 2303 0010001100000011 001000 movs r3, #3  ; 0x03
00001d2e 6003 0110000000000011 011000 str  r3, [r0, #0] ; 0x0
00001d30 e7f4 1110011111110100 111001 b.n  1d1c

00001d32 2102 0010000100000010 001000 movs r1, #2  ; 0x02
00001d34 e7d9 1110011111011001 111001 b.n  1cea

00001d36 210c 0010000100001100 001000 movs r1, #12  ; 0x0c
00001d38 4820 0100100000100000 010010 ldr  r0, [pc, #128] ; 0x0080
00001d3a f7ff 1111011111111111 111101 (32-bit)
00001d3c fb63 1111101101100011 111101 bl   1404

00001d3e 220c 0010001000001100 001000 movs r2, #12  ; 0x0c
00001d40 4920 0100100100100000 010010 ldr  r1, [pc, #128] ; 0x0080
00001d42 f000 1111000000000000 111100 (32-bit)
00001d44 fc7d 1111110001111101 111100 bl   2640

00001d46 e7e9 1110011111101001 111001 b.n  1d1c

00001d48 2108 0010000100001000 001000 movs r1, #8  ; 0x08
00001d4a 481c 0100100000011100 010010 ldr  r0, [pc, #112] ; 0x0070
00001d4c f7ff 1111011111111111 111101 (32-bit)
00001d4e fb5a 1111101101011010 111101 bl   1404

00001d50 2208 0010001000001000 001000 movs r2, #8  ; 0x08
00001d52 491d 0100100100011101 010010 ldr  r1, [pc, #116] ; 0x0074
00001d54 e7f5 1110011111110101 111001 b.n  1d42

00001d56 2112 0010000100010010 001000 movs r1, #18  ; 0x12
00001d58 4818 0100100000011000 010010 ldr  r0, [pc, #96] ; 0x0060
00001d5a f7ff 1111011111111111 111101 (32-bit)
00001d5c fb53 1111101101010011 111101 bl   1404

00001d5e 0021 0000000000100001 000000 movs r1, r4
00001d60 2212 0010001000010010 001000 movs r2, #18  ; 0x12
00001d62 310d 0011000100001101 001100 adds r1, #13  ; 0x0d
00001d64 f000 1111000000000000 111100 (32-bit)
00001d66 fc6c 1111110001101100 111100 bl   2640

00001d68 73e7 0111001111100111 011100 strb r7, [r4, #15]
00001d6a 7667 0111011001100111 011101 strb r7, [r4, #25]
00001d6c 76a7 0111011010100111 011101 strb r7, [r4, #26]
00001d6e e7d5 1110011111010101 111001 b.n  1d1c

00001d70 1de2 0001110111100010 000111 adds r2, r4, #7   ;0x7
00001d72 7fd2 0111111111010010 011111 strb r2, [r2, #31]
00001d74 2a00 0010101000000000 001010 cmp r2, #0  ; 0x00
00001d76 d0ac 1101000010101100 110100 beq.n 1dd2 ; PC + 92

00001d78 2201 0010001000000001 001000 movs r2, #1  ; 0x01
00001d7a 7322 0111001100100010 011100 strb r2, [r4, #12]
00001d7c 1892 0001100010010010 000110 adds r2, r2, r2
00001d7e 73e2 0111001111100010 011100 strb r2, [r4, #15]
00001d80 3238 0011001000111000 001100 adds r2, #56  ; 0x38
00001d82 7662 0111011001100010 011101 strb r2, [r4, #25]
00001d84 76a3 0111011010100011 011101 strb r3, [r4, #26]
00001d86 e7a4 1110011110100100 111001 b.n  1cd2

00001d88 2203 0010001000000011 001000 movs r2, #3  ; 0x03
00001d8a 7ceb 0111110011101011 011111 ldrb r3, [r5, #19]
00001d8c 4013 0100000000010011 010000 ands  r3, r2
00001d8e 2b02 0010101100000010 001010 cmp r3, #2  ; 0x02
00001d90 d19f 1101000110011111 110100 bne.n 1dd2 ; PC + 66

00001d92 3407 0011010000000111 001101 adds r4, #7  ; 0x07
00001d94 3b01 0011101100000001 001110 subs r3, #1  ; 0x01
00001d96 77e3 0111011111100011 011101 strb r3, [r4, #31]
00001d98 e79b 1110011110011011 111001 b.n  1cd2

00001d9a 4c08 0100110000001000 010011 ldr  r4, [pc, #32] ; 0x0020
00001d9c 2103 0010000100000011 001000 movs r1, #3  ; 0x03
00001d9e 0020 0000000000100000 000000 movs r0, r4
00001da0 f7fe 1111011111111110 111101 (32-bit)
00001da2 fd1c 1111110100011100 111101 bl   7dc

00001da4 0020 0000000000100000 000000 movs r0, r4
00001da6 2103 0010000100000011 001000 movs r1, #3  ; 0x03
00001da8 302c 0011000000101100 001100 adds r0, #44  ; 0x2c
00001daa f7fe 1111011111111110 111101 (32-bit)
00001dac fd17 1111110100010111 111101 bl   7dc

00001dae e79f 1110011110011111 111001 b.n  1cf0

00001db0 5355 0101001101010101 010100 strh r5, [r2, r5]
00001db2 4342 0100001101000010 010000 muls  r2, r0
00001db4 0a7c 0000101001111100 000010 lsrs  r4, r7, #9
00001db6 5010 0101000000010000 010100 str unimplemented form
00001db8 5355 0101001101010101 010100 strh r5, [r2, r5]
00001dba 5342 0101001101000010 010100 strh r2, [r0, r5]
00001dbc 0dc0 0000110111000000 000011 lsrs  r0, r0, #23
00001dbe 5010 0101000000010000 010100 str unimplemented form
00001dc0 3f40 0011111101000000 001111 subs r7, #64  ; 0x40
00001dc2 0000 0000000000000000 000000 nop     ; movs r0, r0

00001dc4 3e0b 0011111000001011 001111 subs r6, #11  ; 0x0b
00001dc6 0000 0000000000000000 000000 nop     ; movs r0, r0

00001dc8 3e03 0011111000000011 001111 subs r6, #3  ; 0x03
00001dca 0000 0000000000000000 000000 nop     ; movs r0, r0

00001dcc b510 1011010100010000 101101 push {r4, lr}
00001dce 4b09 0100101100001001 010010 ldr  r3, [pc, #36] ; 0x0024
00001dd0 4c09 0100110000001001 010011 ldr  r4, [pc, #36] ; 0x0024
00001dd2 6a5a 0110101001011010 011010 ldr  r2, [r3, #36] ; 0x24
00001dd4 3229 0011001000101001 001100 adds r2, #41  ; 0x29
00001dd6 7812 0111100000010010 011110 ldrb r2, [r2, #0]
00001dd8 2a00 0010101000000000 001010 cmp r2, #0  ; 0x00
00001dda d100 1101000100000000 110100 bne.n 1dde ; PC + 4

00001ddc 4c07 0100110000000111 010011 ldr  r4, [pc, #28] ; 0x001c
00001dde 4a08 0100101000001000 010010 ldr  r2, [pc, #32] ; 0x0020
00001de0 6811 0110100000010001 011010 ldr  r1, [r2, #0] ; 0x0
00001de2 1c48 0001110001001000 000111 adds r0, r1, #1   ;0x1
00001de4 6ad9 0110101011011001 011010 ldr  r1, [r3, #44] ; 0x2c
00001de6 6010 0110000000010000 011000 str  r0, [r2, #0] ; 0x0
00001de8 1c4a 0001110001001010 000111 adds r2, r1, #1   ;0x1
00001dea 62da 0110001011011010 011000 str  r2, [r3, #44] ; 0x2c imm5
00001dec 4a05 0100101000000101 010010 ldr  r2, [pc, #20] ; 0x0014
00001dee 47a0 0100011110100000 010001 blx  r4

00001df0 bd10 1011110100010000 101111 pop {r4, lr}
00001df2 46c0 0100011011000000 010001 nop  ; (mov  r8, r8)

00001df4 0a4c 0000101001001100 000010 lsrs  r4, r1, #9
00001df6 5010 0101000000010000 010100 str unimplemented form
00001df8 1031 0001000000110001 000100 asr   r1, r6, #64
00001dfa 0000 0000000000000000 000000 nop     ; movs r0, r0

00001dfc 11b9 0001000110111001 000100 asr   r1, r7, #70
00001dfe 0000 0000000000000000 000000 nop     ; movs r0, r0

00001e00 0a20 0000101000100000 000010 lsrs  r0, r4, #8
00001e02 5010 0101000000010000 010100 str unimplemented form
00001e04 0b1c 0000101100011100 000010 lsrs  r4, r3, #12
00001e06 5010 0101000000010000 010100 str unimplemented form
00001e08 b5f7 1011010111110111 101101 push {r0, r1, r2, r4, r5, r6, r7, lr}
00001e0a 4baa 0100101110101010 010010 ldr  r3, [pc, #680] ; 0x02a8
00001e0c 681b 0110100000011011 011010 ldr  r3, [r3, #0] ; 0x0
00001e0e 9301 1001001100000001 100100 str r1, [sp, #12]
00001e10 03db 0000001111011011 000000 lsls  r3, r3, #15
00001e12 d400 1101010000000000 110101 bmi.n 1e16 ; PC + 4

00001e14 e088 1110000010001000 111000 b.n  1f28

00001e16 f3bf 1111001110111111 111100 (32-bit)
00001e18 8f5f 1000111101011111 111100 To be implemented

00001e1a 4fa7 0100111110100111 010011 ldr  r7, [pc, #668] ; 0x029c
00001e1c 2100 0010000100000000 001000 movs r1, #0  ; 0x00
00001e1e 0038 0000000000111000 000000 movs r0, r7
00001e20 2401 0010010000000001 001001 movs r4, #1  ; 0x01
00001e22 f7fe 1111011111111110 111101 (32-bit)
00001e24 fdc3 1111110111000011 111101 bl   9ac

00001e26 4ea5 0100111010100101 010011 ldr  r6, [pc, #660] ; 0x0294
00001e28 2100 0010000100000000 001000 movs r1, #0  ; 0x00
00001e2a 0030 0000000000110000 000000 movs r0, r6
00001e2c f7fe 1111011111111110 111101 (32-bit)
00001e2e fdbe 1111110110111110 111101 bl   9ac

00001e30 211f 0010000100011111 001000 movs r1, #31  ; 0x1f
00001e32 1cb3 0001110010110011 000111 adds r3, r6, #2   ;0x2
00001e34 77dc 0111011111011100 011101 strb r4, [r3, #31]
00001e36 4aa2 0100101010100010 010010 ldr  r2, [pc, #648] ; 0x0288
00001e38 1cbb 0001110010111011 000111 adds r3, r7, #2   ;0x2
00001e3a 77dc 0111011111011100 011101 strb r4, [r3, #31]
00001e3c 7813 0111100000010011 011110 ldrb r3, [r2, #0]
00001e3e 0015 0000000000010101 000000 movs r5, r2
00001e40 4019 0100000000011001 010000 ands  r1, r3
00001e42 42a1 0100001010100001 010000 cmp  r1, r4
00001e44 d100 1101000100000000 110100 bne.n 1e48 ; PC + 4

00001e46 e0a2 1110000010100010 111000 b.n  1f8e

00001e48 2902 0010100100000010 001010 cmp r1, #2  ; 0x02
00001e4a d100 1101000100000000 110100 bne.n 1e4e ; PC + 4

00001e4c e0ca 1110000011001010 111000 b.n  1fe4

00001e4e 2900 0010100100000000 001010 cmp r1, #0  ; 0x00
00001e50 d157 1101000101010111 110100 bne.n 1e02 ; PC + -78

00001e52 3160 0011000101100000 001100 adds r1, #96  ; 0x60
00001e54 420b 0100001000001011 010000 tst  r3, r1
00001e56 d154 1101000101010100 110100 bne.n 1e02 ; PC + -84

00001e58 b25b 1011001001011011 101100 sxtb ; a6-168
00001e5a 2b00 0010101100000000 001010 cmp r3, #0  ; 0x00
00001e5c da4c 1101101001001100 110110 bge.n 1df8 ; PC + -100

00001e5e 0038 0000000000111000 000000 movs r0, r7
00001e60 f7fe 1111011111111110 111101 (32-bit)
00001e62 fb9c 1111101110011100 111101 bl   59c

00001e64 786b 0111100001101011 011110 ldrb r3, [r5, #1]
00001e66 0007 0000000000000111 000000 movs r7, r0
00001e68 6806 0110100000000110 011010 ldr  r6, [r0, #0] ; 0x0
00001e6a 2b06 0010101100000110 001010 cmp r3, #6  ; 0x06
00001e6c d00d 1101000000001101 110100 beq.n 1e8a ; PC + 30

00001e6e 2b08 0010101100001000 001010 cmp r3, #8  ; 0x08
00001e70 d03e 1101000000111110 110100 beq.n 1ef0 ; PC + 128

00001e72 2b00 0010101100000000 001010 cmp r3, #0  ; 0x00
00001e74 d145 1101000101000101 110100 bne.n 1e02 ; PC + -114

00001e76 8033 1000000000110011 100000 A5-82 1000 000
00001e78 1924 0001100100100100 000110 adds r4, r4, r4
00001e7a 88eb 1000100011101011 100010 A5-82 1000 100
00001e7c 42a3 0100001010100011 010000 cmp  r3, r4
00001e7e dd00 1101110100000000 110111 ble.n 1e82 ; PC + 4

00001e80 0023 0000000000100011 000000 movs r3, r4
00001e82 713b 0111000100111011 011100 ldrb r3, [r7, #4]
00001e84 f7fe 1111011111111110 111101 (32-bit)
00001e86 fc76 1111110001110110 111101 bl   774

00001e88 e04a 1110000001001010 111000 b.n  1f20

00001e8a 8868 1000100001101000 100010 A5-82 1000 100
00001e8c 0a03 0000101000000011 000010 lsrs  r3, r0, #8
00001e8e 2b02 0010101100000010 001010 cmp r3, #2  ; 0x02
00001e90 d00d 1101000000001101 110100 beq.n 1eae ; PC + 30

00001e92 2b03 0010101100000011 001010 cmp r3, #3  ; 0x03
00001e94 d016 1101000000010110 110100 beq.n 1ec4 ; PC + 48

00001e96 2b01 0010101100000001 001010 cmp r3, #1  ; 0x01
00001e98 d133 1101000100110011 110100 bne.n 1f02 ; PC + 106

00001e9a 4b8a 0100101110001010 010010 ldr  r3, [pc, #552] ; 0x0228
00001e9c 2412 0010010000010010 001001 movs r4, #18  ; 0x12
00001e9e 6819 0110100000011001 011010 ldr  r1, [r3, #0] ; 0x0
00001ea0 2900 0010100100000000 001010 cmp r1, #0  ; 0x00
00001ea2 d0ea 1101000011101010 110100 beq.n 1e7a ; PC + -40

00001ea4 0022 0000000000100010 000000 movs r2, r4
00001ea6 0030 0000000000110000 000000 movs r0, r6
00001ea8 f000 1111000000000000 111100 (32-bit)
00001eaa fbca 1111101111001010 111100 bl   2640

00001eac e7e5 1110011111100101 111001 b.n  1e7a

00001eae b2c0 1011001011000000 101100 uxtb ; a6-172
00001eb0 2800 0010100000000000 001010 cmp r0, #0  ; 0x00
00001eb2 d126 1101000100100110 110100 bne.n 1f02 ; PC + 80

00001eb4 4b83 0100101110000011 010010 ldr  r3, [pc, #524] ; 0x020c
00001eb6 68d9 0110100011011001 011010 ldr  r1, [r3, #12] ; 0xc
00001eb8 78cc 0111100011001100 011110 ldrb r4, [r1, #3]
00001eba 788b 0111100010001011 011110 ldrb r3, [r1, #2]
00001ebc 0224 0000001000100100 000000 lsls  r4, r4, #8
00001ebe 431c 0100001100011100 010000 orr  r4, r3
00001ec0 d0db 1101000011011011 110100 beq.n 1e7a ; PC + -70

00001ec2 e7ef 1110011111101111 111001 b.n  1ea4

00001ec4 b2c0 1011001011000000 101100 uxtb ; a6-172
00001ec6 2800 0010100000000000 001010 cmp r0, #0  ; 0x00
00001ec8 d00f 1101000000001111 110100 beq.n 1eea ; PC + 34

00001eca 4b7e 0100101101111110 010010 ldr  r3, [pc, #504] ; 0x01f8
00001ecc 2402 0010010000000010 001001 movs r4, #2  ; 0x02
00001ece 689b 0110100010011011 011010 ldr  r3, [r3, #8] ; 0x8
00001ed0 4798 0100011110011000 010001 blx  r3

00001ed2 3001 0011000000000001 001100 adds r0, #1  ; 0x01
00001ed4 1e43 0001111001000011 000111 subs  r3, r0, #1   ;0x1
00001ed6 781b 0111100000011011 011110 ldrb r3, [r3, #0]
00001ed8 2b00 0010101100000000 001010 cmp r3, #0  ; 0x00
00001eda d103 1101000100000011 110100 bne.n 1ee4 ; PC + 10

00001edc 3303 0011001100000011 001100 adds r3, #3  ; 0x03
00001ede 7034 0111000000110100 011100 ldrb r4, [r6, #0]
00001ee0 7073 0111000001110011 011100 ldrb r3, [r6, #1]
00001ee2 e7ca 1110011111001010 111001 b.n  1e7a

00001ee4 5333 0101001100110011 010100 strh r3, [r6, r4]
00001ee6 3402 0011010000000010 001101 adds r4, #2  ; 0x02
00001ee8 e7f3 1110011111110011 111001 b.n  1ed2

00001eea 2404 0010010000000100 001001 movs r4, #4  ; 0x04
00001eec 4976 0100100101110110 010010 ldr  r1, [pc, #472] ; 0x01d8
00001eee e7d9 1110011111011001 111001 b.n  1ea4

00001ef0 4b74 0100101101110100 010010 ldr  r3, [pc, #464] ; 0x01d0
00001ef2 7d5b 0111110101011011 011111 ldrb r3, [r3, #21]
00001ef4 7033 0111000000110011 011100 ldrb r3, [r6, #0]
00001ef6 e7c0 1110011111000000 111001 b.n  1e7a

00001ef8 7853 0111100001010011 011110 ldrb r3, [r2, #1]
00001efa 2b05 0010101100000101 001010 cmp r3, #5  ; 0x05
00001efc d004 1101000000000100 110100 beq.n 1f08 ; PC + 12

00001efe 2b09 0010101100001001 001010 cmp r3, #9  ; 0x09
00001f00 d038 1101000000111000 110100 beq.n 1f74 ; PC + 116

00001f02 f7fe 1111011111111110 111101 (32-bit)
00001f04 fd3d 1111110100111101 111101 bl   980

00001f06 e00b 1110000000001011 111000 b.n  1f20

00001f08 2302 0010001100000010 001000 movs r3, #2  ; 0x02
00001f0a 56d3 0101011011010011 010101 ldrsb r3, [r2, r3]
00001f0c 8851 1000100001010001 100010 A5-82 1000 100
00001f0e 2b00 0010101100000000 001010 cmp r3, #0  ; 0x00
00001f10 ddf7 1101110111110111 110111 ble.n 1f02 ; PC + -14

00001f12 4b6c 0100101101101100 010010 ldr  r3, [pc, #432] ; 0x01b0
00001f14 0038 0000000000111000 000000 movs r0, r7
00001f16 7599 0111010110011001 011101 ldrb r1, [r3, #22]
00001f18 4a6c 0100101001101100 010010 ldr  r2, [pc, #432] ; 0x01b0
00001f1a 496d 0100100101101101 010010 ldr  r1, [pc, #436] ; 0x01b4
00001f1c f7fe 1111011111111110 111101 (32-bit)
00001f1e fbfc 1111101111111100 111101 bl   718

00001f20 2280 0010001010000000 001000 movs r2, #128  ; 0x80
00001f22 4b6c 0100101101101100 010010 ldr  r3, [pc, #432] ; 0x01b0
00001f24 0292 0000001010010010 000000 lsls  r2, r2, #10
00001f26 651a 0110010100011010 011001 str  r2, [r3, #80] ; 0x50
00001f28 9b01 1001101100000001 100110 A5-82 1001 101
00001f2a 06db 0000011011011011 000001 lsls  r3, r3, #27
00001f2c d50a 1101010100001010 110101 bpl.n 1f44 ; PC + 24

00001f2e 2600 0010011000000000 001001 movs r6, #0  ; 0x00
00001f30 2401 0010010000000001 001001 movs r4, #1  ; 0x01
00001f32 4f69 0100111101101001 010011 ldr  r7, [pc, #420] ; 0x01a4
00001f34 6dbd 0110110110111101 011011 ldr  r5, [r7, #88] ; 0x58
00001f36 2d00 0010110100000000 001011 cmp r5, #0  ; 0x00
00001f38 d004 1101000000000100 110100 beq.n 1f44 ; PC + 12

00001f3a 2e0a 0010111000001010 001011 cmp r6, #10  ; 0x0a
00001f3c d000 1101000000000000 110100 beq.n 1f40 ; PC + 4

00001f3e e082 1110000010000010 111000 b.n  2046

00001f40 4b64 0100101101100100 010010 ldr  r3, [pc, #400] ; 0x0190
00001f42 659d 0110010110011101 011001 str  r5, [r3, #88] ; 0x58
00001f44 9b01 1001101100000001 100110 A5-82 1001 101
00001f46 04db 0000010011011011 000001 lsls  r3, r3, #19
00001f48 d505 1101010100000101 110101 bpl.n 1f56 ; PC + 14

00001f4a f7fe 1111011111111110 111101 (32-bit)
00001f4c ffbf 1111111110111111 111101 bl   ecc

00001f4e 2280 0010001010000000 001000 movs r2, #128  ; 0x80
00001f50 4b60 0100101101100000 010010 ldr  r3, [pc, #384] ; 0x0180
00001f52 0312 0000001100010010 000000 lsls  r2, r2, #12
00001f54 651a 0110010100011010 011001 str  r2, [r3, #80] ; 0x50
00001f56 23f8 0010001111111000 001000 movs r3, #248  ; 0xf8
00001f58 9a01 1001101000000001 100110 A5-82 1001 101
00001f5a 009b 0000000010011011 000000 lsls  r3, r3, #2
00001f5c 421a 0100001000011010 010000 tst  r2, r3
00001f5e d008 1101000000001000 110100 beq.n 1f72 ; PC + 20

00001f60 4b5d 0100101101011101 010010 ldr  r3, [pc, #372] ; 0x0174
00001f62 6d1b 0110110100011011 011011 ldr  r3, [r3, #80] ; 0x50
00001f64 2b00 0010101100000000 001010 cmp r3, #0  ; 0x00
00001f66 db00 1101101100000000 110110 blt.n 1f6a ; PC + 4

00001f68 e07e 1110000001111110 111000 b.n  2068

00001f6a 2280 0010001010000000 001000 movs r2, #128  ; 0x80
00001f6c 4b59 0100101101011001 010010 ldr  r3, [pc, #356] ; 0x0164
00001f6e 0612 0000011000010010 000001 lsls  r2, r2, #24
00001f70 651a 0110010100011010 011001 str  r2, [r3, #80] ; 0x50
00001f72 bdf7 1011110111110111 101111 pop {r0, r1, r2, r4, r5, r6, r7, lr}
00001f74 7890 0111100010010000 011110 ldrb r0, [r2, #2]
00001f76 2800 0010100000000000 001010 cmp r0, #0  ; 0x00
00001f78 d004 1101000000000100 110100 beq.n 1f84 ; PC + 12

00001f7a 4b52 0100101101010010 010010 ldr  r3, [pc, #328] ; 0x0148
00001f7c 68db 0110100011011011 011010 ldr  r3, [r3, #12] ; 0xc
00001f7e 795b 0111100101011011 011110 ldrb r3, [r3, #5]
00001f80 4283 0100001010000011 010000 cmp  r3, r0
00001f82 d1be 1101000110111110 110100 bne.n 2002 ; PC + 128

00001f84 f7fe 1111011111111110 111101 (32-bit)
00001f86 ff86 1111111110000110 111101 bl   e94

00001f88 f7fe 1111011111111110 111101 (32-bit)
00001f8a fbdc 1111101111011100 111101 bl   744

00001f8c e7c8 1110011111001000 111001 b.n  1f20

00001f8e 8893 1000100010010011 100010 A5-82 1000 100
00001f90 4a4c 0100101001001100 010010 ldr  r2, [pc, #304] ; 0x0130
00001f92 7d51 0111110101010001 011111 ldrb r1, [r2, #21]
00001f94 2900 0010100100000000 001010 cmp r1, #0  ; 0x00
00001f96 d0b4 1101000010110100 110100 beq.n 2002 ; PC + 108

00001f98 21fe 0010000111111110 001000 movs r1, #254  ; 0xfe
00001f9a 420b 0100001000001011 010000 tst  r3, r1
00001f9c d1b1 1101000110110001 110100 bne.n 2002 ; PC + 102

00001f9e 6912 0110100100010010 011010 ldr  r2, [r2, #16] ; 0x10
00001fa0 b2db 1011001011011011 101100 uxtb ; a6-172
00001fa2 009b 0000000010011011 000000 lsls  r3, r3, #2
00001fa4 5898 0101100010011000 010110 ldr r0, [r3, r2]
00001fa6 2800 0010100000000000 001010 cmp r0, #0  ; 0x00
00001fa8 d0ab 1101000010101011 110100 beq.n 2002 ; PC + 90

00001faa 6843 0110100001000011 011010 ldr  r3, [r0, #4] ; 0x4
00001fac 2b00 0010101100000000 001010 cmp r3, #0  ; 0x00
00001fae d114 1101000100010100 110100 bne.n 1fda ; PC + 44

00001fb0 2260 0010001001100000 001000 movs r2, #96  ; 0x60
00001fb2 782b 0111100000101011 011110 ldrb r3, [r5, #0]
00001fb4 4213 0100001000010011 010000 tst  r3, r2
00001fb6 d1a4 1101000110100100 110100 bne.n 2002 ; PC + 76

00001fb8 88aa 1000100010101010 100010 A5-82 1000 100
00001fba 0a12 0000101000010010 000010 lsrs  r2, r2, #8
00001fbc d1a1 1101000110100001 110100 bne.n 2002 ; PC + 70

00001fbe b25b 1011001001011011 101100 sxtb ; a6-168
00001fc0 2b00 0010101100000000 001010 cmp r3, #0  ; 0x00
00001fc2 da9e 1101101010011110 110110 bge.n 2002 ; PC + 64

00001fc4 786c 0111100001101100 011110 ldrb r4, [r5, #1]
00001fc6 2c00 0010110000000000 001011 cmp r4, #0  ; 0x00
00001fc8 d19b 1101000110011011 110100 bne.n 2002 ; PC + 58

00001fca 0038 0000000000111000 000000 movs r0, r7
00001fcc f7fe 1111011111111110 111101 (32-bit)
00001fce fae6 1111101011100110 111101 bl   59c

00001fd0 6803 0110100000000011 011010 ldr  r3, [r0, #0] ; 0x0
00001fd2 601c 0110000000011100 011000 str  r4, [r3, #0] ; 0x0
00001fd4 2302 0010001100000010 001000 movs r3, #2  ; 0x02
00001fd6 7103 0111000100000011 011100 ldrb r3, [r0, #4]
00001fd8 e754 1110011101010100 111001 b.n  1e84

00001fda 0029 0000000000101001 000000 movs r1, r5
00001fdc 4798 0100011110011000 010001 blx  r3

00001fde 2800 0010100000000000 001010 cmp r0, #0  ; 0x00
00001fe0 d19e 1101000110011110 110100 bne.n 2020 ; PC + 64

00001fe2 e7e5 1110011111100101 111001 b.n  1fb0

00001fe4 8892 1000100010010010 100010 A5-82 1000 100
00001fe6 2a00 0010101000000000 001010 cmp r2, #0  ; 0x00
00001fe8 d041 1101000001000001 110100 beq.n 1f6e ; PC + -122

00001fea 2a80 0010101010000000 001010 cmp r2, #128  ; 0x80
00001fec d060 1101000001100000 110100 beq.n 1fb0 ; PC + -60

00001fee 4935 0100100100110101 010010 ldr  r1, [pc, #212] ; 0x00d4
00001ff0 7d49 0111110101001001 011111 ldrb r1, [r1, #21]
00001ff2 2900 0010100100000000 001010 cmp r1, #0  ; 0x00
00001ff4 d100 1101000100000000 110100 bne.n 1ff8 ; PC + 4

00001ff6 e784 1110011110000100 111001 b.n  1f02

00001ff8 4938 0100100100111000 010010 ldr  r1, [pc, #224] ; 0x00e0
00001ffa 00a0 0000000010100000 000000 lsls  r0, r4, #2
00001ffc 5840 0101100001000000 010110 ldr r0, [r0, r1]
00001ffe 6806 0110100000000110 011010 ldr  r6, [r0, #0] ; 0x0
00002000 78b6 0111100010110110 011110 ldrb r6, [r6, #2]
00002002 42b2 0100001010110010 010000 cmp  r2, r6
00002004 d034 1101000000110100 110100 beq.n 2070 ; PC + 108

00002006 3401 0011010000000001 001101 adds r4, #1  ; 0x01
00002008 2c05 0010110000000101 001011 cmp r4, #5  ; 0x05
0000200a d1f6 1101000111110110 110100 bne.n 1ffa ; PC + -16

0000200c e779 1110011101111001 111001 b.n  1f02

0000200e 7869 0111100001101001 011110 ldrb r1, [r5, #1]
00002010 2901 0010100100000001 001010 cmp r1, #1  ; 0x01
00002012 d00a 1101000000001010 110100 beq.n 202a ; PC + 24

00002014 2903 0010100100000011 001010 cmp r1, #3  ; 0x03
00002016 d000 1101000000000000 110100 beq.n 201a ; PC + 4

00002018 e773 1110011101110011 111001 b.n  1f02

0000201a 886b 1000100001101011 100010 A5-82 1000 100
0000201c 2b00 0010101100000000 001010 cmp r3, #0  ; 0x00
0000201e d000 1101000000000000 110100 beq.n 2022 ; PC + 4

00002020 e76f 1110011101101111 111001 b.n  1f02

00002022 2102 0010000100000010 001000 movs r1, #2  ; 0x02
00002024 f7fe 1111011111111110 111101 (32-bit)
00002026 fbda 1111101111011010 111101 bl   7dc

00002028 e7ae 1110011110101110 111001 b.n  1f88

0000202a 886b 1000100001101011 100010 A5-82 1000 100
0000202c 2b00 0010101100000000 001010 cmp r3, #0  ; 0x00
0000202e d000 1101000000000000 110100 beq.n 2032 ; PC + 4

00002030 e767 1110011101100111 111001 b.n  1f02

00002032 1dc2 0001110111000010 000111 adds r2, r0, #7   ;0x7
00002034 7fd2 0111111111010010 011111 strb r2, [r2, #31]
00002036 2a02 0010101000000010 001010 cmp r2, #2  ; 0x02
00002038 d802 1101100000000010 110110 bhi.n 2040 ; PC + 8

0000203a f7fe 1111011111111110 111101 (32-bit)
0000203c fcb7 1111110010110111 111101 bl   9ac

0000203e e7a3 1110011110100011 111001 b.n  1f88

00002040 3002 0011000000000010 001100 adds r0, #2  ; 0x02
00002042 77c3 0111011111000011 011101 strb r3, [r0, #31]
00002044 e7a0 1110011110100000 111001 b.n  1f88

00002046 422c 0100001000101100 010000 tst  r4, r5
00002048 d00b 1101000000001011 110100 beq.n 2062 ; PC + 26

0000204a 2101 0010000100000001 001000 movs r1, #1  ; 0x01
0000204c 6dfa 0110110111111010 011011 ldr  r2, [r7, #92] ; 0x5c
0000204e 4b21 0100101100100001 010010 ldr  r3, [pc, #132] ; 0x0084
00002050 4022 0100000000100010 010000 ands  r2, r4
00002052 659c 0110010110011100 011001 str  r4, [r3, #88] ; 0x58
00002054 0870 0000100001110000 000010 lsrs  r0, r6, #1
00002056 1e53 0001111001010011 000111 subs  r3, r2, #1   ;0x1
00002058 419a 0100000110011010 010000 sbc  r2, r3
0000205a 43b1 0100001110110001 010000 bic  r1, r6

0000205c f7fe 1111011111111110 111101 (32-bit)
0000205e fbe6 1111101111100110 111101 bl   82c

00002060 43a5 0100001110100101 010000 bic  r5, r4

00002062 0064 0000000001100100 000000 lsls  r4, r4, #1
00002064 3601 0011011000000001 001101 adds r6, #1  ; 0x01
00002066 e766 1110011101100110 111001 b.n  1f36

00002068 f7fe 1111011111111110 111101 (32-bit)
0000206a ff30 1111111100110000 111101 bl   ecc

0000206c e781 1110011110000001 111001 b.n  1f72

0000206e 0030 0000000000110000 000000 movs r0, r6
00002070 2260 0010001001100000 001000 movs r2, #96  ; 0x60
00002072 4213 0100001000010011 010000 tst  r3, r2
00002074 d000 1101000000000000 110100 beq.n 2078 ; PC + 4

00002076 e744 1110011101000100 111001 b.n  1f02

00002078 b25b 1011001001011011 101100 sxtb ; a6-168
0000207a 2b00 0010101100000000 001010 cmp r3, #0  ; 0x00
0000207c dac7 1101101011000111 110110 bge.n 200e ; PC + -110

0000207e 786b 0111100001101011 011110 ldrb r3, [r5, #1]
00002080 2b00 0010101100000000 001010 cmp r3, #0  ; 0x00
00002082 d000 1101000000000000 110100 beq.n 2086 ; PC + 4

00002084 e73d 1110011100111101 111001 b.n  1f02

00002086 886b 1000100001101011 100010 A5-82 1000 100
00002088 2b00 0010101100000000 001010 cmp r3, #0  ; 0x00
0000208a d000 1101000000000000 110100 beq.n 208e ; PC + 4

0000208c e739 1110011100111001 111001 b.n  1f02

0000208e 88ec 1000100011101100 100010 A5-82 1000 100
00002090 2c02 0010110000000010 001011 cmp r4, #2  ; 0x02
00002092 d000 1101000000000000 110100 beq.n 2096 ; PC + 4

00002094 e735 1110011100110101 111001 b.n  1f02

00002096 2501 0010010100000001 001001 movs r5, #1  ; 0x01
00002098 3007 0011000000000111 001100 adds r0, #7  ; 0x07
0000209a 7fc3 0111111111000011 011111 strb r3, [r0, #31]
0000209c 0038 0000000000111000 000000 movs r0, r7
0000209e 429d 0100001010011101 010000 cmp  r5, r3
000020a0 41ad 0100000110101101 010000 sbc  r5, r5
000020a2 f7fe 1111011111111110 111101 (32-bit)
000020a4 fa7b 1111101001111011 111101 bl   59c

000020a6 6803 0110100000000011 011010 ldr  r3, [r0, #0] ; 0x0
000020a8 426d 0100001001101101 010000 rsb  r5, r5
000020aa 601d 0110000000011101 011000 str  r5, [r3, #0] ; 0x0
000020ac 7104 0111000100000100 011100 ldrb r4, [r0, #4]
000020ae e6e9 1110011011101001 111001 b.n  1e84

000020b0 0038 0000000000111000 000000 movs r0, r7
000020b2 e7dd 1110011111011101 111001 b.n  2070

000020b4 0098 0000000010011000 000000 lsls  r0, r3, #2
000020b6 5011 0101000000010001 010100 str unimplemented form
000020b8 0f68 0000111101101000 000011 lsrs  r0, r5, #29
000020ba 5010 0101000000010000 010100 str unimplemented form
000020bc 0f94 0000111110010100 000011 lsrs  r4, r2, #30
000020be 5010 0101000000010000 010100 str unimplemented form
000020c0 0000 0000000000000000 000000 nop     ; movs r0, r0

000020c2 5010 0101000000010000 010100 str unimplemented form
000020c4 09ec 0000100111101100 000010 lsrs  r4, r5, #7
000020c6 5010 0101000000010000 010100 str unimplemented form
000020c8 3f32 0011111100110010 001111 subs r7, #50  ; 0x32
000020ca 0000 0000000000000000 000000 nop     ; movs r0, r0

000020cc 045d 0000010001011101 000001 lsls  r5, r3, #17
000020ce 0000 0000000000000000 000000 nop     ; movs r0, r0

000020d0 09c4 0000100111000100 000010 lsrs  r4, r0, #7
000020d2 5010 0101000000010000 010100 str unimplemented form
000020d4 3000 0011000000000000 001100 adds r0, #0  ; 0x00
000020d6 5011 0101000000010001 010100 str unimplemented form
000020d8 0000 0000000000000000 000000 nop     ; movs r0, r0

000020da 5011 0101000000010001 010100 str unimplemented form
000020dc 0a08 0000101000001000 000010 lsrs  r0, r1, #8
000020de 5010 0101000000010000 010100 str unimplemented form
000020e0 b510 1011010100010000 101101 push {r4, lr}
000020e2 f7fe 1111011111111110 111101 (32-bit)
000020e4 fbdd 1111101111011101 111101 bl   8a0

000020e6 bd10 1011110100010000 101111 pop {r4, lr}
000020e8 b5f8 1011010111111000 101101 push {r3, r4, r5, r6, r7, lr}
000020ea 4a1a 0100101000011010 010010 ldr  r2, [pc, #104] ; 0x0068
000020ec 4b1a 0100101100011010 010010 ldr  r3, [pc, #104] ; 0x0068
000020ee 601a 0110000000011010 011000 str  r2, [r3, #0] ; 0x0
000020f0 f3ef 1111001111101111 111100 (32-bit)
000020f2 8510 1000010100010000 111100 To be implemented

000020f4 b672 1011011001110010 101101 cps
000020f6 f3bf 1111001110111111 111100 (32-bit)
000020f8 8f5f 1000111101011111 111100 To be implemented

000020fa 4c18 0100110000011000 010011 ldr  r4, [pc, #96] ; 0x0060
000020fc 0027 0000000000100111 000000 movs r7, r4
000020fe 3728 0011011100101000 001101 adds r7, #40  ; 0x28
00002100 783b 0111100000111011 011110 ldrb r3, [r7, #0]
00002102 b2de 1011001011011110 101100 uxtb ; a6-172
00002104 2b00 0010101100000000 001010 cmp r3, #0  ; 0x00
00002106 d113 1101000100010011 110100 bne.n 2130 ; PC + 42

00002108 f385 1111001110000101 111100 (32-bit)
0000210a 8810 1000100000010000 111100 msr ASPR, r5

0000210c f3ef 1111001111101111 111100 (32-bit)
0000210e 8510 1000010100010000 111100 To be implemented

00002110 b672 1011011001110010 101101 cps
00002112 f3bf 1111001110111111 111100 (32-bit)
00002114 8f5f 1000111101011111 111100 To be implemented

00002116 4c12 0100110000010010 010011 ldr  r4, [pc, #72] ; 0x0048
00002118 0027 0000000000100111 000000 movs r7, r4
0000211a 3728 0011011100101000 001101 adds r7, #40  ; 0x28
0000211c 783b 0111100000111011 011110 ldrb r3, [r7, #0]
0000211e 2b00 0010101100000000 001010 cmp r3, #0  ; 0x00
00002120 d013 1101000000010011 110100 beq.n 214a ; PC + 42

00002122 2228 0010001000101000 001000 movs r2, #40  ; 0x28
00002124 0021 0000000000100001 000000 movs r1, r4
00002126 480f 0100100000001111 010010 ldr  r0, [pc, #60] ; 0x003c
00002128 f000 1111000000000000 111100 (32-bit)
0000212a fa8a 1111101010001010 111100 bl   2640

0000212c 703e 0111000000111110 011100 ldrb r6, [r7, #0]
0000212e e006 1110000000000110 111000 b.n  213e

00002130 2228 0010001000101000 001000 movs r2, #40  ; 0x28
00002132 0021 0000000000100001 000000 movs r1, r4
00002134 480b 0100100000001011 010010 ldr  r0, [pc, #44] ; 0x002c
00002136 f000 1111000000000000 111100 (32-bit)
00002138 fa83 1111101010000011 111100 bl   2640

0000213a 2300 0010001100000000 001000 movs r3, #0  ; 0x00
0000213c 703b 0111000000111011 011100 ldrb r3, [r7, #0]
0000213e f385 1111001110000101 111100 (32-bit)
00002140 8810 1000100000010000 111100 msr ASPR, r5

00002142 0020 0000000000100000 000000 movs r0, r4
00002144 f7fe 1111011111111110 111101 (32-bit)
00002146 fd4a 1111110101001010 111101 bl   bdc

00002148 e7d2 1110011111010010 111001 b.n  20f0

0000214a f385 1111001110000101 111100 (32-bit)
0000214c 8810 1000100000010000 111100 msr ASPR, r5

0000214e bf20 1011111100100000 101111 wfe ; Wait For Event
00002150 e7ce 1110011111001110 111001 b.n  20f0

00002152 46c0 0100011011000000 010001 nop  ; (mov  r8, r8)

00002154 3ecc 0011111011001100 001111 subs r6, #204  ; 0xcc
00002156 0000 0000000000000000 000000 nop     ; movs r0, r0

00002158 0dbc 0000110110111100 000011 lsrs  r4, r7, #22
0000215a 5010 0101000000010000 010100 str unimplemented form
0000215c 0fc0 0000111111000000 000011 lsrs  r0, r0, #31
0000215e 5010 0101000000010000 010100 str unimplemented form
00002160 0e84 0000111010000100 000011 lsrs  r4, r0, #26
00002162 5010 0101000000010000 010100 str unimplemented form
00002164 0d8c 0000110110001100 000011 lsrs  r4, r1, #22
00002166 5010 0101000000010000 010100 str unimplemented form
00002168 b5f7 1011010111110111 101101 push {r0, r1, r2, r4, r5, r6, r7, lr}
0000216a 9001 1001000000000001 100100 A5-82 1001 000
0000216c f7fe 1111011111111110 111101 (32-bit)
0000216e fa16 1111101000010110 111101 bl   59c

00002170 7903 0111100100000011 011110 ldrb r3, [r0, #4]
00002172 2b20 0010101100100000 001010 cmp r3, #32  ; 0x20
00002174 d000 1101000000000000 110100 beq.n 2178 ; PC + 4

00002176 e09e 1110000010011110 111000 b.n  22b6

00002178 6806 0110100000000110 011010 ldr  r6, [r0, #0] ; 0x0
0000217a 4b53 0100101101010011 010010 ldr  r3, [pc, #332] ; 0x014c
0000217c 6832 0110100000110010 011010 ldr  r2, [r6, #0] ; 0x0
0000217e 429a 0100001010011010 010000 cmp  r2, r3
00002180 d000 1101000000000000 110100 beq.n 2184 ; PC + 4

00002182 e098 1110000010011000 111000 b.n  22b6

00002184 4c51 0100110001010001 010011 ldr  r4, [pc, #324] ; 0x0144
00002186 2128 0010000100101000 001000 movs r1, #40  ; 0x28
00002188 0020 0000000000100000 000000 movs r0, r4
0000218a 302c 0011000000101100 001100 adds r0, #44  ; 0x2c
0000218c f7fe 1111011111111110 111101 (32-bit)
0000218e feda 1111111011011010 111101 bl   f44

00002190 4a4f 0100101001001111 010010 ldr  r2, [pc, #316] ; 0x013c
00002192 6813 0110100000010011 011010 ldr  r3, [r2, #0] ; 0x0
00002194 3b01 0011101100000001 001110 subs r3, #1  ; 0x01
00002196 6013 0110000000010011 011000 str  r3, [r2, #0] ; 0x0
00002198 6872 0110100001110010 011010 ldr  r2, [r6, #4] ; 0x4
0000219a 62e3 0110001011100011 011000 str  r3, [r4, #44] ; 0x2c imm5
0000219c 64e2 0110010011100010 011001 str  r2, [r4, #76] ; 0x4c
0000219e 7a33 0111101000110011 011110 strb r3, [r6, #8]
000021a0 9300 1001001100000000 100100 str r0, [sp, #12]
000021a2 4b4c 0100101101001100 010010 ldr  r3, [pc, #304] ; 0x0130
000021a4 9900 1001100100000000 100110 A5-82 1001 100
000021a6 601a 0110000000011010 011000 str  r2, [r3, #0] ; 0x0
000021a8 2200 0010001000000000 001000 movs r2, #0  ; 0x00
000021aa 725a 0111001001011010 011100 strb r2, [r3, #9]
000021ac 3201 0011001000000001 001100 adds r2, #1  ; 0x01
000021ae 605a 0110000001011010 011000 str  r2, [r3, #4] ; 0x4
000021b0 6932 0110100100110010 011010 ldr  r2, [r6, #16] ; 0x10
000021b2 7219 0111001000011001 011100 strb r1, [r3, #8]
000021b4 63e2 0110001111100010 011000 str  r2, [r4, #60] ; 0x3c imm5
000021b6 63a2 0110001110100010 011000 str  r2, [r4, #56] ; 0x38 imm5
000021b8 4694 0100011010010100 010001 mov  r2, r12
000021ba 0022 0000000000100010 000000 movs r2, r4
000021bc 6971 0110100101110001 011010 ldr  r1, [r6, #20] ; 0x14
000021be 3251 0011001001010001 001100 adds r2, #81  ; 0x51
000021c0 6421 0110010000100001 011001 str  r1, [r4, #64] ; 0x40
000021c2 7c30 0111110000110000 011111 ldrb r0, [r6, #16]
000021c4 7010 0111000000010000 011100 ldrb r0, [r2, #0]
000021c6 227f 0010001001111111 001000 movs r2, #127  ; 0x7f
000021c8 9800 1001100000000000 100110 A5-82 1001 100
000021ca 4002 0100000000000010 010000 ands  r2, r0
000021cc 1e50 0001111001010000 000111 subs  r0, r2, #1   ;0x1
000021ce 2808 0010100000001000 001010 cmp r0, #8  ; 0x08
000021d0 d900 1101100100000000 110110 bls.n 21d4 ; PC + 4

000021d2 e070 1110000001110000 111000 b.n  22b6

000021d4 2003 0010000000000011 001000 movs r0, #3  ; 0x03
000021d6 4342 0100001101000010 010000 muls  r2, r0
000021d8 483f 0100100000111111 010010 ldr  r0, [pc, #252] ; 0x00fc
000021da 7a77 0111101001110111 011110 strb r7, [r6, #9]
000021dc 5c85 0101110010000101 010111 ldrb r5, [r0, r2]
000021de 42af 0100001010101111 010000 cmp  r7, r5
000021e0 d161 1101000101100001 110100 bne.n 21a6 ; PC + -58

000021e2 2500 0010010100000000 001001 movs r5, #0  ; 0x00
000021e4 1880 0001100010000000 000110 adds r0, r0, r2
000021e6 605d 0110000001011101 011000 str  r5, [r3, #4] ; 0x4
000021e8 7843 0111100001000011 011110 ldrb r3, [r0, #1]
000021ea 7840 0111100001000000 011110 ldrb r0, [r0, #1]
000021ec 000d 0000000000001101 000000 movs r5, r1
000021ee b240 1011001001000000 101100 sxtb ; a6-168
000021f0 2800 0010100000000000 001010 cmp r0, #0  ; 0x00
000021f2 db00 1101101100000000 110110 blt.n 21f6 ; PC + 4

000021f4 001d 0000000000011101 000000 movs r5, r3
000021f6 68f3 0110100011110011 011010 ldr  r3, [r6, #12] ; 0xc
000021f8 42ab 0100001010101011 010000 cmp  r3, r5
000021fa d156 1101000101010110 110100 bne.n 21aa ; PC + -80

000021fc 4b36 0100101100110110 010010 ldr  r3, [pc, #216] ; 0x00d8
000021fe 189a 0001100010011010 000110 adds r2, r3, r2
00002200 9b00 1001101100000000 100110 A5-82 1001 101
00002202 7897 0111100010010111 011110 ldrb r7, [r2, #2]
00002204 2b02 0010101100000010 001010 cmp r3, #2  ; 0x02
00002206 d109 1101000100001001 110100 bne.n 221c ; PC + 22

00002208 4660 0100011001100000 010001 mov  r12, r0
0000220a 69b2 0110100110110010 011010 ldr  r2, [r6, #24] ; 0x18
0000220c f7fe 1111011111111110 111101 (32-bit)
0000220e fbf6 1111101111110110 111101 bl   9fc

00002210 f7fe 1111011111111110 111101 (32-bit)
00002212 fc80 1111110010000000 111101 bl   b14

00002214 9801 1001100000000001 100110 A5-82 1001 100
00002216 f7fe 1111011111111110 111101 (32-bit)
00002218 fb43 1111101101000011 111101 bl   8a0

0000221a bdf7 1011110111110111 101111 pop {r0, r1, r2, r4, r5, r6, r7, lr}
0000221c 2f00 0010111100000000 001011 cmp r7, #0  ; 0x00
0000221e d047 1101000001000111 110100 beq.n 21b0 ; PC + -110

00002220 0023 0000000000100011 000000 movs r3, r4
00002222 3350 0011001101010000 001100 adds r3, #80  ; 0x50
00002224 701f 0111000000011111 011100 ldrb r7, [r3, #0]
00002226 0023 0000000000100011 000000 movs r3, r4
00002228 2202 0010001000000010 001000 movs r2, #2  ; 0x02
0000222a 2601 0010011000000001 001001 movs r6, #1  ; 0x01
0000222c 3352 0011001101010010 001100 adds r3, #82  ; 0x52
0000222e 701a 0111000000011010 011100 ldrb r2, [r3, #0]
00002230 4b28 0100101100101000 010010 ldr  r3, [pc, #160] ; 0x00a0
00002232 725e 0111001001011110 011100 strb r6, [r3, #9]
00002234 2d00 0010110100000000 001011 cmp r5, #0  ; 0x00
00002236 d028 1101000000101000 110100 beq.n 228a ; PC + 84

00002238 4b28 0100101100101000 010010 ldr  r3, [pc, #160] ; 0x00a0
0000223a 4a29 0100101000101001 010010 ldr  r2, [pc, #164] ; 0x00a4
0000223c 6463 0110010001100011 011001 str  r3, [r4, #68] ; 0x44
0000223e 6223 0110001000100011 011000 str  r3, [r4, #32] ; 0x20 imm5
00002240 2380 0010001110000000 001000 movs r3, #128  ; 0x80
00002242 005b 0000000001011011 000000 lsls  r3, r3, #1
00002244 61e3 0110000111100011 011000 str  r3, [r4, #28] ; 0x1c
00002246 2300 0010001100000000 001000 movs r3, #0  ; 0x00
00002248 62a2 0110001010100010 011000 str  r2, [r4, #40] ; 0x28 imm5
0000224a 6163 0110000101100011 011000 str  r3, [r4, #20] ; 0x14
0000224c 4a25 0100101000100101 010010 ldr  r2, [pc, #148] ; 0x0094
0000224e 61a5 0110000110100101 011000 str  r5, [r4, #24] ; 0x18
00002250 0020 0000000000100000 000000 movs r0, r4
00002252 4925 0100100100100101 010010 ldr  r1, [pc, #148] ; 0x0094
00002254 f7fe 1111011111111110 111101 (32-bit)
00002256 f90c 1111100100001100 111101 bl   470

00002258 353f 0011010100111111 001101 adds r5, #63  ; 0x3f
0000225a 68a3 0110100010100011 011010 ldr  r3, [r4, #8] ; 0x8
0000225c 09ad 0000100110101101 000010 lsrs  r5, r5, #6
0000225e 195b 0001100101011011 000110 adds r3, r3, r5
00002260 60a3 0110000010100011 011000 str  r3, [r4, #8] ; 0x8
00002262 68e3 0110100011100011 011010 ldr  r3, [r4, #12] ; 0xc
00002264 003a 0000000000111010 000000 movs r2, r7
00002266 195d 0001100101011101 000110 adds r5, r3, r5
00002268 2308 0010001100001000 001000 movs r3, #8  ; 0x08
0000226a 60e5 0110000011100101 011000 str  r5, [r4, #12] ; 0xc
0000226c 401a 0100000000011010 010000 ands  r2, r3
0000226e 421f 0100001000011111 010000 tst  r7, r3
00002270 d003 1101000000000011 110100 beq.n 227a ; PC + 10

00002272 4b1e 0100101100011110 010010 ldr  r3, [pc, #120] ; 0x0078
00002274 6263 0110001001100011 011000 str  r3, [r4, #36] ; 0x24 imm5
00002276 60dc 0110000011011100 011000 str  r4, [r3, #12] ; 0xc
00002278 e7cc 1110011111001100 111001 b.n  2214

0000227a 481d 0100100000011101 010010 ldr  r0, [pc, #116] ; 0x0074
0000227c 74a6 0111010010100110 011101 ldrb r6, [r4, #18]
0000227e 6260 0110001001100000 011000 str  r0, [r4, #36] ; 0x24 imm5
00002280 6084 0110000010000100 011000 str  r4, [r0, #8] ; 0x8
00002282 60c2 0110000011000010 011000 str  r2, [r0, #12] ; 0xc
00002284 f7fe 1111011111111110 111101 (32-bit)
00002286 f9f4 1111100111110100 111101 bl   670

00002288 e7c4 1110011111000100 111001 b.n  2214

0000228a 481a 0100100000011010 010010 ldr  r0, [pc, #104] ; 0x0068
0000228c 0021 0000000000100001 000000 movs r1, r4
0000228e 0005 0000000000000101 000000 movs r5, r0
00002290 4b19 0100101100011001 010010 ldr  r3, [pc, #100] ; 0x0064
00002292 3528 0011010100101000 001101 adds r5, #40  ; 0x28
00002294 6363 0110001101100011 011000 str  r3, [r4, #52] ; 0x34 imm5
00002296 2228 0010001000101000 001000 movs r2, #40  ; 0x28
00002298 312c 0011000100101100 001100 adds r1, #44  ; 0x2c
0000229a 782b 0111100000101011 011110 ldrb r3, [r5, #0]
0000229c f000 1111000000000000 111100 (32-bit)
0000229e f9d0 1111100111010000 111100 bl   2640

000022a0 702e 0111000000101110 011100 ldrb r6, [r5, #0]
000022a2 bf40 1011111101000000 101111 sev ; a6-156
000022a4 e7b6 1110011110110110 111001 b.n  2214

000022a6 2202 0010001000000010 001000 movs r2, #2  ; 0x02
000022a8 e004 1110000000000100 111000 b.n  22b4

000022aa 9b00 1001101100000000 100110 A5-82 1001 101
000022ac 2b02 0010101100000010 001010 cmp r3, #2  ; 0x02
000022ae d0ab 1101000010101011 110100 beq.n 2308 ; PC + 90

000022b0 2203 0010001000000011 001000 movs r2, #3  ; 0x03
000022b2 4b08 0100101100001000 010010 ldr  r3, [pc, #32] ; 0x0020
000022b4 605a 0110000001011010 011000 str  r2, [r3, #4] ; 0x4
000022b6 2102 0010000100000010 001000 movs r1, #2  ; 0x02
000022b8 480d 0100100000001101 010010 ldr  r0, [pc, #52] ; 0x0034
000022ba f7fe 1111011111111110 111101 (32-bit)
000022bc fa8f 1111101010001111 111101 bl   7dc

000022be 2102 0010000100000010 001000 movs r1, #2  ; 0x02
000022c0 480a 0100100000001010 010010 ldr  r0, [pc, #40] ; 0x0028
000022c2 f7fe 1111011111111110 111101 (32-bit)
000022c4 fa8b 1111101010001011 111101 bl   7dc

000022c6 e7a5 1110011110100101 111001 b.n  2214

000022c8 d10b 1101000100001011 110100 bne.n 22e2 ; PC + 26

000022ca 431f 0100001100011111 010000 orr  r7, r3
000022cc 0ac8 0000101011001000 000010 lsrs  r0, r1, #11
000022ce 5010 0101000000010000 010100 str unimplemented form
000022d0 0eb0 0000111010110000 000011 lsrs  r0, r6, #26
000022d2 5010 0101000000010000 010100 str unimplemented form
000022d4 0ab8 0000101010111000 000010 lsrs  r0, r7, #10
000022d6 5010 0101000000010000 010100 str unimplemented form
000022d8 3eac 0011111010101100 001111 subs r6, #172  ; 0xac
000022da 0000 0000000000000000 000000 nop     ; movs r0, r0

000022dc 08c4 0000100011000100 000010 lsrs  r4, r0, #3
000022de 5010 0101000000010000 010100 str unimplemented form
000022e0 3df0 0011110111110000 001111 subs r5, #240  ; 0xf0
000022e2 0000 0000000000000000 000000 nop     ; movs r0, r0

000022e4 0b15 0000101100010101 000010 lsrs  r5, r2, #12
000022e6 0000 0000000000000000 000000 nop     ; movs r0, r0

000022e8 3e17 0011111000010111 001111 subs r6, #23  ; 0x17
000022ea 0000 0000000000000000 000000 nop     ; movs r0, r0

000022ec 0e58 0000111001011000 000011 lsrs  r0, r3, #25
000022ee 5010 0101000000010000 010100 str unimplemented form
000022f0 0e24 0000111000100100 000011 lsrs  r4, r4, #24
000022f2 5010 0101000000010000 010100 str unimplemented form
000022f4 0e84 0000111010000100 000011 lsrs  r4, r0, #26
000022f6 5010 0101000000010000 010100 str unimplemented form
000022f8 0b45 0000101101000101 000010 lsrs  r5, r0, #13
000022fa 0000 0000000000000000 000000 nop     ; movs r0, r0

000022fc b570 1011010101110000 101101 push {r4, r5, r6, lr}
000022fe 4c09 0100110000001001 010011 ldr  r4, [pc, #36] ; 0x0024
00002300 4b09 0100101100001001 010010 ldr  r3, [pc, #36] ; 0x0024
00002302 64a0 0110010010100000 011001 str  r0, [r4, #72] ; 0x48
00002304 4809 0100100000001001 010010 ldr  r0, [pc, #36] ; 0x0024
00002306 0021 0000000000100001 000000 movs r1, r4
00002308 0005 0000000000000101 000000 movs r5, r0
0000230a 6363 0110001101100011 011000 str  r3, [r4, #52] ; 0x34 imm5
0000230c 3528 0011010100101000 001101 adds r5, #40  ; 0x28
0000230e 2228 0010001000101000 001000 movs r2, #40  ; 0x28
00002310 312c 0011000100101100 001100 adds r1, #44  ; 0x2c
00002312 782b 0111100000101011 011110 ldrb r3, [r5, #0]
00002314 f000 1111000000000000 111100 (32-bit)
00002316 f994 1111100110010100 111100 bl   2640

00002318 2001 0010000000000001 001000 movs r0, #1  ; 0x01
0000231a 7028 0111000000101000 011100 ldrb r0, [r5, #0]
0000231c bf40 1011111101000000 101111 sev ; a6-156
0000231e 3453 0011010001010011 001101 adds r4, #83  ; 0x53
00002320 7020 0111000000100000 011100 ldrb r0, [r4, #0]
00002322 bd70 1011110101110000 101111 pop {r4, r5, r6, lr}
00002324 0ac8 0000101011001000 000010 lsrs  r0, r1, #11
00002326 5010 0101000000010000 010100 str unimplemented form
00002328 0e59 0000111001011001 000011 lsrs  r1, r3, #25
0000232a 0000 0000000000000000 000000 nop     ; movs r0, r0

0000232c 0e84 0000111010000100 000011 lsrs  r4, r0, #26
0000232e 5010 0101000000010000 010100 str unimplemented form
00002330 23c0 0010001111000000 001000 movs r3, #192  ; 0xc0
00002332 2200 0010001000000000 001000 movs r2, #0  ; 0x00
00002334 055b 0000010101011011 000001 lsls  r3, r3, #21
00002336 609a 0110000010011010 011000 str  r2, [r3, #8] ; 0x8
00002338 4a04 0100101000000100 010010 ldr  r2, [pc, #16] ; 0x0010
0000233a 4905 0100100100000101 010010 ldr  r1, [pc, #20] ; 0x0014
0000233c 601a 0110000000011010 011000 str  r2, [r3, #0] ; 0x0
0000233e 001a 0000000000011010 000000 movs r2, r3
00002340 32f4 0011001011110100 001100 adds r2, #244  ; 0xf4
00002342 6011 0110000000010001 011000 str  r1, [r2, #0] ; 0x0
00002344 2201 0010001000000001 001000 movs r2, #1  ; 0x01
00002346 609a 0110000010011010 011000 str  r2, [r3, #8] ; 0x8
00002348 4770 0100011101110000 010001 bx lr

0000234a 46c0 0100011011000000 010001 nop  ; (mov  r8, r8)

0000234c 0300 0000001100000000 000000 lsls  r0, r0, #12
0000234e 001f 0000000000011111 000000 movs r7, r3
00002350 0218 0000001000011000 000000 lsls  r0, r3, #8
00002352 0300 0000001100000000 000000 lsls  r0, r0, #12
00002354 b510 1011010100010000 101101 push {r4, lr}
00002356 f7ff 1111011111111111 111101 (32-bit)
00002358 ffeb 1111111111101011 111101 bl   2330

0000235a 2000 0010000000000000 001000 movs r0, #0  ; 0x00
0000235c bd10 1011110100010000 101111 pop {r4, lr}
0000235e be00 1011111000000000 101111 bkpt 0x0000

00002360 22a0 0010001010100000 001000 movs r2, #160  ; 0xa0
00002362 2301 0010001100000001 001000 movs r3, #1  ; 0x01
00002364 b510 1011010100010000 101101 push {r4, lr}
00002366 0552 0000010101010010 000001 lsls  r2, r2, #21
00002368 6053 0110000001010011 011000 str  r3, [r2, #4] ; 0x4
0000236a 6852 0110100001010010 011010 ldr  r2, [r2, #4] ; 0x4
0000236c 4a02 0100101000000010 010010 ldr  r2, [pc, #8] ; 0x0008
0000236e 2000 0010000000000000 001000 movs r0, #0  ; 0x00
00002370 6013 0110000000010011 011000 str  r3, [r2, #0] ; 0x0
00002372 f7fe 1111011111111110 111101 (32-bit)
00002374 fc0d 1111110000001101 111101 bl   b90

00002376 bd10 1011110100010000 101111 pop {r4, lr}
00002378 2000 0010000000000000 001000 movs r0, #0  ; 0x00
0000237a 1400 0001010000000000 000101 asr   r0, r0, #80
0000237c b5f8 1011010111111000 101101 push {r3, r4, r5, r6, r7, lr}
0000237e 0004 0000000000000100 000000 movs r4, r0
00002380 0015 0000000000010101 000000 movs r5, r2
00002382 001f 0000000000011111 000000 movs r7, r3
00002384 1846 0001100001000110 000110 adds r6, r0, r1
00002386 42b4 0100001010110100 010000 cmp  r4, r6
00002388 d205 1101001000000101 110100 bcs.n 2396 ; PC + 14

0000238a 22c0 0010001011000000 001000 movs r2, #192  ; 0xc0
0000238c 4b0c 0100101100001100 010010 ldr  r3, [pc, #48] ; 0x0030
0000238e 0292 0000001010010010 000000 lsls  r2, r2, #10
00002390 681b 0110100000011011 011010 ldr  r3, [r3, #0] ; 0x0
00002392 4213 0100001000010011 010000 tst  r3, r2
00002394 d000 1101000000000000 110100 beq.n 2398 ; PC + 4

00002396 bdf8 1011110111111000 101111 pop {r3, r4, r5, r6, r7, lr}
00002398 1e6b 0001111001101011 000111 subs  r3, r5, #1   ;0x1
0000239a 421c 0100001000011100 010000 tst  r4, r3
0000239c d108 1101000100001000 110100 bne.n 23b0 ; PC + 20

0000239e 1b33 0001101100110011 000110 sub reg A6-165
000023a0 42ab 0100001010101011 010000 cmp  r3, r5
000023a2 d305 1101001100000101 110100 bcc.n 23b0 ; PC + 14

000023a4 0020 0000000000100000 000000 movs r0, r4
000023a6 0039 0000000000111001 000000 movs r1, r7
000023a8 f7ff 1111011111111111 111101 (32-bit)
000023aa fa5e 1111101001011110 111101 bl   1868

000023ac 1964 0001100101100100 000110 adds r4, r4, r5
000023ae e7ea 1110011111101010 111001 b.n  2386

000023b0 0020 0000000000100000 000000 movs r0, r4
000023b2 2120 0010000100100000 001000 movs r1, #32  ; 0x20
000023b4 f7ff 1111011111111111 111101 (32-bit)
000023b6 fa58 1111101001011000 111101 bl   1868

000023b8 2380 0010001110000000 001000 movs r3, #128  ; 0x80
000023ba 015b 0000000101011011 000000 lsls  r3, r3, #5
000023bc 18e4 0001100011100100 000110 adds r4, r4, r3
000023be e7e2 1110011111100010 111001 b.n  2386

000023c0 801c 1000000000011100 100000 A5-82 1000 000
000023c2 4001 0100000000000001 010000 ands  r1, r0
000023c4 b5f8 1011010111111000 101101 push {r3, r4, r5, r6, r7, lr}
000023c6 0005 0000000000000101 000000 movs r5, r0
000023c8 000f 0000000000001111 000000 movs r7, r1
000023ca 0004 0000000000000100 000000 movs r4, r0
000023cc 1886 0001100010000110 000110 adds r6, r0, r2
000023ce 1b79 0001101101111001 000110 sub reg A6-165
000023d0 1909 0001100100001001 000110 adds r1, r1, r4
000023d2 42b4 0100001010110100 010000 cmp  r4, r6
000023d4 d205 1101001000000101 110100 bcs.n 23e2 ; PC + 14

000023d6 22c0 0010001011000000 001000 movs r2, #192  ; 0xc0
000023d8 4b05 0100101100000101 010010 ldr  r3, [pc, #20] ; 0x0014
000023da 0292 0000001010010010 000000 lsls  r2, r2, #10
000023dc 681b 0110100000011011 011010 ldr  r3, [r3, #0] ; 0x0
000023de 4213 0100001000010011 010000 tst  r3, r2
000023e0 d000 1101000000000000 110100 beq.n 23e4 ; PC + 4

000023e2 bdf8 1011110111111000 101111 pop {r3, r4, r5, r6, r7, lr}
000023e4 0020 0000000000100000 000000 movs r0, r4
000023e6 3401 0011010000000001 001101 adds r4, #1  ; 0x01
000023e8 f7ff 1111011111111111 111101 (32-bit)
000023ea fa59 1111101001011001 111101 bl   189e

000023ec 34ff 0011010011111111 001101 adds r4, #255  ; 0xff
000023ee e7ee 1110011111101110 111001 b.n  23ce

000023f0 801c 1000000000011100 100000 A5-82 1000 000
000023f2 4001 0100000000000001 010000 ands  r1, r0
000023f4 2301 0010001100000001 001000 movs r3, #1  ; 0x01
000023f6 b5f0 1011010111110000 101101 push {r4, r5, r6, r7, lr}
000023f8 b085 1011000010000101 101100 sub SP plus immediate
000023fa 425b 0100001001011011 010000 rsb  r3, r3
000023fc af03 1010111100000011 101011 A6-104
000023fe 803b 1000000000111011 100000 A5-82 1000 000
00002400 23c0 0010001111000000 001000 movs r3, #192  ; 0xc0
00002402 2200 0010001000000000 001000 movs r2, #0  ; 0x00
00002404 055b 0000010101011011 000001 lsls  r3, r3, #21
00002406 609a 0110000010011010 011000 str  r2, [r3, #8] ; 0x8
00002408 6a9a 0110101010011010 011010 ldr  r2, [r3, #40] ; 0x28
0000240a 6c9a 0110110010011010 011011 ldr  r2, [r3, #72] ; 0x48
0000240c 2206 0010001000000110 001000 movs r2, #6  ; 0x06
0000240e 615a 0110000101011010 011000 str  r2, [r3, #20] ; 0x14
00002410 22e0 0010001011100000 001000 movs r2, #224  ; 0xe0
00002412 02d2 0000001011010010 000000 lsls  r2, r2, #11
00002414 601a 0110000000011010 011000 str  r2, [r3, #0] ; 0x0
00002416 2201 0010001000000001 001000 movs r2, #1  ; 0x01
00002418 4c1f 0100110000011111 010011 ldr  r4, [pc, #124] ; 0x007c
0000241a 611a 0110000100011010 011000 str  r2, [r3, #16] ; 0x10
0000241c 609a 0110000010011010 011000 str  r2, [r3, #8] ; 0x8
0000241e 6826 0110100000100110 011010 ldr  r6, [r4, #0] ; 0x0
00002420 238c 0010001110001100 001000 movs r3, #140  ; 0x8c
00002422 0032 0000000000110010 000000 movs r2, r6
00002424 2584 0010010110000100 001001 movs r5, #132  ; 0x84
00002426 439a 0100001110011010 010000 bic  r2, r3

00002428 2003 0010000000000011 001000 movs r0, #3  ; 0x03
0000242a 4315 0100001100010101 010000 orr  r5, r2
0000242c f7fe 1111011111111110 111101 (32-bit)
0000242e fbb0 1111101110110000 111101 bl   b90

00002430 2302 0010001100000010 001000 movs r3, #2  ; 0x02
00002432 9301 1001001100000001 100100 str r1, [sp, #12]
00002434 2380 0010001110000000 001000 movs r3, #128  ; 0x80
00002436 6025 0110000000100101 011000 str  r5, [r4, #0] ; 0x0
00002438 011b 0000000100011011 000000 lsls  r3, r3, #4
0000243a 6065 0110000001100101 011000 str  r5, [r4, #4] ; 0x4
0000243c 60a5 0110000010100101 011000 str  r5, [r4, #8] ; 0x8
0000243e 60e5 0110000011100101 011000 str  r5, [r4, #12] ; 0xc
00002440 3b01 0011101100000001 001110 subs r3, #1  ; 0x01
00002442 d1fd 1101000111111101 110100 bne.n 2440 ; PC + -2

00002444 2300 0010001100000000 001000 movs r3, #0  ; 0x00
00002446 2204 0010001000000100 001000 movs r2, #4  ; 0x04
00002448 0019 0000000000011001 000000 movs r1, r3
0000244a 0018 0000000000011000 000000 movs r0, r3
0000244c f7ff 1111011111111111 111101 (32-bit)
0000244e f994 1111100110010100 111101 bl   1778

00002450 230c 0010001100001100 001000 movs r3, #12  ; 0x0c
00002452 2108 0010000100001000 001000 movs r1, #8  ; 0x08
00002454 439d 0100001110011101 010000 bic  r5, r3

00002456 2002 0010000000000010 001000 movs r0, #2  ; 0x02
00002458 430d 0100001100001101 010000 orr  r5, r1
0000245a f7fe 1111011111111110 111101 (32-bit)
0000245c fb99 1111101110011001 111101 bl   b90

0000245e 9901 1001100100000001 100110 A5-82 1001 100
00002460 2901 0010100100000001 001010 cmp r1, #1  ; 0x01
00002462 d116 1101000100010110 110100 bne.n 2492 ; PC + 48

00002464 220c 0010001000001100 001000 movs r2, #12  ; 0x0c
00002466 6026 0110000000100110 011000 str  r6, [r4, #0] ; 0x0
00002468 6066 0110000001100110 011000 str  r6, [r4, #4] ; 0x4
0000246a 4396 0100001110010110 010000 bic  r6, r2

0000246c 0033 0000000000110011 000000 movs r3, r6
0000246e 2608 0010011000001000 001001 movs r6, #8  ; 0x08
00002470 431e 0100001100011110 010000 orr  r6, r3
00002472 60a6 0110000010100110 011000 str  r6, [r4, #8] ; 0x8
00002474 2002 0010000000000010 001000 movs r0, #2  ; 0x02
00002476 60e6 0110000011100110 011000 str  r6, [r4, #12] ; 0xc
00002478 f7fe 1111011111111110 111101 (32-bit)
0000247a fb8a 1111101110001010 111101 bl   b90

0000247c 2300 0010001100000000 001000 movs r3, #0  ; 0x00
0000247e 2202 0010001000000010 001000 movs r2, #2  ; 0x02
00002480 0019 0000000000011001 000000 movs r1, r3
00002482 0038 0000000000111000 000000 movs r0, r7
00002484 f7ff 1111011111111111 111101 (32-bit)
00002486 f978 1111100101111000 111101 bl   1778

00002488 2200 0010001000000000 001000 movs r2, #0  ; 0x00
0000248a 4b04 0100101100000100 010010 ldr  r3, [pc, #16] ; 0x0010
0000248c 601a 0110000000011010 011000 str  r2, [r3, #0] ; 0x0
0000248e b005 1011000000000101 101100 add SP plus immediate
00002490 bdf0 1011110111110000 101111 pop {r4, r5, r6, r7, lr}
00002492 2301 0010001100000001 001000 movs r3, #1  ; 0x01
00002494 e7cd 1110011111001101 111001 b.n  2432

00002496 46c0 0100011011000000 010001 nop  ; (mov  r8, r8)

00002498 0008 0000000000001000 000000 movs r0, r1
0000249a 4002 0100000000000010 010000 ands  r2, r0
0000249c 800c 1000000000001100 100000 A5-82 1000 000
0000249e 4001 0100000000000001 010000 ands  r1, r0
000024a0 2090 0010000010010000 001000 movs r0, #144  ; 0x90
000024a2 4b07 0100101100000111 010010 ldr  r3, [pc, #28] ; 0x001c
000024a4 0080 0000000010000000 000000 lsls  r0, r0, #2
000024a6 b510 1011010100010000 101101 push {r4, lr}
000024a8 6018 0110000000011000 011000 str  r0, [r3, #0] ; 0x0
000024aa f7fe 1111011111111110 111101 (32-bit)
000024ac fb8b 1111101110001011 111101 bl   bc4

000024ae 2200 0010001000000000 001000 movs r2, #0  ; 0x00
000024b0 4b04 0100101100000100 010010 ldr  r3, [pc, #16] ; 0x0010
000024b2 605a 0110000001011010 011000 str  r2, [r3, #4] ; 0x4
000024b4 60da 0110000011011010 011000 str  r2, [r3, #12] ; 0xc
000024b6 615a 0110000101011010 011000 str  r2, [r3, #20] ; 0x14
000024b8 61da 0110000111011010 011000 str  r2, [r3, #28] ; 0x1c
000024ba 625a 0110001001011010 011000 str  r2, [r3, #36] ; 0x24 imm5
000024bc 62da 0110001011011010 011000 str  r2, [r3, #44] ; 0x2c imm5
000024be bd10 1011110100010000 101111 pop {r4, lr}
000024c0 e000 1110000000000000 111000 b.n  24c4

000024c2 4000 0100000000000000 010000 ands  r0, r0
000024c4 8000 1000000000000000 100000 A5-82 1000 000
000024c6 4001 0100000000000001 010000 ands  r1, r0
000024c8 b510 1011010100010000 101101 push {r4, lr}
000024ca f7ff 1111011111111111 111101 (32-bit)
000024cc ffe9 1111111111101001 111101 bl   24a0

000024ce f7ff 1111011111111111 111101 (32-bit)
000024d0 ff91 1111111110010001 111101 bl   23f4

000024d2 4b04 0100101100000100 010010 ldr  r3, [pc, #16] ; 0x0010
000024d4 681b 0110100000011011 011010 ldr  r3, [r3, #0] ; 0x0
000024d6 2b00 0010101100000000 001010 cmp r3, #0  ; 0x00
000024d8 d001 1101000000000001 110100 beq.n 24de ; PC + 6

000024da f7fe 1111011111111110 111101 (32-bit)
000024dc fd0d 1111110100001101 111101 bl   ef8

000024de 2000 0010000000000000 001000 movs r0, #0  ; 0x00
000024e0 bd10 1011110100010000 101111 pop {r4, lr}
000024e2 46c0 0100011011000000 010001 nop  ; (mov  r8, r8)

000024e4 0f64 0000111101100100 000011 lsrs  r4, r4, #29
000024e6 5010 0101000000010000 010100 str unimplemented form
000024e8 b5f8 1011010111111000 101101 push {r3, r4, r5, r6, r7, lr}
000024ea 4a2b 0100101000101011 010010 ldr  r2, [pc, #172] ; 0x00ac
000024ec 4b2b 0100101100101011 010010 ldr  r3, [pc, #172] ; 0x00ac
000024ee 6013 0110000000010011 011000 str  r3, [r2, #0] ; 0x0
000024f0 4a2b 0100101000101011 010010 ldr  r2, [pc, #172] ; 0x00ac
000024f2 6013 0110000000010011 011000 str  r3, [r2, #0] ; 0x0
000024f4 2202 0010001000000010 001000 movs r2, #2  ; 0x02
000024f6 4b2b 0100101100101011 010010 ldr  r3, [pc, #172] ; 0x00ac
000024f8 681b 0110100000011011 011010 ldr  r3, [r3, #0] ; 0x0
000024fa 4213 0100001000010011 010000 tst  r3, r2
000024fc d008 1101000000001000 110100 beq.n 2510 ; PC + 20

000024fe 2105 0010000100000101 001000 movs r1, #5  ; 0x05
00002500 4b29 0100101100101001 010010 ldr  r3, [pc, #164] ; 0x00a4
00002502 6019 0110000000011001 011000 str  r1, [r3, #0] ; 0x0
00002504 23d0 0010001111010000 001000 movs r3, #208  ; 0xd0
00002506 061b 0000011000011011 000001 lsls  r3, r3, #24
00002508 631a 0110001100011010 011000 str  r2, [r3, #48] ; 0x30 imm5
0000250a 641a 0110010000011010 011001 str  r2, [r3, #64] ; 0x40
0000250c 2200 0010001000000000 001000 movs r2, #0  ; 0x00
0000250e 641a 0110010000011010 011001 str  r2, [r3, #64] ; 0x40
00002510 23c8 0010001111001000 001000 movs r3, #200  ; 0xc8
00002512 005b 0000000001011011 000000 lsls  r3, r3, #1
00002514 3b01 0011101100000001 001110 subs r3, #1  ; 0x01
00002516 d1fd 1101000111111101 110100 bne.n 2514 ; PC + -2

00002518 20d0 0010000011010000 001000 movs r0, #208  ; 0xd0
0000251a 2409 0010010000001001 001001 movs r4, #9  ; 0x09
0000251c 2200 0010001000000000 001000 movs r2, #0  ; 0x00
0000251e 2504 0010010100000100 001001 movs r5, #4  ; 0x04
00002520 2101 0010000100000001 001000 movs r1, #1  ; 0x01
00002522 0600 0000011000000000 000001 lsls  r0, r0, #24
00002524 002b 0000000000101011 000000 movs r3, r5
00002526 3b01 0011101100000001 001110 subs r3, #1  ; 0x01
00002528 d1fd 1101000111111101 110100 bne.n 2526 ; PC + -2

0000252a 6883 0110100010000011 011010 ldr  r3, [r0, #8] ; 0x8
0000252c 3c01 0011110000000001 001111 subs r4, #1  ; 0x01
0000252e 085b 0000100001011011 000010 lsrs  r3, r3, #1
00002530 400b 0100000000001011 010000 ands  r3, r1
00002532 18d2 0001100011010010 000110 adds r2, r2, r3
00002534 2c00 0010110000000000 001011 cmp r4, #0  ; 0x00
00002536 d1f5 1101000111110101 110100 bne.n 2524 ; PC + -18

00002538 2a04 0010101000000100 001010 cmp r2, #4  ; 0x04
0000253a d923 1101100100100011 110110 bls.n 2584 ; PC + 74

0000253c 26c0 0010011011000000 001001 movs r6, #192  ; 0xc0
0000253e f7ff 1111011111111111 111101 (32-bit)
00002540 ffaf 1111111110101111 111101 bl   24a0

00002542 f7ff 1111011111111111 111101 (32-bit)
00002544 ff57 1111111101010111 111101 bl   23f4

00002546 0576 0000010101110110 000001 lsls  r6, r6, #21
00002548 2700 0010011100000000 001001 movs r7, #0  ; 0x00
0000254a 22c0 0010001011000000 001000 movs r2, #192  ; 0xc0
0000254c 60b7 0110000010110111 011000 str  r7, [r6, #8] ; 0x8
0000254e 6833 0110100000110011 011010 ldr  r3, [r6, #0] ; 0x0
00002550 4d16 0100110100010110 010011 ldr  r5, [pc, #88] ; 0x0058
00002552 4393 0100001110010011 010000 bic  r3, r2

00002554 b2e2 1011001011100010 101100 uxtb ; a6-172
00002556 4313 0100001100010011 010000 orr  r3, r2
00002558 6033 0110000000110011 011000 str  r3, [r6, #0] ; 0x0
0000255a 2301 0010001100000001 001000 movs r3, #1  ; 0x01
0000255c 0029 0000000000101001 000000 movs r1, r5
0000255e 60b3 0110000010110011 011000 str  r3, [r6, #8] ; 0x8
00002560 0038 0000000000111000 000000 movs r0, r7
00002562 f7ff 1111011111111111 111101 (32-bit)
00002564 f93d 1111100100111101 111101 bl   17e0

00002566 2201 0010001000000001 001000 movs r2, #1  ; 0x01
00002568 21fc 0010000111111100 001000 movs r1, #252  ; 0xfc
0000256a 0028 0000000000101000 000000 movs r0, r5
0000256c 4252 0100001001010010 010000 rsb  r2, r2
0000256e f000 1111000000000000 111100 (32-bit)
00002570 f833 1111100000110011 111100 bl   25d8

00002572 4b0f 0100101100001111 010010 ldr  r3, [pc, #60] ; 0x003c
00002574 681b 0110100000011011 011010 ldr  r3, [r3, #0] ; 0x0
00002576 4298 0100001010011000 010000 cmp  r0, r3
00002578 d008 1101000000001000 110100 beq.n 258c ; PC + 20

0000257a 2380 0010001110000000 001000 movs r3, #128  ; 0x80
0000257c 3440 0011010001000000 001101 adds r4, #64  ; 0x40
0000257e 019b 0000000110011011 000000 lsls  r3, r3, #6
00002580 429c 0100001010011100 010000 cmp  r4, r3
00002582 d1e1 1101000111100001 110100 bne.n 2548 ; PC + -58

00002584 2100 0010000100000000 001000 movs r1, #0  ; 0x00
00002586 0008 0000000000001000 000000 movs r0, r1
00002588 f7ff 1111011111111111 111101 (32-bit)
0000258a f9a4 1111100110100100 111101 bl   18d4

0000258c f7ff 1111011111111111 111101 (32-bit)
0000258e fee8 1111111011101000 111101 bl   2360

00002590 3501 0011010100000001 001101 adds r5, #1  ; 0x01
00002592 46be 0100011010111110 010001 mov  r7, r14
00002594 4728 0100011100101000 010001 bx r5

00002596 46c0 0100011011000000 010001 nop  ; (mov  r8, r8)

00002598 e000 1110000000000000 111000 b.n  259c

0000259a 4000 0100000000000000 010000 ands  r0, r0
0000259c 0240 0000001001000000 000000 lsls  r0, r0, #9
0000259e 0020 0000000000100000 000000 movs r0, r4
000025a0 f000 1111000000000000 111100 (32-bit)
000025a2 4000 0100000000000000 111100 To be implemented

000025a4 c000 1100000000000000 110000 ASTM, STMIA, STME A6-157
000025a6 4006 0100000000000110 010000 ands  r6, r0
000025a8 800c 1000000000001100 100000 A5-82 1000 000
000025aa 4001 0100000000000001 010000 ands  r1, r0
000025ac 1f00 0001111100000000 000111 subs  r0, r0, #4   ;0x4
000025ae 2004 0010000000000100 001000 movs r0, #4  ; 0x04
000025b0 1ffc 0001111111111100 000111 subs  r4, r7, #7   ;0x7
000025b2 2004 0010000000000100 001000 movs r0, #4  ; 0x04
000025b4 4b05 0100101100000101 010010 ldr  r3, [pc, #20] ; 0x0014
000025b6 b510 1011010100010000 101101 push {r4, lr}
000025b8 220a 0010001000001010 001000 movs r2, #10  ; 0x0a
000025ba 60d8 0110000011011000 011000 str  r0, [r3, #12] ; 0xc
000025bc 6119 0110000100011001 011000 str  r1, [r3, #16] ; 0x10
000025be 4804 0100100000000100 010010 ldr  r0, [pc, #16] ; 0x0010
000025c0 4904 0100100100000100 010010 ldr  r1, [pc, #16] ; 0x0010
000025c2 f7fe 1111011111111110 111101 (32-bit)
000025c4 fa1b 1111101000011011 111101 bl   9fc

000025c6 bf30 1011111100110000 101111 wfe ; Wait For Event
000025c8 e7fd 1110011111111101 111001 b.n  25c6

000025ca 46c0 0100011011000000 010001 nop  ; (mov  r8, r8)

000025cc 8000 1000000000000000 100000 A5-82 1000 000
000025ce 4005 0100000000000101 010000 ands  r5, r0
000025d0 1b99 0001101110011001 000110 sub reg A6-165
000025d2 0000 0000000000000000 000000 nop     ; movs r0, r0

000025d4 2000 0010000000000000 001000 movs r0, #0  ; 0x00
000025d6 2004 0010000000000100 001000 movs r0, #4  ; 0x04
000025d8 b530 1011010100110000 101101 push {r4, r5, lr}
000025da 1809 0001100000001001 000110 adds r1, r1, r0
000025dc 4d5d 0100110101011101 010011 ldr  r5, [pc, #372] ; 0x0174
000025de e00c 1110000000001100 111000 b.n  25fa

000025e0 7804 0111100000000100 011110 ldrb r4, [r0, #0]
000025e2 ba13 1011101000010011 101110 rev r3, r2
000025e4 405c 0100000001011100 010000 eors  r4, r3
000025e6 0624 0000011000100100 000001 lsls  r4, r4, #24
000025e8 2308 0010001100001000 001000 movs r3, #8  ; 0x08
000025ea 0064 0000000001100100 000000 lsls  r4, r4, #1
000025ec d300 1101001100000000 110100 bcc.n 25f0 ; PC + 4

000025ee 406c 0100000001101100 010000 eors  r4, r5
000025f0 3b01 0011101100000001 001110 subs r3, #1  ; 0x01
000025f2 d1fa 1101000111111010 110100 bne.n 25ea ; PC + -8

000025f4 0212 0000001000010010 000000 lsls  r2, r2, #8
000025f6 4062 0100000001100010 010000 eors  r2, r4
000025f8 3001 0011000000000001 001100 adds r0, #1  ; 0x01
000025fa 4288 0100001010001000 010000 cmp  r0, r1
000025fc dbf0 1101101111110000 110110 blt.n 25e0 ; PC + -28

000025fe 1c10 0001110000010000 000111 adds r0, r2, #0   ;0x0
00002600 bd30 1011110100110000 101111 pop {r4, r5, lr}
00002602 b530 1011010100110000 101101 push {r4, r5, lr}
00002604 4249 0100001001001001 010000 rsb  r1, r1
00002606 5c43 0101110001000011 010111 ldrb r3, [r0, r1]
00002608 3201 0011001000000001 001100 adds r2, #1  ; 0x01
0000260a 0a1c 0000101000011100 000010 lsrs  r4, r3, #8
0000260c 41ad 0100000110101101 010000 sbc  r5, r5
0000260e d105 1101000100000101 110100 bne.n 261c ; PC + 14

00002610 b25d 1011001001011101 101100 sxtb ; a6-168
00002612 3101 0011000100000001 001100 adds r1, #1  ; 0x01
00002614 5c44 0101110001000100 010111 ldrb r4, [r0, r1]
00002616 41aa 0100000110101010 010000 sbc  r2, r5
00002618 1b14 0001101100010100 000110 sub reg A6-165
0000261a 5d63 0101110101100011 010111 ldrb r3, [r4, r5]
0000261c 5553 0101010101010011 010101 strb r3, [r2, r5]
0000261e 3501 0011010100000001 001101 adds r5, #1  ; 0x01
00002620 d1fb 1101000111111011 110100 bne.n 261a ; PC + -6

00002622 3101 0011000100000001 001100 adds r1, #1  ; 0x01
00002624 d1ef 1101000111101111 110100 bne.n 2606 ; PC + -30

00002626 bd30 1011110100110000 101111 pop {r4, r5, lr}
00002628 4684 0100011010000100 010001 mov  r0, r12
0000262a 2a08 0010101000001000 001010 cmp r2, #8  ; 0x08
0000262c d33a 1101001100111010 110100 bcc.n 26a4 ; PC + 120

0000262e b470 1011010001110000 101101 push {r4, r5, r6}
00002630 e01c 1110000000011100 111000 b.n  266c

00002632 3a01 0011101000000001 001110 subs r2, #1  ; 0x01
00002634 5c8b 0101110010001011 010111 ldrb r3, [r1, r2]
00002636 5483 0101010010000011 010101 strb r3, [r0, r2]
00002638 d1fb 1101000111111011 110100 bne.n 2632 ; PC + -6

0000263a 4660 0100011001100000 010001 mov  r12, r0
0000263c 4770 0100011101110000 010001 bx lr

0000263e 46c0 0100011011000000 010001 nop  ; (mov  r8, r8)

00002640 4684 0100011010000100 010001 mov  r0, r12
00002642 2a08 0010101000001000 001010 cmp r2, #8  ; 0x08
00002644 d32e 1101001100101110 110100 bcc.n 26a4 ; PC + 96

00002646 1a43 0001101001000011 000110 sub reg A6-165
00002648 079b 0000011110011011 000001 lsls  r3, r3, #30
0000264a d1f2 1101000111110010 110100 bne.n 2632 ; PC + -24

0000264c b470 1011010001110000 101101 push {r4, r5, r6}
0000264e 1a09 0001101000001001 000110 sub reg A6-165
00002650 1c05 0001110000000101 000111 adds r5, r0, #0   ;0x0
00002652 0843 0000100001000011 000010 lsrs  r3, r0, #1
00002654 d302 1101001100000010 110100 bcc.n 265c ; PC + 8

00002656 5c44 0101110001000100 010111 ldrb r4, [r0, r1]
00002658 7004 0111000000000100 011100 ldrb r4, [r0, #0]
0000265a 3001 0011000000000001 001100 adds r0, #1  ; 0x01
0000265c 0883 0000100010000011 000010 lsrs  r3, r0, #2
0000265e d302 1101001100000010 110100 bcc.n 2666 ; PC + 8

00002660 5a44 0101101001000100 010110 ldrh r4, [r0, r1]
00002662 8004 1000000000000100 100000 A5-82 1000 000
00002664 3002 0011000000000010 001100 adds r0, #2  ; 0x02
00002666 1809 0001100000001001 000110 adds r1, r1, r0
00002668 1a2d 0001101000101101 000110 sub reg A6-165
0000266a 1952 0001100101010010 000110 adds r2, r2, r5
0000266c 3a10 0011101000010000 001110 subs r2, #16  ; 0x10
0000266e d303 1101001100000011 110100 bcc.n 2678 ; PC + 10

00002670 c978 1100100101111000 110010 ldmia r1!, {r3, r4, r5, r6}
00002672 c078 1100000001111000 110000 ASTM, STMIA, STME A6-157
00002674 3a10 0011101000010000 001110 subs r2, #16  ; 0x10
00002676 d2fb 1101001011111011 110100 bcs.n 2670 ; PC + -6

00002678 0752 0000011101010010 000001 lsls  r2, r2, #29
0000267a d301 1101001100000001 110100 bcc.n 2680 ; PC + 6

0000267c c918 1100100100011000 110010 ldmia r1!, {r3, r4}
0000267e c018 1100000000011000 110000 ASTM, STMIA, STME A6-157
00002680 0052 0000000001010010 000000 lsls  r2, r2, #1
00002682 d301 1101001100000001 110100 bcc.n 2688 ; PC + 6

00002684 c908 1100100100001000 110010 ldmia r1!, {r3}
00002686 c008 1100000000001000 110000 ASTM, STMIA, STME A6-157
00002688 d009 1101000000001001 110100 beq.n 269e ; PC + 22

0000268a 0052 0000000001010010 000000 lsls  r2, r2, #1
0000268c d304 1101001100000100 110100 bcc.n 2698 ; PC + 12

0000268e 880b 1000100000001011 100010 A5-82 1000 100
00002690 8003 1000000000000011 100000 A5-82 1000 000
00002692 d004 1101000000000100 110100 beq.n 269e ; PC + 12

00002694 3102 0011000100000010 001100 adds r1, #2  ; 0x02
00002696 3002 0011000000000010 001100 adds r0, #2  ; 0x02
00002698 d001 1101000000000001 110100 beq.n 269e ; PC + 6

0000269a 780b 0111100000001011 011110 ldrb r3, [r1, #0]
0000269c 7003 0111000000000011 011100 ldrb r3, [r0, #0]
0000269e bc70 1011110001110000 101111 pop {r4, r5, r6}
000026a0 4660 0100011001100000 010001 mov  r12, r0
000026a2 4770 0100011101110000 010001 bx lr

000026a4 a309 1010001100001001 101000 add r3, pc, #36 ; #24
000026a6 0092 0000000010010010 000000 lsls  r2, r2, #2
000026a8 1a9b 0001101010011011 000110 sub reg A6-165
000026aa 3301 0011001100000001 001100 adds r3, #1  ; 0x01
000026ac 4718 0100011100011000 010001 bx r3

000026ae 46c0 0100011011000000 010001 nop  ; (mov  r8, r8)

000026b0 798b 0111100110001011 011110 ldrb r3, [r1, #6]
000026b2 7183 0111000110000011 011100 ldrb r3, [r0, #6]
000026b4 794b 0111100101001011 011110 ldrb r3, [r1, #5]
000026b6 7143 0111000101000011 011100 ldrb r3, [r0, #5]
000026b8 790b 0111100100001011 011110 ldrb r3, [r1, #4]
000026ba 7103 0111000100000011 011100 ldrb r3, [r0, #4]
000026bc 78cb 0111100011001011 011110 ldrb r3, [r1, #3]
000026be 70c3 0111000011000011 011100 ldrb r3, [r0, #3]
000026c0 788b 0111100010001011 011110 ldrb r3, [r1, #2]
000026c2 7083 0111000010000011 011100 ldrb r3, [r0, #2]
000026c4 784b 0111100001001011 011110 ldrb r3, [r1, #1]
000026c6 7043 0111000001000011 011100 ldrb r3, [r0, #1]
000026c8 780b 0111100000001011 011110 ldrb r3, [r1, #0]
000026ca 7003 0111000000000011 011100 ldrb r3, [r0, #0]
000026cc 4660 0100011001100000 010001 mov  r12, r0
000026ce 4770 0100011101110000 010001 bx lr

000026d0 4684 0100011010000100 010001 mov  r0, r12
000026d2 b2c9 1011001011001001 101100 uxtb ; a6-172
000026d4 020b 0000001000001011 000000 lsls  r3, r1, #8
000026d6 4319 0100001100011001 010000 orr  r1, r3
000026d8 e011 1110000000010001 111000 b.n  26fe

000026da 46c0 0100011011000000 010001 nop  ; (mov  r8, r8)

000026dc 4684 0100011010000100 010001 mov  r0, r12
000026de 2a08 0010101000001000 001010 cmp r2, #8  ; 0x08
000026e0 d32a 1101001100101010 110100 bcc.n 2738 ; PC + 88

000026e2 0843 0000100001000011 000010 lsrs  r3, r0, #1
000026e4 d301 1101001100000001 110100 bcc.n 26ea ; PC + 6

000026e6 7001 0111000000000001 011100 ldrb r1, [r0, #0]
000026e8 3001 0011000000000001 001100 adds r0, #1  ; 0x01
000026ea b2c9 1011001011001001 101100 uxtb ; a6-172
000026ec 020b 0000001000001011 000000 lsls  r3, r1, #8
000026ee 4319 0100001100011001 010000 orr  r1, r3
000026f0 0883 0000100010000011 000010 lsrs  r3, r0, #2
000026f2 d301 1101001100000001 110100 bcc.n 26f8 ; PC + 6

000026f4 8001 1000000000000001 100000 A5-82 1000 000
000026f6 3002 0011000000000010 001100 adds r0, #2  ; 0x02
000026f8 4663 0100011001100011 010001 mov  r12, r3
000026fa 1a1b 0001101000011011 000110 sub reg A6-165
000026fc 18d2 0001100011010010 000110 adds r2, r2, r3
000026fe ba0b 1011101000001011 101110 rev r3, r1
00002700 4319 0100001100011001 010000 orr  r1, r3
00002702 1c0b 0001110000001011 000111 adds r3, r1, #0   ;0x0
00002704 3a10 0011101000010000 001110 subs r2, #16  ; 0x10
00002706 d307 1101001100000111 110100 bcc.n 2718 ; PC + 18

00002708 b430 1011010000110000 101101 push {r4, r5}
0000270a 1c0c 0001110000001100 000111 adds r4, r1, #0   ;0x0
0000270c 1c0d 0001110000001101 000111 adds r5, r1, #0   ;0x0
0000270e 46c0 0100011011000000 010001 nop  ; (mov  r8, r8)

00002710 c03a 1100000000111010 110000 ASTM, STMIA, STME A6-157
00002712 3a10 0011101000010000 001110 subs r2, #16  ; 0x10
00002714 d2fc 1101001011111100 110100 bcs.n 2710 ; PC + -4

00002716 bc30 1011110000110000 101111 pop {r4, r5}
00002718 0752 0000011101010010 000001 lsls  r2, r2, #29
0000271a d300 1101001100000000 110100 bcc.n 271e ; PC + 4

0000271c c00a 1100000000001010 110000 ASTM, STMIA, STME A6-157
0000271e 0052 0000000001010010 000000 lsls  r2, r2, #1
00002720 d300 1101001100000000 110100 bcc.n 2724 ; PC + 4

00002722 c002 1100000000000010 110000 ASTM, STMIA, STME A6-157
00002724 d006 1101000000000110 110100 beq.n 2734 ; PC + 16

00002726 0052 0000000001010010 000000 lsls  r2, r2, #1
00002728 d302 1101001100000010 110100 bcc.n 2730 ; PC + 8

0000272a 8001 1000000000000001 100000 A5-82 1000 000
0000272c d002 1101000000000010 110100 beq.n 2734 ; PC + 8

0000272e 3002 0011000000000010 001100 adds r0, #2  ; 0x02
00002730 d000 1101000000000000 110100 beq.n 2734 ; PC + 4

00002732 7001 0111000000000001 011100 ldrb r1, [r0, #0]
00002734 4660 0100011001100000 010001 mov  r12, r0
00002736 4770 0100011101110000 010001 bx lr

00002738 a305 1010001100000101 101000 add r3, pc, #20 ; #14
0000273a 1a9b 0001101010011011 000110 sub reg A6-165
0000273c 1a9b 0001101010011011 000110 sub reg A6-165
0000273e 3301 0011001100000001 001100 adds r3, #1  ; 0x01
00002740 4718 0100011100011000 010001 bx r3

00002742 7181 0111000110000001 011100 ldrb r1, [r0, #6]
00002744 7141 0111000101000001 011100 ldrb r1, [r0, #5]
00002746 7101 0111000100000001 011100 ldrb r1, [r0, #4]
00002748 70c1 0111000011000001 011100 ldrb r1, [r0, #3]
0000274a 7081 0111000010000001 011100 ldrb r1, [r0, #2]
0000274c 7041 0111000001000001 011100 ldrb r1, [r0, #1]
0000274e 7001 0111000000000001 011100 ldrb r1, [r0, #0]
00002750 4660 0100011001100000 010001 mov  r12, r0
00002752 4770 0100011101110000 010001 bx lr

00002754 1db7 0001110110110111 000111 adds r7, r6, #6   ;0x6
00002756 04c1 0000010011000001 000001 lsls  r1, r0, #19
00002758 b505 1011010100000101 101101 push {r0, r2, lr}
0000275a 4608 0100011000001000 010001 mov  r1, r0
0000275c 461a 0100011000011010 010001 mov  r3, r2
0000275e bd0a 1011110100001010 101111 pop {r1, r3, lr}
00002760 0dc2 0000110111000010 000011 lsrs  r2, r0, #23
00002762 0240 0000001001000000 000000 lsls  r0, r0, #9
00002764 0a40 0000101001000000 000010 lsrs  r0, r0, #9
00002766 2401 0010010000000001 001001 movs r4, #1  ; 0x01
00002768 05e4 0000010111100100 000001 lsls  r4, r4, #23
0000276a 4320 0100001100100000 010000 orr  r0, r4
0000276c 2aff 0010101011111111 001010 cmp r2, #255  ; 0xff
0000276e b2d2 1011001011010010 101100 uxtb ; a6-172
00002770 d900 1101100100000000 110110 bls.n 2774 ; PC + 4

00002772 4240 0100001001000000 010000 rsb  r0, r0
00002774 3a01 0011101000000001 001110 subs r2, #1  ; 0x01
00002776 2afe 0010101011111110 001010 cmp r2, #254  ; 0xfe
00002778 d201 1101001000000001 110100 bcs.n 277e ; PC + 6

0000277a 3a7e 0011101001111110 001110 subs r2, #126  ; 0x7e
0000277c 4770 0100011101110000 010001 bx lr

0000277e 2800 0010100000000000 001010 cmp r0, #0  ; 0x00
00002780 4620 0100011000100000 010001 mov  r4, r0
00002782 d500 1101010100000000 110101 bpl.n 2786 ; PC + 4

00002784 4240 0100001001000000 010000 rsb  r0, r0
00002786 3a7e 0011101001111110 001110 subs r2, #126  ; 0x7e
00002788 0092 0000000010010010 000000 lsls  r2, r2, #2
0000278a 3280 0011001010000000 001100 adds r2, #128  ; 0x80
0000278c 4770 0100011101110000 010001 bx lr

0000278e 0fc4 0000111111000100 000011 lsrs  r4, r0, #31
00002790 07e4 0000011111100100 000001 lsls  r4, r4, #31
00002792 d504 1101010100000100 110101 bpl.n 279e ; PC + 12

00002794 2d00 0010110100000000 001011 cmp r5, #0  ; 0x00
00002796 d000 1101000000000000 110100 beq.n 279a ; PC + 4

00002798 3001 0011000000000001 001100 adds r0, #1  ; 0x01
0000279a 4240 0100001001000000 010000 rsb  r0, r0
0000279c d403 1101010000000011 110101 bmi.n 27a6 ; PC + 10

0000279e 3a01 0011101000000001 001110 subs r2, #1  ; 0x01
000027a0 1800 0001100000000000 000110 adds r0, r0, r0
000027a2 d012 1101000000010010 110100 beq.n 27ca ; PC + 40

000027a4 d5fb 1101010111111011 110101 bpl.n 279e ; PC + -6

000027a6 3281 0011001010000001 001100 adds r2, #129  ; 0x81
000027a8 d101 1101000100000001 110100 bne.n 27ae ; PC + 6

000027aa 3080 0011000010000000 001100 adds r0, #128  ; 0x80
000027ac d205 1101001000000101 110100 bcs.n 27ba ; PC + 14

000027ae 3080 0011000010000000 001100 adds r0, #128  ; 0x80
000027b0 d203 1101001000000011 110100 bcs.n 27ba ; PC + 10

000027b2 2d00 0010110100000000 001011 cmp r5, #0  ; 0x00
000027b4 d00f 1101000000001111 110100 beq.n 27d6 ; PC + 34

000027b6 0040 0000000001000000 000000 lsls  r0, r0, #1
000027b8 3a01 0011101000000001 001110 subs r2, #1  ; 0x01
000027ba 2afe 0010101011111110 001010 cmp r2, #254  ; 0xfe
000027bc da06 1101101000000110 110110 bge.n 27cc ; PC + 16

000027be 3201 0011001000000001 001100 adds r2, #1  ; 0x01
000027c0 dd07 1101110100000111 110111 ble.n 27d2 ; PC + 18

000027c2 0a40 0000101001000000 000010 lsrs  r0, r0, #9
000027c4 05d2 0000010111010010 000001 lsls  r2, r2, #23
000027c6 4310 0100001100010000 010000 orr  r0, r2
000027c8 4320 0100001100100000 010000 orr  r0, r4
000027ca 4770 0100011101110000 010001 bx lr

000027cc 20ff 0010000011111111 001000 movs r0, #255  ; 0xff
000027ce 05c0 0000010111000000 000001 lsls  r0, r0, #23
000027d0 e7fa 1110011111111010 111001 b.n  27c8

000027d2 2000 0010000000000000 001000 movs r0, #0  ; 0x00
000027d4 4770 0100011101110000 010001 bx lr

000027d6 0605 0000011000000101 000001 lsls  r5, r0, #24
000027d8 d1ed 1101000111101101 110100 bne.n 27b6 ; PC + -34

000027da 0a40 0000101001000000 000010 lsrs  r0, r0, #9
000027dc 0280 0000001010000000 000000 lsls  r0, r0, #10
000027de e7eb 1110011111101011 111001 b.n  27b8

000027e0 b283 1011001010000011 101100 uxth ; a6-173
000027e2 140c 0001010000001100 000101 asr   r4, r1, #80
000027e4 4363 0100001101100011 010000 muls  r3, r4
000027e6 1404 0001010000000100 000101 asr   r4, r0, #80
000027e8 b28d 1011001010001101 101100 uxth ; a6-173
000027ea 436c 0100001101101100 010000 muls  r4, r5
000027ec 191b 0001100100011011 000110 adds r3, r3, r4
000027ee b284 1011001010000100 101100 uxth ; a6-173
000027f0 436c 0100001101101100 010000 muls  r4, r5
000027f2 0425 0000010000100101 000001 lsls  r5, r4, #16
000027f4 0c24 0000110000100100 000011 lsrs  r4, r4, #16
000027f6 191b 0001100100011011 000110 adds r3, r3, r4
000027f8 1400 0001010000000000 000101 asr   r0, r0, #80
000027fa 1409 0001010000001001 000101 asr   r1, r1, #80
000027fc 4348 0100001101001000 010000 muls  r0, r1
