000000ee 4873 0100100001110011 010010 ldr  r0, [pc, #460] ; 0x01cc
000000f0 6801 0110100000000001 011010 ldr  r1, [r0, #0] ; 0x0 imm8, A6-158
000000f2 2900 0010100100000000 001010 cmp r1, #0  ; 0x00
000000f4 d11f 1101000100011111 110100 bne.n 136 ; PC + 66

000000f6 f7ff 1111011111111111 111101 (32-bit)
000000f8 ff9d 1111111110011101 111101 bl   34

000000fa 4971 0100100101110001 010010 ldr  r1, [pc, #452] ; 0x01c4
000000fc 4b71 0100101101110001 010010 ldr  r3, [pc, #452] ; 0x01c4
000000fe 680a 0110100000001010 011010 ldr  r2, [r1, #0] ; 0x0 imm8, A6-158
00000100 421a 0100001000011010 010000 tst  r2, r3
00000102 d001 1101000000000001 110100 beq.n 108 ; PC + 6

00000104 600b 0110000000001011 011000 str  r3, [r1, #0] ; 0x0 imm8, A6-158
00000106 e793 1110011110010011 111001 b.n  30

00000108 4f6f 0100111101101111 010011 ldr  r7, [pc, #444] ; 0x01bc
0000010a 4e70 0100111001110000 010011 ldr  r6, [pc, #448] ; 0x01c0
0000010c cf0f 1100111100001111 110011 LDM, LDMIA, LDMFD A6-125
0000010e 42b0 0100001010110000 010000 cmp  r0, r6
00000110 d107 1101000100000111 110100 bne.n 122 ; PC + 18

00000112 4059 0100000001011001 010000 eors  r1, r3
00000114 1840 0001100001000000 000110 adds r0, r0, r1
00000116 d104 1101000100000100 110100 bne.n 122 ; PC + 12

00000118 3f10 0011111100010000 001111 subs imm A6-164
0000011a 6038 0110000000111000 011000 str  r0, [r7, #0] ; 0x0 imm8, A6-158
0000011c f382 1111001110000010 111100 (32-bit)
0000011e 8808 1000100000001000 111100 msr MSP, r2

00000120 4798 0100011110011000 010001 blx  r3

00000122 f002 1111000000000010 111100 (32-bit)
00000124 f9e1 1111100111100001 111100 bl   24e8

00000126 bf20 1011111100100000 101111 wfe ; Wait For Event
00000128 6d21 0110110100100001 011011 ldr  r1, [r4, #80] ; 0x50 imm8, A6-158
0000012a 0889 0000100010001001 000010 lsrs  r1, r1, #2
0000012c d3fb 1101001111111011 110100 bcc.n 126 ; PC + -6

0000012e 6560 0110010101100000 011001 str  r0, [r4, #84] ; 0x54 imm8, A6-158
00000130 bf40 1011111101000000 101111 sev ; a6-156
00000132 1c6e 0001110001101110 000111 adds r6, r5, #1   ;0x1
00000134 4730 0100011100110000 010001 bx  r6

00000136 4c61 0100110001100001 010011 ldr  r4, [pc, #388] ; 0x0184
00000138 4f65 0100111101100101 010011 ldr  r7, [pc, #404] ; 0x0194
0000013a 2104 0010000100000100 001000 movs r1, #4  ; 0x04
0000013c 6139 0110000100111001 011000 str  r1, [r7, #16] ; 0x10 imm8, A6-158
0000013e 6da1 0110110110100001 011011 ldr  r1, [r4, #88] ; 0x58 imm8, A6-158
00000140 6d21 0110110100100001 011011 ldr  r1, [r4, #80] ; 0x50 imm8, A6-158
00000142 0849 0000100001001001 000010 lsrs  r1, r1, #1
00000144 d2fb 1101001011111011 110100 bcs.n 13e ; PC + -6

00000146 a50b 1010010100001011 101001 A6-106
00000148 2000 0010000000000000 001000 movs r0, #0  ; 0x00
0000014a f7ff 1111011111111111 111101 (32-bit)
0000014c ffed 1111111111101101 111101 bl   128

0000014e 2801 0010100000000001 001010 cmp r0, #1  ; 0x01
00000150 d1f6 1101000111110110 110100 bne.n 140 ; PC + -16

00000152 f7ff 1111011111111111 111101 (32-bit)
00000154 ffe9 1111111111101001 111101 bl   128

00000156 60b8 0110000010111000 011000 str  r0, [r7, #8] ; 0x8 imm8, A6-158
00000158 f7ff 1111011111111111 111101 (32-bit)
0000015a ffe6 1111111111100110 111101 bl   128

0000015c f380 1111001110000000 111100 (32-bit)
0000015e 8808 1000100000001000 111100 msr MSP, r0

00000160 f7ff 1111011111111111 111101 (32-bit)
00000162 ffe2 1111111111100010 111101 bl   128

00000164 a501 1010010100000001 101001 A6-106
00000166 f7ff 1111011111111111 111101 (32-bit)
00000168 ffdf 1111111111011111 111101 bl   128

0000016a 46c0 0100011011000000 010001 nop  ; mov  r8, r8

0000016c 2100 0010000100000000 001000 movs r1, #0  ; 0x00
0000016e 6139 0110000100111001 011000 str  r1, [r7, #16] ; 0x10 imm8, A6-158
00000170 4780 0100011110000000 010001 blx  r0

00000172 e75d 1110011101011101 111001 b.n  30

00000174 bf20 1011111100100000 101111 wfe ; Wait For Event
00000176 6d20 0110110100100000 011011 ldr  r0, [r4, #80] ; 0x50 imm8, A6-158
00000178 0840 0000100001000000 000010 lsrs  r0, r0, #1
0000017a d3fb 1101001111111011 110100 bcc.n 174 ; PC + -6

0000017c 6da0 0110110110100000 011011 ldr  r0, [r4, #88] ; 0x58 imm8, A6-158
0000017e 2800 0010100000000000 001010 cmp r0, #0  ; 0x00
00000180 d0de 1101000011011110 110100 beq.n 140 ; PC + -64

00000182 4770 0100011101110000 010001 bx  r14

00000184 2601 0010011000000001 001001 movs r6, #1  ; 0x01
00000186 4337 0100001100110111 010000 orr  r7, r6
00000188 47b8 0100011110111000 010001 blx  r7

0000018a be00 1011111000000000 101111 Hint instruction code 111000
0000018c e7fa 1110011111111010 111001 b.n  184

0000018e 3811 0011100000010001 001110 subs imm A6-164
00000190 7ac0 0111101011000000 011110 strb r0, [r0, #11]
00000192 bd00 1011110100000000 101111 pop {r14}
00000194 b500 1011010100000000 101101 push {r14}
00000196 4042 0100000001000010 010000 eors  r2, r0
00000198 2a00 0010101000000000 001010 cmp r2, #0  ; 0x00
0000019a f000 1111000000000000 111100 (32-bit)
0000019c f802 1111100000000010 111100 bl   1a2

0000019e d2f6 1101001011110110 110100 bcs.n 18e ; PC + -16

000001a0 468e 0100011010001110 010001 mov  r1, r14
000001a2 4670 0100011001110000 010001 mov  r14, r0
000001a4 4700 0100011100000000 010001 bx  r0

000001a6 0020 0000000000100000 000000 movs r0, r4
000001a8 2b69 0010101101101001 001010 cmp r3, #105  ; 0x69
000001aa 0000 0000000000000000 000000 nop     ; movs r0, r0

000001ac 2b65 0010101101100101 001010 cmp r3, #101  ; 0x65
000001ae 0000 0000000000000000 000000 nop     ; movs r0, r0

000001b0 2c31 0010110000110001 001011 cmp r4, #49  ; 0x31
000001b2 0000 0000000000000000 000000 nop     ; movs r0, r0

000001b4 2cfd 0010110011111101 001011 cmp r4, #253  ; 0xfd
000001b6 0000 0000000000000000 000000 nop     ; movs r0, r0

000001b8 2827 0010100000100111 001010 cmp r0, #39  ; 0x27
000001ba 0000 0000000000000000 000000 nop     ; movs r0, r0

000001bc 2827 0010100000100111 001010 cmp r0, #39  ; 0x27
000001be 0000 0000000000000000 000000 nop     ; movs r0, r0

000001c0 2db1 0010110110110001 001011 cmp r5, #177  ; 0xb1
000001c2 0000 0000000000000000 000000 nop     ; movs r0, r0

000001c4 284d 0010100001001101 001010 cmp r0, #77  ; 0x4d
000001c6 0000 0000000000000000 000000 nop     ; movs r0, r0

000001c8 284f 0010100001001111 001010 cmp r0, #79  ; 0x4f
000001ca 0000 0000000000000000 000000 nop     ; movs r0, r0

000001cc 2881 0010100010000001 001010 cmp r0, #129  ; 0x81
000001ce 0000 0000000000000000 000000 nop     ; movs r0, r0

000001d0 2883 0010100010000011 001010 cmp r0, #131  ; 0x83
000001d2 0000 0000000000000000 000000 nop     ; movs r0, r0

000001d4 28d7 0010100011010111 001010 cmp r0, #215  ; 0xd7
000001d6 0000 0000000000000000 000000 nop     ; movs r0, r0

000001d8 28d9 0010100011011001 001010 cmp r0, #217  ; 0xd9
000001da 0000 0000000000000000 000000 nop     ; movs r0, r0

000001dc 28e7 0010100011100111 001010 cmp r0, #231  ; 0xe7
000001de 0000 0000000000000000 000000 nop     ; movs r0, r0

000001e0 28e9 0010100011101001 001010 cmp r0, #233  ; 0xe9
000001e2 0000 0000000000000000 000000 nop     ; movs r0, r0

000001e4 29bf 0010100110111111 001010 cmp r1, #191  ; 0xbf
000001e6 0000 0000000000000000 000000 nop     ; movs r0, r0

000001e8 2975 0010100101110101 001010 cmp r1, #117  ; 0x75
000001ea 0000 0000000000000000 000000 nop     ; movs r0, r0

000001ec 29dd 0010100111011101 001010 cmp r1, #221  ; 0xdd
000001ee 0000 0000000000000000 000000 nop     ; movs r0, r0

000001f0 0031 0000000000110001 000000 movs r1, r6
000001f2 0000 0000000000000000 000000 nop     ; movs r0, r0

000001f4 29e5 0010100111100101 001010 cmp r1, #229  ; 0xe5
000001f6 0000 0000000000000000 000000 nop     ; movs r0, r0

000001f8 2a4f 0010101001001111 001010 cmp r2, #79  ; 0x4f
000001fa 0000 0000000000000000 000000 nop     ; movs r0, r0

000001fc 280b 0010100000001011 001010 cmp r0, #11  ; 0x0b
000001fe 0000 0000000000000000 000000 nop     ; movs r0, r0

00000200 2a73 0010101001110011 001010 cmp r2, #115  ; 0x73
00000202 0000 0000000000000000 000000 nop     ; movs r0, r0

00000204 28af 0010100010101111 001010 cmp r0, #175  ; 0xaf
00000206 0000 0000000000000000 000000 nop     ; movs r0, r0

00000208 28b1 0010100010110001 001010 cmp r0, #177  ; 0xb1
0000020a 0000 0000000000000000 000000 nop     ; movs r0, r0

0000020c 289d 0010100010011101 001010 cmp r0, #157  ; 0x9d
0000020e 0000 0000000000000000 000000 nop     ; movs r0, r0

00000210 289f 0010100010011111 001010 cmp r0, #159  ; 0x9f
00000212 0000 0000000000000000 000000 nop     ; movs r0, r0

00000214 3581 0011010110000001 001101 adds r5, #129  ; 0x81
00000216 0000 0000000000000000 000000 nop     ; movs r0, r0

00000218 3583 0011010110000011 001101 adds r5, #131  ; 0x83
0000021a 0000 0000000000000000 000000 nop     ; movs r0, r0

0000021c 358b 0011010110001011 001101 adds r5, #139  ; 0x8b
0000021e 0000 0000000000000000 000000 nop     ; movs r0, r0

00000220 358d 0011010110001101 001101 adds r5, #141  ; 0x8d
00000222 0000 0000000000000000 000000 nop     ; movs r0, r0

00000224 363d 0011011000111101 001101 adds r6, #61  ; 0x3d
00000226 0000 0000000000000000 000000 nop     ; movs r0, r0

00000228 2e61 0010111001100001 001011 cmp r6, #97  ; 0x61
0000022a 0000 0000000000000000 000000 nop     ; movs r0, r0

0000022c 2e55 0010111001010101 001011 cmp r6, #85  ; 0x55
0000022e 0000 0000000000000000 000000 nop     ; movs r0, r0

00000230 2fbd 0010111110111101 001011 cmp r7, #189  ; 0xbd
00000232 0000 0000000000000000 000000 nop     ; movs r0, r0

00000234 3119 0011000100011001 001100 adds r1, #25  ; 0x19
00000236 0000 0000000000000000 000000 nop     ; movs r0, r0

00000238 346b 0011010001101011 001101 adds r4, #107  ; 0x6b
0000023a 0000 0000000000000000 000000 nop     ; movs r0, r0

0000023c 346b 0011010001101011 001101 adds r4, #107  ; 0x6b
0000023e 0000 0000000000000000 000000 nop     ; movs r0, r0

00000240 32dd 0011001011011101 001100 adds r2, #221  ; 0xdd
00000242 0000 0000000000000000 000000 nop     ; movs r0, r0

00000244 3565 0011010101100101 001101 adds r5, #101  ; 0x65
00000246 0000 0000000000000000 000000 nop     ; movs r0, r0

00000248 3567 0011010101100111 001101 adds r5, #103  ; 0x67
0000024a 0000 0000000000000000 000000 nop     ; movs r0, r0

0000024c 3573 0011010101110011 001101 adds r5, #115  ; 0x73
0000024e 0000 0000000000000000 000000 nop     ; movs r0, r0

00000250 3575 0011010101110101 001101 adds r5, #117  ; 0x75
00000252 0000 0000000000000000 000000 nop     ; movs r0, r0

00000254 36c3 0011011011000011 001101 adds r6, #195  ; 0xc3
00000256 0000 0000000000000000 000000 nop     ; movs r0, r0

00000258 36c5 0011011011000101 001101 adds r6, #197  ; 0xc5
0000025a 0000 0000000000000000 000000 nop     ; movs r0, r0

0000025c 36bb 0011011010111011 001101 adds r6, #187  ; 0xbb
0000025e 0000 0000000000000000 000000 nop     ; movs r0, r0

00000260 36bd 0011011010111101 001101 adds r6, #189  ; 0xbd
00000262 0000 0000000000000000 000000 nop     ; movs r0, r0

00000264 3831 0011100000110001 001110 subs imm A6-164
00000266 0000 0000000000000000 000000 nop     ; movs r0, r0

00000268 3841 0011100001000001 001110 subs imm A6-164
0000026a 0000 0000000000000000 000000 nop     ; movs r0, r0

0000026c 3811 0011100000010001 001110 subs imm A6-164
0000026e 0000 0000000000000000 000000 nop     ; movs r0, r0

00000270 0031 0000000000110001 000000 movs r1, r6
00000272 0000 0000000000000000 000000 nop     ; movs r0, r0

00000274 3b45 0011101101000101 001110 subs imm A6-164
00000276 0000 0000000000000000 000000 nop     ; movs r0, r0

00000278 3be1 0011101111100001 001110 subs imm A6-164
0000027a 0000 0000000000000000 000000 nop     ; movs r0, r0

0000027c 346f 0011010001101111 001101 adds r4, #111  ; 0x6f
0000027e 0000 0000000000000000 000000 nop     ; movs r0, r0

00000280 3931 0011100100110001 001110 subs imm A6-164
00000282 0000 0000000000000000 000000 nop     ; movs r0, r0

00000284 36d1 0011011011010001 001101 adds r6, #209  ; 0xd1
00000286 0000 0000000000000000 000000 nop     ; movs r0, r0

00000288 36d3 0011011011010011 001101 adds r6, #211  ; 0xd3
0000028a 0000 0000000000000000 000000 nop     ; movs r0, r0

0000028c 36cb 0011011011001011 001101 adds r6, #203  ; 0xcb
0000028e 0000 0000000000000000 000000 nop     ; movs r0, r0

00000290 36cd 0011011011001101 001101 adds r6, #205  ; 0xcd
00000292 0000 0000000000000000 000000 nop     ; movs r0, r0

00000294 35c1 0011010111000001 001101 adds r5, #193  ; 0xc1
00000296 0000 0000000000000000 000000 nop     ; movs r0, r0

00000298 35c3 0011010111000011 001101 adds r5, #195  ; 0xc3
0000029a 0000 0000000000000000 000000 nop     ; movs r0, r0

0000029c 35db 0011010111011011 001101 adds r5, #219  ; 0xdb
0000029e 0000 0000000000000000 000000 nop     ; movs r0, r0

000002a0 35dd 0011010111011101 001101 adds r5, #221  ; 0xdd
000002a2 0000 0000000000000000 000000 nop     ; movs r0, r0

000002a4 3663 0011011001100011 001101 adds r6, #99  ; 0x63
000002a6 0000 0000000000000000 000000 nop     ; movs r0, r0

000002a8 480a 0100100000001010 010010 ldr  r0, [pc, #40] ; 0x0028
000002aa f380 1111001110000000 111100 (32-bit)
000002ac 8808 1000100000001000 111100 msr MSP, r0

000002ae f001 1111000000000001 111100 (32-bit)
000002b0 ff1b 1111111100011011 111100 bl   20e8

000002b2 0000 0000000000000000 000000 nop     ; movs r0, r0

000002b4 4000 0100000000000000 010000 ands  r0, r0
000002b6 4000 0100000000000000 010000 ands  r0, r0
000002b8 80a0 1000000010100000 100000 A5-82 1000 000
000002ba 4000 0100000000000000 010000 ands  r0, r0
000002bc 0000 0000000000000000 000000 nop     ; movs r0, r0

000002be d000 1101000000000000 110100 beq.n 2c2 ; PC + 4

000002c0 4008 0100000000001000 010000 ands  r0, r1
000002c2 4006 0100000000000110 010000 ands  r6, r0
000002c4 0000 0000000000000000 000000 nop     ; movs r0, r0

000002c6 0100 0000000100000000 000000 lsls r0, r0, #4
000002c8 801c 1000000000011100 100000 A5-82 1000 000
000002ca 4005 0100000000000101 010000 ands  r5, r0
000002cc c0d3 1100000011010011 110000 ASTM, STMIA, STME A6-157
000002ce b007 1011000000000111 101100 add SP plus immediate
000002d0 ed00 1110110100000000 111011 (32-bit)
000002d2 e000 1110000000000000 111011 To be implemented

000002d4 08b0 0000100010110000 000010 lsrs  r0, r6, #2
000002d6 5010 0101000000010000 010100 str unimplemented form
000002d8 4933 0100100100110011 010010 ldr  r1, [pc, #204] ; 0x00cc
000002da 0842 0000100001000010 000010 lsrs  r2, r0, #1
000002dc 400a 0100000000001010 010000 ands  r2, r1
000002de 0883 0000100010000011 000010 lsrs  r3, r0, #2
000002e0 400b 0100000000001011 010000 ands  r3, r1
000002e2 4008 0100000000001000 010000 ands  r0, r1
000002e4 1880 0001100010000000 000110 adds r0, r0, r2
000002e6 18c0 0001100011000000 000110 adds r0, r0, r3
000002e8 08c1 0000100011000001 000010 lsrs  r1, r0, #3
000002ea 1840 0001100001000000 000110 adds r0, r0, r1
000002ec 492f 0100100100101111 010010 ldr  r1, [pc, #188] ; 0x00bc
000002ee 4008 0100000000001000 010000 ands  r0, r1
000002f0 0981 0000100110000001 000010 lsrs  r1, r0, #6
000002f2 1840 0001100001000000 000110 adds r0, r0, r1
000002f4 492e 0100100100101110 010010 ldr  r1, [pc, #184] ; 0x00b8
000002f6 4348 0100001101001000 010000 muls  r0, r1
000002f8 0e80 0000111010000000 000011 lsrs  r0, r0, #-6
000002fa 4770 0100011101110000 010001 bx  r14

000002fc 4a2d 0100101000101101 010010 ldr  r2, [pc, #180] ; 0x00b4
000002fe 0851 0000100001010001 000010 lsrs  r1, r2, #1
00000300 4051 0100000001010001 010000 eors  r1, r2
00000302 0043 0000000001000011 000000 lsls r3, r0, #1
00000304 400b 0100000000001011 010000 ands  r3, r1
00000306 4008 0100000000001000 010000 ands  r0, r1
00000308 0840 0000100001000000 000010 lsrs  r0, r0, #1
0000030a 4318 0100001100011000 010000 orr  r0, r3
0000030c 0083 0000000010000011 000000 lsls r3, r0, #2
0000030e 4013 0100000000010011 010000 ands  r3, r2
00000310 4010 0100000000010000 010000 ands  r0, r2
00000312 0880 0000100010000000 000010 lsrs  r0, r0, #2
00000314 4303 0100001100000011 010000 orr  r3, r0
00000316 4a28 0100101000101000 010010 ldr  r2, [pc, #160] ; 0x00a0
00000318 0118 0000000100011000 000000 lsls r0, r3, #4
0000031a 4010 0100000000010000 010000 ands  r0, r2
0000031c 4013 0100000000010011 010000 ands  r3, r2
0000031e 091b 0000100100011011 000010 lsrs  r3, r3, #4
00000320 4318 0100001100011000 010000 orr  r0, r3
00000322 ba00 1011101000000000 101110 rev ; a6-150
00000324 4770 0100011101110000 010001 bx  r14

00000326 a325 1010001100100101 101000 A6-106
00000328 0c01 0000110000000001 000011 lsrs  r1, r0, #-16
0000032a d10c 1101000100001100 110100 bne.n 346 ; PC + 28

0000032c 0a81 0000101010000001 000010 lsrs  r1, r0, #10
0000032e d104 1101000100000100 110100 bne.n 33a ; PC + 12

00000330 0901 0000100100000001 000010 lsrs  r1, r0, #4
00000332 d105 1101000100000101 110100 bne.n 340 ; PC + 14

00000334 5c18 0101110000011000 010111 ldrb r0, [r3, r0]
00000336 301a 0011000000011010 001100 adds r0, #26  ; 0x1a
00000338 4770 0100011101110000 010001 bx  r14

0000033a 5c58 0101110001011000 010111 ldrb r0, [r3, r1]
0000033c 3010 0011000000010000 001100 adds r0, #16  ; 0x10
0000033e 4770 0100011101110000 010001 bx  r14

00000340 5c58 0101110001011000 010111 ldrb r0, [r3, r1]
00000342 3016 0011000000010110 001100 adds r0, #22  ; 0x16
00000344 4770 0100011101110000 010001 bx  r14

00000346 0a88 0000101010001000 000010 lsrs  r0, r1, #10
00000348 d104 1101000100000100 110100 bne.n 354 ; PC + 12

0000034a 0908 0000100100001000 000010 lsrs  r0, r1, #4
0000034c d104 1101000100000100 110100 bne.n 358 ; PC + 12

0000034e 5c58 0101110001011000 010111 ldrb r0, [r3, r1]
00000350 300a 0011000000001010 001100 adds r0, #10  ; 0x0a
00000352 4770 0100011101110000 010001 bx  r14

00000354 5c18 0101110000011000 010111 ldrb r0, [r3, r0]
00000356 4770 0100011101110000 010001 bx  r14

00000358 5c18 0101110000011000 010111 ldrb r0, [r3, r0]
0000035a 3006 0011000000000110 001100 adds r0, #6  ; 0x06
0000035c 4770 0100011101110000 010001 bx  r14

0000035e a327 1010001100100111 101000 A6-106
00000360 0401 0000010000000001 000001 lsls r1, r0, #16
00000362 d00f 1101000000001111 110100 beq.n 384 ; PC + 34

00000364 0188 0000000110001000 000000 lsls r0, r1, #6
00000366 d005 1101000000000101 110100 beq.n 374 ; PC + 14

00000368 0181 0000000110000001 000000 lsls r1, r0, #6
0000036a d007 1101000000000111 110100 beq.n 37c ; PC + 18

0000036c 0f09 0000111100001001 000011 lsrs  r1, r1, #-4
0000036e 3110 0011000100010000 001100 adds r1, #16  ; 0x10
00000370 5c58 0101110001011000 010111 ldrb r0, [r3, r1]
00000372 4770 0100011101110000 010001 bx  r14

00000374 0e89 0000111010001001 000011 lsrs  r1, r1, #-6
00000376 5c58 0101110001011000 010111 ldrb r0, [r3, r1]
00000378 300a 0011000000001010 001100 adds r0, #10  ; 0x0a
0000037a 4770 0100011101110000 010001 bx  r14

0000037c 0e80 0000111010000000 000011 lsrs  r0, r0, #-6
0000037e 5c18 0101110000011000 010111 ldrb r0, [r3, r0]
00000380 3004 0011000000000100 001100 adds r0, #4  ; 0x04
00000382 4770 0100011101110000 010001 bx  r14

00000384 0181 0000000110000001 000000 lsls r1, r0, #6
00000386 d006 1101000000000110 110100 beq.n 396 ; PC + 16

00000388 0188 0000000110001000 000000 lsls r0, r1, #6
0000038a d008 1101000000001000 110100 beq.n 39e ; PC + 20

0000038c 0f00 0000111100000000 000011 lsrs  r0, r0, #-4
0000038e 3010 0011000000010000 001100 adds r0, #16  ; 0x10
00000390 5c18 0101110000011000 010111 ldrb r0, [r3, r0]
00000392 3010 0011000000010000 001100 adds r0, #16  ; 0x10
00000394 4770 0100011101110000 010001 bx  r14

00000396 0e80 0000111010000000 000011 lsrs  r0, r0, #-6
00000398 5c18 0101110000011000 010111 ldrb r0, [r3, r0]
0000039a 301a 0011000000011010 001100 adds r0, #26  ; 0x1a
0000039c 4770 0100011101110000 010001 bx  r14

0000039e 0e89 0000111010001001 000011 lsrs  r1, r1, #-6
000003a0 5c58 0101110001011000 010111 ldrb r0, [r3, r1]
000003a2 3014 0011000000010100 001100 adds r0, #20  ; 0x14
000003a4 4770 0100011101110000 010001 bx  r14

000003a6 0000 0000000000000000 000000 nop     ; movs r0, r0

000003a8 9249 1001001001001001 100100 A5-82 1001 001
000003aa 4924 0100100100100100 010010 ldr  r1, [pc, #144] ; 0x0090
000003ac 71c7 0111000111000111 011100 ldrb r7, [r0, #7]
000003ae c71c 1100011100011100 110001 ASTM, STMIA, STME A6-157
000003b0 4004 0100000000000100 010000 ands  r4, r0
000003b2 0400 0000010000000000 000001 lsls r0, r0, #16
000003b4 cccc 1100110011001100 110011 LDM, LDMIA, LDMFD A6-125
000003b6 cccc 1100110011001100 110011 LDM, LDMIA, LDMFD A6-125
000003b8 f0f0 1111000011110000 111100 (32-bit)
000003ba f0f0 1111000011110000 111100 bl   f059c

000003bc 0506 0000010100000110 000001 lsls r6, r0, #20
000003be 0404 0000010000000100 000001 lsls r4, r0, #16
000003c0 0303 0000001100000011 000000 lsls r3, r0, #12
000003c2 0303 0000001100000011 000000 lsls r3, r0, #12
000003c4 0202 0000001000000010 000000 lsls r2, r0, #8
000003c6 0202 0000001000000010 000000 lsls r2, r0, #8
000003c8 0202 0000001000000010 000000 lsls r2, r0, #8
000003ca 0202 0000001000000010 000000 lsls r2, r0, #8
000003cc 0101 0000000100000001 000000 lsls r1, r0, #4
000003ce 0101 0000000100000001 000000 lsls r1, r0, #4
000003d0 0101 0000000100000001 000000 lsls r1, r0, #4
000003d2 0101 0000000100000001 000000 lsls r1, r0, #4
000003d4 0101 0000000100000001 000000 lsls r1, r0, #4
000003d6 0101 0000000100000001 000000 lsls r1, r0, #4
000003d8 0101 0000000100000001 000000 lsls r1, r0, #4
000003da 0101 0000000100000001 000000 lsls r1, r0, #4
000003dc 0000 0000000000000000 000000 nop     ; movs r0, r0

000003de 0000 0000000000000000 000000 nop     ; movs r0, r0

000003e0 0000 0000000000000000 000000 nop     ; movs r0, r0

000003e2 0000 0000000000000000 000000 nop     ; movs r0, r0

000003e4 0000 0000000000000000 000000 nop     ; movs r0, r0

000003e6 0000 0000000000000000 000000 nop     ; movs r0, r0

000003e8 0000 0000000000000000 000000 nop     ; movs r0, r0

000003ea 0000 0000000000000000 000000 nop     ; movs r0, r0

000003ec 0000 0000000000000000 000000 nop     ; movs r0, r0

000003ee 0000 0000000000000000 000000 nop     ; movs r0, r0

000003f0 0000 0000000000000000 000000 nop     ; movs r0, r0

000003f2 0000 0000000000000000 000000 nop     ; movs r0, r0

000003f4 0000 0000000000000000 000000 nop     ; movs r0, r0

000003f6 0000 0000000000000000 000000 nop     ; movs r0, r0

000003f8 0000 0000000000000000 000000 nop     ; movs r0, r0

000003fa 0000 0000000000000000 000000 nop     ; movs r0, r0

000003fc 0006 0000000000000110 000000 movs r6, r0
000003fe 0001 0000000000000001 000000 movs r1, r0
00000400 0002 0000000000000010 000000 movs r2, r0
00000402 0001 0000000000000001 000000 movs r1, r0
00000404 0003 0000000000000011 000000 movs r3, r0
00000406 0001 0000000000000001 000000 movs r1, r0
00000408 0002 0000000000000010 000000 movs r2, r0
0000040a 0001 0000000000000001 000000 movs r1, r0
0000040c 0004 0000000000000100 000000 movs r4, r0
0000040e 0001 0000000000000001 000000 movs r1, r0
00000410 0002 0000000000000010 000000 movs r2, r0
00000412 0001 0000000000000001 000000 movs r1, r0
00000414 0003 0000000000000011 000000 movs r3, r0
00000416 0001 0000000000000001 000000 movs r1, r0
00000418 0002 0000000000000010 000000 movs r2, r0
0000041a 0001 0000000000000001 000000 movs r1, r0
0000041c 0005 0000000000000101 000000 movs r5, r0
0000041e 0001 0000000000000001 000000 movs r1, r0
00000420 0002 0000000000000010 000000 movs r2, r0
00000422 0001 0000000000000001 000000 movs r1, r0
00000424 0003 0000000000000011 000000 movs r3, r0
00000426 0001 0000000000000001 000000 movs r1, r0
00000428 0002 0000000000000010 000000 movs r2, r0
0000042a 0001 0000000000000001 000000 movs r1, r0
0000042c 0004 0000000000000100 000000 movs r4, r0
0000042e 0001 0000000000000001 000000 movs r1, r0
00000430 0002 0000000000000010 000000 movs r2, r0
00000432 0001 0000000000000001 000000 movs r1, r0
00000434 0003 0000000000000011 000000 movs r3, r0
00000436 0001 0000000000000001 000000 movs r1, r0
00000438 0002 0000000000000010 000000 movs r2, r0
0000043a 0001 0000000000000001 000000 movs r1, r0
0000043c 0031 0000000000110001 000000 movs r1, r6
0000043e 20e1 0010000011100001 001000 movs r0, #225  ; 0xe1
00000440 2169 0010000101101001 001000 movs r1, #105  ; 0x69
00000442 1c49 0001110001001001 000111 adds r1, r1, #1   ;0x1
00000444 1ba9 0001101110101001 000110 sub reg A6-165
00000446 1dcd 0001110111001101 000111 adds r5, r1, #7   ;0x7
00000448 22fd 0010001011111101 001000 movs r2, #253  ; 0xfd
0000044a be00 1011111000000000 101111 Hint instruction code 111000
0000044c 4a02 0100101000000010 010010 ldr  r2, [pc, #8] ; 0x0008
0000044e 6893 0110100010010011 011010 ldr  r3, [r2, #8] ; 0x8 imm8, A6-158
00000450 3b40 0011101101000000 001110 subs imm A6-164
00000452 6093 0110000010010011 011000 str  r3, [r2, #8] ; 0x8 imm8, A6-158
00000454 4770 0100011101110000 010001 bx  r14

00000456 46c0 0100011011000000 010001 nop  ; mov  r8, r8

00000458 0a7c 0000101001111100 000010 lsrs  r4, r7, #9
0000045a 5010 0101000000010000 010100 str unimplemented form
0000045c 4a02 0100101000000010 010010 ldr  r2, [pc, #8] ; 0x0008
0000045e 7d93 0111110110010011 011111 ldrb r3, [r2, #22]
00000460 7513 0111010100010011 011101 ldrb r3, [r2, #20]
00000462 4a02 0100101000000010 010010 ldr  r2, [pc, #8] ; 0x0008
00000464 6013 0110000000010011 011000 str  r3, [r2, #0] ; 0x0 imm8, A6-158
00000466 4770 0100011101110000 010001 bx  r14

00000468 09ec 0000100111101100 000010 lsrs  r4, r5, #7
0000046a 5010 0101000000010000 010100 str unimplemented form
0000046c 0000 0000000000000000 000000 nop     ; movs r0, r0

0000046e 5011 0101000000010001 010100 str unimplemented form
00000470 2300 0010001100000000 001000 movs r3, #0  ; 0x00
00000472 6001 0110000000000001 011000 str  r1, [r0, #0] ; 0x0 imm8, A6-158
00000474 6103 0110000100000011 011000 str  r3, [r0, #16] ; 0x10 imm8, A6-158
00000476 6042 0110000001000010 011000 str  r2, [r0, #4] ; 0x4 imm8, A6-158
00000478 784b 0111100001001011 011110 ldrb r3, [r1, #1]
0000047a 60c3 0110000011000011 011000 str  r3, [r0, #12] ; 0xc imm8, A6-158
0000047c 6083 0110000010000011 011000 str  r3, [r0, #8] ; 0x8 imm8, A6-158
0000047e 4770 0100011101110000 010001 bx  r14

00000480 4904 0100100100000100 010010 ldr  r1, [pc, #16] ; 0x0010
00000482 6883 0110100010000011 011010 ldr  r3, [r0, #8] ; 0x8 imm8, A6-158
00000484 2201 0010001000000001 001000 movs r2, #1  ; 0x01
00000486 741a 0111010000011010 011101 ldrb r2, [r3, #16]
00000488 681b 0110100000011011 011010 ldr  r3, [r3, #0] ; 0x0 imm8, A6-158
0000048a 781b 0111100000011011 011110 ldrb r3, [r3, #0]
0000048c 5acb 0101101011001011 010110 ldrh r3, [r1, r3]
0000048e 4313 0100001100010011 010000 orr  r3, r2
00000490 4718 0100011100011000 010001 bx  r3

00000492 0000 0000000000000000 000000 nop     ; movs r0, r0

00000494 043c 0000010000111100 000001 lsls r4, r7, #16
00000496 0000 0000000000000000 000000 nop     ; movs r0, r0

00000498 6803 0110100000000011 011010 ldr  r3, [r0, #0] ; 0x0 imm8, A6-158
0000049a b570 1011010101110000 101101 push {r4, r5, r6, r14}
0000049c 1e19 0001111000011001 000111 subs  r1, r3, #0   ;0x0
0000049e d002 1101000000000010 110100 beq.n 4a6 ; PC + 8

000004a0 7899 0111100010011001 011110 ldrb r1, [r3, #2]
000004a2 230f 0010001100001111 001000 movs r3, #15  ; 0x0f
000004a4 4019 0100000000011001 010000 ands  r1, r3
000004a6 2400 0010010000000000 001001 movs r4, #0  ; 0x00
000004a8 2500 0010010100000000 001001 movs r5, #0  ; 0x00
000004aa 4a12 0100101000010010 010010 ldr  r2, [pc, #72] ; 0x0048
000004ac 00cb 0000000011001011 000000 lsls r3, r1, #3
000004ae 189a 0001100010011010 000110 adds r2, r3, r2
000004b0 6014 0110000000010100 011000 str  r4, [r2, #0] ; 0x0 imm8, A6-158
000004b2 6055 0110000001010101 011000 str  r5, [r2, #4] ; 0x4 imm8, A6-158
000004b4 0004 0000000000000100 000000 movs r4, r0
000004b6 4e10 0100111000010000 010011 ldr  r6, [pc, #64] ; 0x0040
000004b8 3428 0011010000101000 001101 adds r4, #40  ; 0x28
000004ba 8b32 1000101100110010 100010 A5-82 1000 101
000004bc 8282 1000001010000010 100000 A5-82 1000 001
000004be 7825 0111100000100101 011110 ldrb r5, [r4, #0]
000004c0 2440 0010010001000000 001001 movs r4, #64  ; 0x40
000004c2 2d00 0010110100000000 001011 cmp r5, #0  ; 0x00
000004c4 d000 1101000000000000 110100 beq.n 4c8 ; PC + 4

000004c6 1924 0001100100100100 000110 adds r4, r4, r4
000004c8 1914 0001100100010100 000110 adds r4, r2, r4
000004ca 8334 1000001100110100 100000 A5-82 1000 001
000004cc 2900 0010100100000000 001010 cmp r1, #0  ; 0x00
000004ce d00e 1101000000001110 110100 beq.n 4ee ; PC + 32

000004d0 2154 0010000101010100 001000 movs r1, #84  ; 0x54
000004d2 2d00 0010110100000000 001011 cmp r5, #0  ; 0x00
000004d4 d000 1101000000000000 110100 beq.n 4d8 ; PC + 4

