00000000 .word 20041f00
00000004 .word 000000ef
00000008 .word 00000035
0000000c .word 00000031
00000010 .word 0201754d
00000014 .word 00c8007a

0000001a 0000 0000000000000000 nop     ; movs r0, r0

0000001c 2300 0010001100000000 movs r3, #0  ; 0x00
0000001e 8802 1000100000000010 ldrh r2, [r0, #0] ; 0x0
00000020 429a 0100001010011010 cmp  r2, r3
00000022 d003 1101000000000011 beq.n 2c ; PC + 10

00000024 8843 1000100001000011 ldrh r3, [r0, #2] ; 0x2
00000026 3004 0011000000000100 adds r0, #4  ; 0x04
00000028 4291 0100001010010001 cmp  r1, r2
0000002a d1f7 1101000111110111 bne.n 1c ; PC + -14

0000002c 1c18 0001110000011000 adds r0, r3, #0   ;0x0
0000002e 4770 0100011101110000 bx lr

00000030 bf30 1011111100110000 wfi
00000032 e7fd 1110011111111101 b.n  30

00000034 46f4 0100011011110100 mov  ip, lr
00000036 f000 1111000000000000 (32-bit)
00000038 f805 1111100000000101 bl   44

0000003a 489e 0100100010011110 ldr  r0, [pc, #632] ; 0x0278
0000003c 2100 0010000100000000 movs r1, #0  ; 0x00
0000003e 6001 0110000000000001 str  r1, [r0, #0] ; 0x0
00000040 6041 0110000001000001 str  r1, [r0, #4] ; 0x4
00000042 46e7 0100011011100111 mov  pc, ip
00000044 489c 0100100010011100 ldr  r0, [pc, #624] ; 0x0270
00000046 2100 0010000100000000 movs r1, #0  ; 0x00
00000048 43c9 0100001111001001 mvns  r1, r1
0000004a 6001 0110000000000001 str  r1, [r0, #0] ; 0x0
0000004c 6041 0110000001000001 str  r1, [r0, #4] ; 0x4
0000004e 4770 0100011101110000 bx lr

00000050 .word 00a4a191
00000054 .word 00001e09
00000058 .word 20294328
0000005c .word 30323032
00000060 .word 73615220
00000064 .word 72656270
00000068 .word 50207972
0000006c .word 72542069
00000070 .word 6e696461
00000074 .word 744c2067
00000078 .word 33500064
0000007c .word 335202d9
00000080 .word 334c02fd
00000084 .word 33540327
00000088 .word 534d035f
0000008c .word 345326dd
00000090 .word 434d26d1
00000094 .word 34432641
00000098 .word 42552629
0000009c .word 544425b5
000000a0 .word 45440185
000000a4 .word 5657018b
000000a8 .word 46490137
000000ac .word 584524a1
000000b0 .word 455223f5
000000b4 .word 5052237d
000000b8 .word 434623c5
000000bc .word 58432361
000000c0 .word 43452331
000000c4 .word 00000045
000000c8 .word 00505247
000000cc .word 00585243
000000d0 .word 01a84653
000000d4 .word 02284453
000000d8 .word 01a65a46
000000dc .word 27585346
000000e0 .word 2e4c4546
000000e4 .word 2e545344
000000e8 .word 3dac4544

000000ee 4873 0100100001110011 ldr  r0, [pc, #460] ; 0x01cc
000000f0 6801 0110100000000001 ldr  r1, [r0, #0] ; 0x0
000000f2 2900 0010100100000000 cmp r1, #0  ; 0x00
000000f4 d11f 1101000100011111 bne.n 136 ; PC + 66

000000f6 f7ff 1111011111111111 (32-bit)
000000f8 ff9d 1111111110011101 bl   34

000000fa 4971 0100100101110001 ldr  r1, [pc, #452] ; 0x01c4
000000fc 4b71 0100101101110001 ldr  r3, [pc, #452] ; 0x01c4
000000fe 680a 0110100000001010 ldr  r2, [r1, #0] ; 0x0
00000100 421a 0100001000011010 tst  r2, r3
00000102 d001 1101000000000001 beq.n 108 ; PC + 6

00000104 600b 0110000000001011 str  r3, [r1, #0] ; 0x0
00000106 e793 1110011110010011 b.n  30

00000108 4f6f 0100111101101111 ldr  r7, [pc, #444] ; 0x01bc
0000010a 4e70 0100111001110000 ldr  r6, [pc, #448] ; 0x01c0
0000010c cf0f 1100111100001111 ldmia r7!, {r0, r1, r2, r3}
0000010e 42b0 0100001010110000 cmp  r0, r6
00000110 d107 1101000100000111 bne.n 122 ; PC + 18

00000112 4059 0100000001011001 eors  r1, r3
00000114 1840 0001100001000000 adds r0, r0, r1
00000116 d104 1101000100000100 bne.n 122 ; PC + 12

00000118 3f10 0011111100010000 subs r7, #16  ; 0x10
0000011a 6038 0110000000111000 str  r0, [r7, #0] ; 0x0
0000011c f382 1111001110000010 (32-bit)
0000011e 8808 1000100000001000 msr MSP, r2

00000120 4798 0100011110011000 blx  r3

00000122 f002 1111000000000010 (32-bit)
00000124 f9e1 1111100111100001 bl   24e8

00000126 bf20 1011111100100000 wfe
00000128 6d21 0110110100100001 ldr  r1, [r4, #80] ; 0x50
0000012a 0889 0000100010001001 lsrs  r1, r1, #2
0000012c d3fb 1101001111111011 bcc.n 126 ; PC + -6

0000012e 6560 0110010101100000 str  r0, [r4, #84] ; 0x54
00000130 bf40 1011111101000000 sev
00000132 1c6e 0001110001101110 adds r6, r5, #1   ;0x1
00000134 4730 0100011100110000 bx r6

00000136 4c61 0100110001100001 ldr  r4, [pc, #388] ; 0x0184
00000138 4f65 0100111101100101 ldr  r7, [pc, #404] ; 0x0194
0000013a 2104 0010000100000100 movs r1, #4  ; 0x04
0000013c 6139 0110000100111001 str  r1, [r7, #16] ; 0x10
0000013e 6da1 0110110110100001 ldr  r1, [r4, #88] ; 0x58
00000140 6d21 0110110100100001 ldr  r1, [r4, #80] ; 0x50
00000142 0849 0000100001001001 lsrs  r1, r1, #1
00000144 d2fb 1101001011111011 bcs.n 13e ; PC + -6

00000146 a50b 1010010100001011 add r5, pc, #44
00000148 2000 0010000000000000 movs r0, #0  ; 0x00
0000014a f7ff 1111011111111111 (32-bit)
0000014c ffed 1111111111101101 bl   128

0000014e 2801 0010100000000001 cmp r0, #1  ; 0x01
00000150 d1f6 1101000111110110 bne.n 140 ; PC + -16

00000152 f7ff 1111011111111111 (32-bit)
00000154 ffe9 1111111111101001 bl   128

00000156 60b8 0110000010111000 str  r0, [r7, #8] ; 0x8
00000158 f7ff 1111011111111111 (32-bit)
0000015a ffe6 1111111111100110 bl   128

0000015c f380 1111001110000000 (32-bit)
0000015e 8808 1000100000001000 msr MSP, r0

00000160 f7ff 1111011111111111 (32-bit)
00000162 ffe2 1111111111100010 bl   128

00000164 a501 1010010100000001 add r5, pc, #4
00000166 f7ff 1111011111111111 (32-bit)
00000168 ffdf 1111111111011111 bl   128

0000016a 46c0 0100011011000000 nop  ; (mov  r8, r8)

0000016c 2100 0010000100000000 movs r1, #0  ; 0x00
0000016e 6139 0110000100111001 str  r1, [r7, #16] ; 0x10
00000170 4780 0100011110000000 blx  r0

00000172 e75d 1110011101011101 b.n  30

00000174 bf20 1011111100100000 wfe
00000176 6d20 0110110100100000 ldr  r0, [r4, #80] ; 0x50
00000178 0840 0000100001000000 lsrs  r0, r0, #1
0000017a d3fb 1101001111111011 bcc.n 174 ; PC + -6

0000017c 6da0 0110110110100000 ldr  r0, [r4, #88] ; 0x58
0000017e 2800 0010100000000000 cmp r0, #0  ; 0x00
00000180 d0de 1101000011011110 beq.n 140 ; PC + -64

00000182 4770 0100011101110000 bx lr

00000184 2601 0010011000000001 movs r6, #1  ; 0x01
00000186 4337 0100001100110111 orrs  r7, r6
00000188 47b8 0100011110111000 blx  r7

0000018a be00 1011111000000000 bkpt 0x0000

0000018c e7fa 1110011111111010 b.n  184

0000018e 3811 0011100000010001 subs r0, #17  ; 0x11
00000190 .word bd007ac0
00000194 .word 4042b500
00000198 .word f0002a00
0000019c .word d2f6f802
000001a0 .word 4670468e
000001a4 .word 00204700
000001a8 .word 00002b69
000001ac .word 00002b65
000001b0 .word 00002c31
000001b4 .word 00002cfd
000001b8 .word 00002827
000001bc .word 00002827
000001c0 .word 00002db1
000001c4 .word 0000284d
000001c8 .word 0000284f
000001cc .word 00002881
000001d0 .word 00002883
000001d4 .word 000028d7
000001d8 .word 000028d9
000001dc .word 000028e7
000001e0 .word 000028e9
000001e4 .word 000029bf
000001e8 .word 00002975
000001ec .word 000029dd
000001f0 .word 00000031
000001f4 .word 000029e5
000001f8 .word 00002a4f
000001fc .word 0000280b
00000200 .word 00002a73
00000204 .word 000028af
00000208 .word 000028b1
0000020c .word 0000289d
00000210 .word 0000289f
00000214 .word 00003581
00000218 .word 00003583
0000021c .word 0000358b
00000220 .word 0000358d
00000224 .word 0000363d
00000228 .word 00002e61
0000022c .word 00002e55
00000230 .word 00002fbd
00000234 .word 00003119
00000238 .word 0000346b
0000023c .word 0000346b
00000240 .word 000032dd
00000244 .word 00003565
00000248 .word 00003567
0000024c .word 00003573
00000250 .word 00003575
00000254 .word 000036c3
00000258 .word 000036c5
0000025c .word 000036bb
00000260 .word 000036bd
00000264 .word 00003831
00000268 .word 00003841
0000026c .word 00003811
00000270 .word 00000031
00000274 .word 00003b45
00000278 .word 00003be1
0000027c .word 0000346f
00000280 .word 00003931
00000284 .word 000036d1
00000288 .word 000036d3
0000028c .word 000036cb
00000290 .word 000036cd
00000294 .word 000035c1
00000298 .word 000035c3
0000029c .word 000035db
000002a0 .word 000035dd

000002a6 0000 0000000000000000 nop     ; movs r0, r0

000002a8 480a 0100100000001010 ldr  r0, [pc, #40] ; 0x0028
000002aa f380 1111001110000000 (32-bit)
000002ac 8808 1000100000001000 msr MSP, r0

000002ae f001 1111000000000001 (32-bit)
000002b0 ff1b 1111111100011011 bl   20e8

000002b0 .word 00003663
000002b4 .word 40004000
000002b8 .word 400080a0
000002bc .word d0000000
000002c0 .word 40064008
000002c4 .word 01000000
000002c8 .word 4005801c
000002cc .word b007c0d3
000002d0 .word e000ed00

000002d6 5010 0101000000010000 str r0, [r2, r0]
000002d8 4933 0100100100110011 ldr  r1, [pc, #204] ; 0x00cc
000002da 0842 0000100001000010 lsrs  r2, r0, #1
000002dc 400a 0100000000001010 ands  r2, r1
000002de 0883 0000100010000011 lsrs  r3, r0, #2
000002e0 400b 0100000000001011 ands  r3, r1
000002e2 4008 0100000000001000 ands  r0, r1
000002e4 1880 0001100010000000 adds r0, r0, r2
000002e6 18c0 0001100011000000 adds r0, r0, r3
000002e8 08c1 0000100011000001 lsrs  r1, r0, #3
000002ea 1840 0001100001000000 adds r0, r0, r1
000002ec 492f 0100100100101111 ldr  r1, [pc, #188] ; 0x00bc
000002ee 4008 0100000000001000 ands  r0, r1
000002f0 0981 0000100110000001 lsrs  r1, r0, #6
000002f2 1840 0001100001000000 adds r0, r0, r1
000002f4 492e 0100100100101110 ldr  r1, [pc, #184] ; 0x00b8
000002f6 4348 0100001101001000 muls  r0, r1
000002f8 0e80 0000111010000000 lsrs  r0, r0, #26
000002fa 4770 0100011101110000 bx lr

000002fc 4a2d 0100101000101101 ldr  r2, [pc, #180] ; 0x00b4
000002fe 0851 0000100001010001 lsrs  r1, r2, #1
00000300 4051 0100000001010001 eors  r1, r2
00000302 0043 0000000001000011 lsls  r3, r0, #1
00000304 400b 0100000000001011 ands  r3, r1
00000306 4008 0100000000001000 ands  r0, r1
00000308 0840 0000100001000000 lsrs  r0, r0, #1
0000030a 4318 0100001100011000 orrs  r0, r3
0000030c 0083 0000000010000011 lsls  r3, r0, #2
0000030e 4013 0100000000010011 ands  r3, r2
00000310 4010 0100000000010000 ands  r0, r2
00000312 0880 0000100010000000 lsrs  r0, r0, #2
00000314 4303 0100001100000011 orrs  r3, r0
00000316 4a28 0100101000101000 ldr  r2, [pc, #160] ; 0x00a0
00000318 0118 0000000100011000 lsls  r0, r3, #4
0000031a 4010 0100000000010000 ands  r0, r2
0000031c 4013 0100000000010011 ands  r3, r2
0000031e 091b 0000100100011011 lsrs  r3, r3, #4
00000320 4318 0100001100011000 orrs  r0, r3
00000322 ba00 1011101000000000 rev r0, r0
00000324 4770 0100011101110000 bx lr

00000326 a325 1010001100100101 add r3, pc, #148
00000328 0c01 0000110000000001 lsrs  r1, r0, #16
0000032a d10c 1101000100001100 bne.n 346 ; PC + 28

0000032c 0a81 0000101010000001 lsrs  r1, r0, #10
0000032e d104 1101000100000100 bne.n 33a ; PC + 12

00000330 0901 0000100100000001 lsrs  r1, r0, #4
00000332 d105 1101000100000101 bne.n 340 ; PC + 14

00000334 5c18 0101110000011000 ldrb r0, [r3, r0]
00000336 301a 0011000000011010 adds r0, #26  ; 0x1a
00000338 4770 0100011101110000 bx lr

0000033a 5c58 0101110001011000 ldrb r0, [r3, r1]
0000033c 3010 0011000000010000 adds r0, #16  ; 0x10
0000033e 4770 0100011101110000 bx lr

00000340 5c58 0101110001011000 ldrb r0, [r3, r1]
00000342 3016 0011000000010110 adds r0, #22  ; 0x16
00000344 4770 0100011101110000 bx lr

00000346 0a88 0000101010001000 lsrs  r0, r1, #10
00000348 d104 1101000100000100 bne.n 354 ; PC + 12

0000034a 0908 0000100100001000 lsrs  r0, r1, #4
0000034c d104 1101000100000100 bne.n 358 ; PC + 12

0000034e 5c58 0101110001011000 ldrb r0, [r3, r1]
00000350 300a 0011000000001010 adds r0, #10  ; 0x0a
00000352 4770 0100011101110000 bx lr

00000354 5c18 0101110000011000 ldrb r0, [r3, r0]
00000356 4770 0100011101110000 bx lr

00000358 5c18 0101110000011000 ldrb r0, [r3, r0]
0000035a 3006 0011000000000110 adds r0, #6  ; 0x06
0000035c 4770 0100011101110000 bx lr

0000035e a327 1010001100100111 add r3, pc, #156
00000360 0401 0000010000000001 lsls  r1, r0, #16
00000362 d00f 1101000000001111 beq.n 384 ; PC + 34

00000364 0188 0000000110001000 lsls  r0, r1, #6
00000366 d005 1101000000000101 beq.n 374 ; PC + 14

00000368 0181 0000000110000001 lsls  r1, r0, #6
0000036a d007 1101000000000111 beq.n 37c ; PC + 18

0000036c 0f09 0000111100001001 lsrs  r1, r1, #28
0000036e 3110 0011000100010000 adds r1, #16  ; 0x10
00000370 5c58 0101110001011000 ldrb r0, [r3, r1]
00000372 4770 0100011101110000 bx lr

00000374 0e89 0000111010001001 lsrs  r1, r1, #26
00000376 5c58 0101110001011000 ldrb r0, [r3, r1]
00000378 300a 0011000000001010 adds r0, #10  ; 0x0a
0000037a 4770 0100011101110000 bx lr

0000037c 0e80 0000111010000000 lsrs  r0, r0, #26
0000037e 5c18 0101110000011000 ldrb r0, [r3, r0]
00000380 3004 0011000000000100 adds r0, #4  ; 0x04
00000382 4770 0100011101110000 bx lr

00000384 0181 0000000110000001 lsls  r1, r0, #6
00000386 d006 1101000000000110 beq.n 396 ; PC + 16

00000388 0188 0000000110001000 lsls  r0, r1, #6
0000038a d008 1101000000001000 beq.n 39e ; PC + 20

0000038c 0f00 0000111100000000 lsrs  r0, r0, #28
0000038e 3010 0011000000010000 adds r0, #16  ; 0x10
00000390 5c18 0101110000011000 ldrb r0, [r3, r0]
00000392 3010 0011000000010000 adds r0, #16  ; 0x10
00000394 4770 0100011101110000 bx lr

00000396 0e80 0000111010000000 lsrs  r0, r0, #26
00000398 5c18 0101110000011000 ldrb r0, [r3, r0]
0000039a 301a 0011000000011010 adds r0, #26  ; 0x1a
0000039c 4770 0100011101110000 bx lr

0000039e 0e89 0000111010001001 lsrs  r1, r1, #26
000003a0 5c58 0101110001011000 ldrb r0, [r3, r1]
000003a2 3014 0011000000010100 adds r0, #20  ; 0x14
000003a4 4770 0100011101110000 bx lr

000003a4 .word 501008b0
000003a8 .word 49249249
000003ac .word c71c71c7
000003b0 .word 04004004
000003b4 .word cccccccc
000003b8 .word f0f0f0f0
000003bc .word 04040506
000003c0 .word 03030303
000003c4 .word 02020202
000003c8 .word 02020202
000003cc .word 01010101
000003d0 .word 01010101
000003d4 .word 01010101
000003d8 .word 01010101
000003dc .word 00000000
000003e0 .word 00000000
000003e4 .word 00000000
000003e8 .word 00000000
000003ec .word 00000000
000003f0 .word 00000000
000003f4 .word 00000000
000003f8 .word 00000000
000003fc .word 00010006
00000400 .word 00010002
00000404 .word 00010003
00000408 .word 00010002
0000040c .word 00010004
00000410 .word 00010002
00000414 .word 00010003
00000418 .word 00010002
0000041c .word 00010005
00000420 .word 00010002
00000424 .word 00010003
00000428 .word 00010002
0000042c .word 00010004
00000430 .word 00010002
00000434 .word 00010003
00000438 .word 00010002
0000043c .word 20e10031
00000440 .word 1c492169
00000444 .word 1dcd1ba9

0000044a be00 1011111000000000 bkpt 0x0000

0000044c 4a02 0100101000000010 ldr  r2, [pc, #8] ; 0x0008
0000044e 6893 0110100010010011 ldr  r3, [r2, #8] ; 0x8
00000450 3b40 0011101101000000 subs r3, #64  ; 0x40
00000452 6093 0110000010010011 str  r3, [r2, #8] ; 0x8
00000454 4770 0100011101110000 bx lr

00000456 46c0 0100011011000000 nop  ; (mov  r8, r8)

00000458 .word 50100a7c

0000045c 4a02 0100101000000010 ldr  r2, [pc, #8] ; 0x0008
0000045e 7d93 0111110110010011 ldrb r3, [r2, #22]
00000460 7513 0111010100010011 ldrb r3, [r2, #20]
00000462 4a02 0100101000000010 ldr  r2, [pc, #8] ; 0x0008
00000464 6013 0110000000010011 str  r3, [r2, #0] ; 0x0
00000466 4770 0100011101110000 bx lr

00000468 .word 501009ec
0000046c .word 50110000

00000470 2300 0010001100000000 movs r3, #0  ; 0x00
00000472 6001 0110000000000001 str  r1, [r0, #0] ; 0x0
00000474 6103 0110000100000011 str  r3, [r0, #16] ; 0x10
00000476 6042 0110000001000010 str  r2, [r0, #4] ; 0x4
00000478 784b 0111100001001011 ldrb r3, [r1, #1]
0000047a 60c3 0110000011000011 str  r3, [r0, #12] ; 0xc
0000047c 6083 0110000010000011 str  r3, [r0, #8] ; 0x8
0000047e 4770 0100011101110000 bx lr

00000480 4904 0100100100000100 ldr  r1, [pc, #16] ; 0x0010
00000482 6883 0110100010000011 ldr  r3, [r0, #8] ; 0x8
00000484 2201 0010001000000001 movs r2, #1  ; 0x01
00000486 741a 0111010000011010 ldrb r2, [r3, #16]
00000488 681b 0110100000011011 ldr  r3, [r3, #0] ; 0x0
0000048a 781b 0111100000011011 ldrb r3, [r3, #0]
0000048c 5acb 0101101011001011 ldrh r3, [r1, r3]
0000048e 4313 0100001100010011 orrs  r3, r2
00000490 4718 0100011100011000 bx r3

00000490 .word 50110000
00000494 .word 0000043c

00000498 6803 0110100000000011 ldr  r3, [r0, #0] ; 0x0
0000049a b570 1011010101110000 push {r4, r5, r6, lr}
0000049c 1e19 0001111000011001 subs  r1, r3, #0   ;0x0
0000049e d002 1101000000000010 beq.n 4a6 ; PC + 8

000004a0 7899 0111100010011001 ldrb r1, [r3, #2]
000004a2 230f 0010001100001111 movs r3, #15  ; 0x0f
000004a4 4019 0100000000011001 ands  r1, r3
000004a6 2400 0010010000000000 movs r4, #0  ; 0x00
000004a8 2500 0010010100000000 movs r5, #0  ; 0x00
000004aa 4a12 0100101000010010 ldr  r2, [pc, #72] ; 0x0048
000004ac 00cb 0000000011001011 lsls  r3, r1, #3
000004ae 189a 0001100010011010 adds r2, r3, r2
000004b0 6014 0110000000010100 str  r4, [r2, #0] ; 0x0
000004b2 6055 0110000001010101 str  r5, [r2, #4] ; 0x4
000004b4 0004 0000000000000100 movs r4, r0
000004b6 4e10 0100111000010000 ldr  r6, [pc, #64] ; 0x0040
000004b8 3428 0011010000101000 adds r4, #40  ; 0x28
000004ba 8b32 1000101100110010 ldrh r2, [r6, #24]
000004bc 8282 1000001010000010 strh r2, [r0, #20]
000004be 7825 0111100000100101 ldrb r5, [r4, #0]
000004c0 2440 0010010001000000 movs r4, #64  ; 0x40
000004c2 2d00 0010110100000000 cmp r5, #0  ; 0x00
000004c4 d000 1101000000000000 beq.n 4c8 ; PC + 4

000004c6 1924 0001100100100100 adds r4, r4, r4
000004c8 1914 0001100100010100 adds r4, r2, r4
000004ca 8334 1000001100110100 strh r4, [r6, #24]
000004cc 2900 0010100100000000 cmp r1, #0  ; 0x00
000004ce d00e 1101000000001110 beq.n 4ee ; PC + 32

000004d0 2154 0010000101010100 movs r1, #84  ; 0x54
000004d2 2d00 0010110100000000 cmp r5, #0  ; 0x00
000004d4 d000 1101000000000000 beq.n 4d8 ; PC + 4

000004d6 3120 0011000100100000 adds r1, #32  ; 0x20
000004d8 0649 0000011001001001 lsls  r1, r1, #25
000004da 3029 0011000000101001 adds r0, #41  ; 0x29
000004dc 1852 0001100001010010 adds r2, r2, r1
000004de 7801 0111100000000001 ldrb r1, [r0, #0]
000004e0 4806 0100100000000110 ldr  r0, [pc, #24] ; 0x0018
000004e2 181b 0001100000011011 adds r3, r3, r0
000004e4 2900 0010100100000000 cmp r1, #0  ; 0x00
000004e6 d003 1101000000000011 beq.n 4f0 ; PC + 10

000004e8 601a 0110000000011010 str  r2, [r3, #0] ; 0x0
000004ea 2200 0010001000000000 movs r2, #0  ; 0x00
000004ec 605a 0110000001011010 str  r2, [r3, #4] ; 0x4
000004ee bd70 1011110101110000 pop {r4, r5, r6, pc}
000004f0 6019 0110000000011001 str  r1, [r3, #0] ; 0x0
000004f2 e7fb 1110011111111011 b.n  4ec

000004f4 .word 50100080
000004f8 .word 501009ec
000004fc .word 50100000

00000500 b530 1011010100110000 push {r4, r5, lr}
00000502 1c45 0001110001000101 adds r5, r0, #1   ;0x1
00000504 b2c9 1011001011001001 uxtb
00000506 77e9 0111011111101001 strb r1, [r5, #31]
00000508 3528 0011010100101000 adds r5, #40  ; 0x28
0000050a 702a 0111000000101010 ldrb r2, [r5, #0]
0000050c 82c3 1000001011000011 strh r3, [r0, #22]
0000050e 0003 0000000000000011 movs r3, r0
00000510 ac03 1010110000000011 add r4, sp, #12 ; #c
00000512 7824 0111100000100100 ldrb r4, [r4, #0]
00000514 3328 0011001100101000 adds r3, #40  ; 0x28
00000516 701c 0111000000011100 ldrb r4, [r3, #0]
00000518 2301 0010001100000001 movs r3, #1  ; 0x01
0000051a 0049 0000000001001001 lsls  r1, r1, #1
0000051c 405a 0100000001011010 eors  r2, r3
0000051e 1889 0001100010001001 adds r1, r1, r2
00000520 1cc3 0001110011000011 adds r3, r0, #3   ;0x3
00000522 77d9 0111011111011001 strb r1, [r3, #31]
00000524 bd30 1011110100110000 pop {r4, r5, pc}
00000526 be00 1011111000000000 bkpt 0x0000

00000528 0013 0000000000010011 movs r3, r2
0000052a b5f0 1011010111110000 push {r4, r5, r6, r7, lr}
0000052c 0006 0000000000000110 movs r6, r0
0000052e 000c 0000000000001100 movs r4, r1
00000530 0015 0000000000010101 movs r5, r2
00000532 b085 1011000010000101 sub r0, sp, #532
00000534 3308 0011001100001000 adds r3, #8  ; 0x08
00000536 6001 0110000000000001 str  r1, [r0, #0] ; 0x0
00000538 9303 1001001100000011 str r3, [sp, #12]
0000053a 7823 0111100000100011 ldrb r3, [r4, #0]
0000053c 18e4 0001100011100100 adds r4, r4, r3
0000053e 7863 0111100001100011 ldrb r3, [r4, #1]
00000540 2b05 0010101100000101 cmp r3, #5  ; 0x05
00000542 d1fa 1101000111111010 bne.n 53a ; PC + -8

00000544 7963 0111100101100011 ldrb r3, [r4, #5]
00000546 7921 0111100100100001 ldrb r1, [r4, #4]
00000548 021b 0000001000011011 lsls  r3, r3, #8
0000054a 430b 0100001100001011 orrs  r3, r1
0000054c 270f 0010011100001111 movs r7, #15  ; 0x0f
0000054e 2101 0010000100000001 movs r1, #1  ; 0x01
00000550 78a2 0111100010100010 ldrb r2, [r4, #2]
00000552 9100 1001000100000000 str r1, [sp, #0]
00000554 4017 0100000000010111 ands  r7, r2
00000556 0039 0000000000111001 movs r1, r7
00000558 6828 0110100000101000 ldr  r0, [r5, #0] ; 0x0
0000055a 09d2 0000100111010010 lsrs  r2, r2, #7
0000055c f7ff 1111011111111111 (32-bit)
0000055e ffd0 1111111111010000 bl   500

00000560 cd08 1100110100001000 ldmia r5!, {r3}
00000562 4a05 0100101000000101 ldr  r2, [pc, #20] ; 0x0014
00000564 00bf 0000000010111111 lsls  r7, r7, #2
00000566 601c 0110000000011100 str  r4, [r3, #0] ; 0x0
00000568 50bb 0101000010111011 str r3, [r7, r2]
0000056a 9b03 1001101100000011 ldr r3, [sp, #12]
0000056c 42ab 0100001010101011 cmp  r3, r5
0000056e d1e4 1101000111100100 bne.n 53a ; PC + -52

00000570 0030 0000000000110000 movs r0, r6
00000572 b005 1011000000000101 add r0, sp, #20
00000574 bdf0 1011110111110000 pop {r4, r5, r6, r7, pc}
00000576 46c0 0100011011000000 nop  ; (mov  r8, r8)

00000578 .word 50100a08

0000057c 1c43 0001110001000011 adds r3, r0, #1   ;0x1
0000057e 7fdb 0111111111011011 strb r3, [r3, #31]
00000580 3029 0011000000101001 adds r0, #41  ; 0x29
00000582 7802 0111100000000010 ldrb r2, [r0, #0]
00000584 4903 0100100100000011 ldr  r1, [pc, #12] ; 0x000c
00000586 00db 0000000011011011 lsls  r3, r3, #3
00000588 1858 0001100001011000 adds r0, r3, r1
0000058a 2a00 0010101000000000 cmp r2, #0  ; 0x00
0000058c d001 1101000000000001 beq.n 592 ; PC + 6

0000058e 4a02 0100101000000010 ldr  r2, [pc, #8] ; 0x0008
00000590 1898 0001100010011000 adds r0, r3, r2
00000592 4770 0100011101110000 bx lr

00000594 .word 50100084
00000598 .word 50100080

0000059c b570 1011010101110000 push {r4, r5, r6, lr}
0000059e 0006 0000000000000110 movs r6, r0
000005a0 7f83 0111111110000011 strb r3, [r0, #30]
000005a2 0004 0000000000000100 movs r4, r0
000005a4 3618 0011011000011000 adds r6, #24  ; 0x18
000005a6 2b00 0010101100000000 cmp r3, #0  ; 0x00
000005a8 d11f 1101000100011111 bne.n 5ea ; PC + 66

000005aa 8ac3 1000101011000011 ldrh r3, [r0, #22]
000005ac 7743 0111011101000011 strb r3, [r0, #29]
000005ae 0003 0000000000000011 movs r3, r0
000005b0 3329 0011001100101001 adds r3, #41  ; 0x29
000005b2 7819 0111100000011001 ldrb r1, [r3, #0]
000005b4 1d43 0001110101000011 adds r3, r0, #5   ;0x5
000005b6 2900 0010100100000000 cmp r1, #0  ; 0x00
000005b8 d100 1101000100000000 bne.n 5bc ; PC + 4

000005ba 1d83 0001110110000011 adds r3, r0, #6   ;0x6
000005bc 7fdd 0111111111011101 strb r5, [r3, #31]
000005be 8aa3 1000101010100011 ldrh r3, [r4, #20]
000005c0 002a 0000000000101010 movs r2, r5
000005c2 1e50 0001111001010000 subs  r0, r2, #1   ;0x1
000005c4 4182 0100000110000010 sbc  r2, r0
000005c6 480a 0100100000001010 ldr  r0, [pc, #40] ; 0x0028
000005c8 0192 0000000110010010 lsls  r2, r2, #6
000005ca 181b 0001100000011011 adds r3, r3, r0
000005cc 189b 0001100010011011 adds r3, r3, r2
000005ce 61a3 0110000110100011 str  r3, [r4, #24] ; 0x18
000005d0 2300 0010001100000000 movs r3, #0  ; 0x00
000005d2 4299 0100001010011001 cmp  r1, r3
000005d4 d106 1101000100000110 bne.n 5e4 ; PC + 16

000005d6 0020 0000000000100000 movs r0, r4
000005d8 f7ff 1111011111111111 (32-bit)
000005da ffd0 1111111111010000 bl   57c

000005dc 006d 0000000001101101 lsls  r5, r5, #1
000005de 1945 0001100101000101 adds r5, r0, r5
000005e0 882b 1000100000101011 ldrh r3, [r5, #0] ; 0x0
000005e2 b2db 1011001011011011 uxtb
000005e4 7723 0111011100100011 strb r3, [r4, #28]
000005e6 2301 0010001100000001 movs r3, #1  ; 0x01
000005e8 77a3 0111011110100011 strb r3, [r4, #30]
000005ea 0030 0000000000110000 movs r0, r6
000005ec bd70 1011110101110000 pop {r4, r5, r6, pc}
000005ee 46c0 0100011011000000 nop  ; (mov  r8, r8)

000005f0 .word 50100000

000005f4 2200 0010001000000000 movs r2, #0  ; 0x00
000005f6 b570 1011010101110000 push {r4, r5, r6, lr}
000005f8 1dc3 0001110111000011 adds r3, r0, #7   ;0x7
000005fa 77da 0111011111011010 strb r2, [r3, #31]
000005fc 3301 0011001100000001 adds r3, #1  ; 0x01
000005fe 0004 0000000000000100 movs r4, r0
00000600 7fd8 0111111111011000 strb r0, [r3, #31]
00000602 4290 0100001010010000 cmp  r0, r2
00000604 d12f 1101000100101111 bne.n 666 ; PC + 98

00000606 2380 0010001110000000 movs r3, #128  ; 0x80
00000608 00db 0000000011011011 lsls  r3, r3, #3
0000060a 4319 0100001100011001 orrs  r1, r3
0000060c 0023 0000000000100011 movs r3, r4
0000060e 3329 0011001100101001 adds r3, #41  ; 0x29
00000610 781b 0111100000011011 ldrb r3, [r3, #0]
00000612 2b00 0010101100000000 cmp r3, #0  ; 0x00
00000614 d002 1101000000000010 beq.n 61c ; PC + 8

00000616 2380 0010001110000000 movs r3, #128  ; 0x80
00000618 021b 0000001000011011 lsls  r3, r3, #8
0000061a 4319 0100001100011001 orrs  r1, r3
0000061c 1ca2 0001110010100010 adds r2, r4, #2   ;0x2
0000061e 7fd3 0111111111010011 strb r3, [r2, #31]
00000620 2601 0010011000000001 movs r6, #1  ; 0x01
00000622 001d 0000000000011101 movs r5, r3
00000624 1e68 0001111001101000 subs  r0, r5, #1   ;0x1
00000626 4185 0100000110000101 sbc  r5, r0
00000628 4073 0100000001110011 eors  r3, r6
0000062a 77d3 0111011111010011 strb r3, [r2, #31]
0000062c 0020 0000000000100000 movs r0, r4
0000062e 036d 0000001101101101 lsls  r5, r5, #13
00000630 430d 0100001100001101 orrs  r5, r1
00000632 f7ff 1111011111111111 (32-bit)
00000634 ffa3 1111111110100011 bl   57c

00000636 1d63 0001110101100011 adds r3, r4, #5   ;0x5
00000638 7fda 0111111111011010 strb r2, [r3, #31]
0000063a b2ad 1011001010101101 uxth
0000063c 40b2 0100000010110010 lsl  r2, r6
0000063e 1880 0001100010000000 adds r0, r0, r2
00000640 2200 0010001000000000 movs r2, #0  ; 0x00
00000642 8005 1000000000000101 strh r5, [r0, #0]
00000644 1d21 0001110100100001 adds r1, r4, #4   ;0x4
00000646 77a2 0111011110100010 strb r2, [r4, #30]
00000648 7fca 0111111111001010 strb r2, [r1, #31]
0000064a 3a01 0011101000000001 subs r2, #1  ; 0x01
0000064c 77ca 0111011111001010 strb r2, [r1, #31]
0000064e 68a1 0110100010100001 ldr  r1, [r4, #8] ; 0x8
00000650 3428 0011010000101000 adds r4, #40  ; 0x28
00000652 688a 0110100010001010 ldr  r2, [r1, #8] ; 0x8
00000654 3a01 0011101000000001 subs r2, #1  ; 0x01
00000656 608a 0110000010001010 str  r2, [r1, #8] ; 0x8
00000658 7822 0111100000100010 ldrb r2, [r4, #0]
0000065a 2a00 0010101000000000 cmp r2, #0  ; 0x00
0000065c d002 1101000000000010 beq.n 664 ; PC + 8

0000065e 7fda 0111111111011010 strb r2, [r3, #31]
00000660 4056 0100000001010110 eors  r6, r2
00000662 77de 0111011111011110 strb r6, [r3, #31]
00000664 bd70 1011110101110000 pop {r4, r5, r6, pc}
00000666 20a0 0010000010100000 movs r0, #160  ; 0xa0
00000668 0140 0000000101000000 lsls  r0, r0, #5
0000066a 4301 0100001100000001 orrs  r1, r0
0000066c 77da 0111011111011010 strb r2, [r3, #31]
0000066e e7cd 1110011111001101 b.n  60c

00000670 b570 1011010101110000 push {r4, r5, r6, lr}
00000672 0004 0000000000000100 movs r4, r0
00000674 68a3 0110100010100011 ldr  r3, [r4, #8] ; 0x8
00000676 2b00 0010101100000000 cmp r3, #0  ; 0x00
00000678 d015 1101000000010101 beq.n 6a6 ; PC + 46

0000067a 689b 0110100010011011 ldr  r3, [r3, #8] ; 0x8
0000067c 2b00 0010101100000000 cmp r3, #0  ; 0x00
0000067e d012 1101000000010010 beq.n 6a6 ; PC + 40

00000680 1d26 0001110100100110 adds r6, r4, #4   ;0x4
00000682 7ff5 0111111111110101 strb r5, [r6, #31]
00000684 2d00 0010110100000000 cmp r5, #0  ; 0x00
00000686 d00e 1101000000001110 beq.n 6a6 ; PC + 32

00000688 1de3 0001110111100011 adds r3, r4, #7   ;0x7
0000068a 7fdb 0111111111011011 strb r3, [r3, #31]
0000068c 2b00 0010101100000000 cmp r3, #0  ; 0x00
0000068e d10a 1101000100001010 bne.n 6a6 ; PC + 24

00000690 0023 0000000000100011 movs r3, r4
00000692 3329 0011001100101001 adds r3, #41  ; 0x29
00000694 781b 0111100000011011 ldrb r3, [r3, #0]
00000696 2b00 0010101100000000 cmp r3, #0  ; 0x00
00000698 d006 1101000000000110 beq.n 6a8 ; PC + 16

0000069a 0020 0000000000100000 movs r0, r4
0000069c f7ff 1111011111111111 (32-bit)
0000069e fef0 1111111011110000 bl   480

000006a0 7ff3 0111111111110011 strb r3, [r6, #31]
000006a2 42ab 0100001010101011 cmp  r3, r5
000006a4 d1e6 1101000111100110 bne.n 674 ; PC + -48

000006a6 bd70 1011110101110000 pop {r4, r5, r6, pc}
000006a8 0020 0000000000100000 movs r0, r4
000006aa 8ae1 1000101011100001 ldrh r1, [r4, #22]
000006ac f7ff 1111011111111111 (32-bit)
000006ae ffa2 1111111110100010 bl   5f4

000006b0 e7e0 1110011111100000 b.n  674

000006b2 b570 1011010101110000 push {r4, r5, r6, lr}
000006b4 000d 0000000000001101 movs r5, r1
000006b6 0004 0000000000000100 movs r4, r0
000006b8 0011 0000000000010001 movs r1, r2
000006ba 0028 0000000000101000 movs r0, r5
000006bc 001a 0000000000011010 movs r2, r3
000006be f7ff 1111011111111111 (32-bit)
000006c0 fed7 1111111011010111 bl   470

000006c2 2300 0010001100000000 movs r3, #0  ; 0x00
000006c4 60e3 0110000011100011 str  r3, [r4, #12] ; 0xc
000006c6 3301 0011001100000001 adds r3, #1  ; 0x01
000006c8 60a5 0110000010100101 str  r5, [r4, #8] ; 0x8
000006ca 0020 0000000000100000 movs r0, r4
000006cc 74ab 0111010010101011 ldrb r3, [r5, #18]
000006ce f7ff 1111011111111111 (32-bit)
000006d0 ffcf 1111111111001111 bl   670

000006d2 bd70 1011110101110000 pop {r4, r5, r6, pc}
000006d4 b510 1011010100010000 push {r4, lr}
000006d6 0003 0000000000000011 movs r3, r0
000006d8 4a02 0100101000000010 ldr  r2, [pc, #8] ; 0x0008
000006da 4903 0100100100000011 ldr  r1, [pc, #12] ; 0x000c
000006dc 4803 0100100000000011 ldr  r0, [pc, #12] ; 0x000c
000006de f7ff 1111011111111111 (32-bit)
000006e0 ffe8 1111111111101000 bl   6b2

000006e2 bd10 1011110100010000 pop {r4, pc}
000006e4 .word 00003f59
000006e8 .word 50100a24
000006ec .word 50100dc0

000006f0 6841 0110100001000001 ldr  r1, [r0, #4] ; 0x4
000006f2 6883 0110100010000011 ldr  r3, [r0, #8] ; 0x8
000006f4 b510 1011010100010000 push {r4, lr}
000006f6 428b 0100001010001011 cmp  r3, r1
000006f8 d003 1101000000000011 beq.n 702 ; PC + 10

000006fa 2300 0010001100000000 movs r3, #0  ; 0x00
000006fc 680a 0110100000001010 ldr  r2, [r1, #0] ; 0x0
000006fe f7ff 1111011111111111 (32-bit)
00000700 ffd8 1111111111011000 bl   6b2

00000702 bd10 1011110100010000 pop {r4, pc}
00000704 0003 0000000000000011 movs r3, r0
00000706 b510 1011010100010000 push {r4, lr}
00000708 3333 0011001100110011 adds r3, #51  ; 0x33
0000070a 7fdb 0111111111011011 strb r3, [r3, #31]
0000070c 302c 0011000000101100 adds r0, #44  ; 0x2c
0000070e 2b00 0010101100000000 cmp r3, #0  ; 0x00
00000710 d101 1101000100000001 bne.n 716 ; PC + 6

00000712 f7ff 1111011111111111 (32-bit)
00000714 ffed 1111111111101101 bl   6f0

00000716 bd10 1011110100010000 pop {r4, pc}
00000718 0003 0000000000000011 movs r3, r0
0000071a b570 1011010101110000 push {r4, r5, r6, lr}
0000071c 3329 0011001100101001 adds r3, #41  ; 0x29
0000071e 781b 0111100000011011 ldrb r3, [r3, #0]
00000720 0004 0000000000000100 movs r4, r0
00000722 000d 0000000000001101 movs r5, r1
00000724 0016 0000000000010110 movs r6, r2
00000726 2b00 0010101100000000 cmp r3, #0  ; 0x00
00000728 d003 1101000000000011 beq.n 732 ; PC + 10

0000072a f7ff 1111011111111111 (32-bit)
0000072c ff37 1111111100110111 bl   59c

0000072e 2300 0010001100000000 movs r3, #0  ; 0x00
00000730 7103 0111000100000011 ldrb r3, [r0, #4]
00000732 0033 0000000000110011 movs r3, r6
00000734 0029 0000000000101001 movs r1, r5
00000736 0020 0000000000100000 movs r0, r4
00000738 4a01 0100101000000001 ldr  r2, [pc, #4] ; 0x0004
0000073a f7ff 1111011111111111 (32-bit)
0000073c ffba 1111111110111010 bl   6b2

0000073e bd70 1011110101110000 pop {r4, r5, r6, pc}
00000740 .word 00003f59

00000744 b510 1011010100010000 push {r4, lr}
00000746 2200 0010001000000000 movs r2, #0  ; 0x00
00000748 4902 0100100100000010 ldr  r1, [pc, #8] ; 0x0008
0000074a 4803 0100100000000011 ldr  r0, [pc, #12] ; 0x000c
0000074c f7ff 1111011111111111 (32-bit)
0000074e ffe4 1111111111100100 bl   718

00000750 bd10 1011110100010000 pop {r4, pc}
00000752 46c0 0100011011000000 nop  ; (mov  r8, r8)

00000754 09c4 0000100111000100 lsrs  r4, r0, #7
00000756 5010 0101000000010000 str r0, [r2, r0]
00000758 0f68 0000111101101000 lsrs  r0, r5, #29
0000075a 5010 0101000000010000 str r0, [r2, r0]
0000075c b510 1011010100010000 push {r4, lr}
0000075e 2200 0010001000000000 movs r2, #0  ; 0x00
00000760 4902 0100100100000010 ldr  r1, [pc, #8] ; 0x0008
00000762 4803 0100100000000011 ldr  r0, [pc, #12] ; 0x000c
00000764 f7ff 1111011111111111 (32-bit)
00000766 ffd8 1111111111011000 bl   718

00000768 bd10 1011110100010000 pop {r4, pc}
0000076a 46c0 0100011011000000 nop  ; (mov  r8, r8)

0000076c 09d8 0000100111011000 lsrs  r0, r3, #7
0000076e 5010 0101000000010000 str r0, [r2, r0]
00000770 0f94 0000111110010100 lsrs  r4, r2, #30
00000772 5010 0101000000010000 str r0, [r2, r0]
00000774 b510 1011010100010000 push {r4, lr}
00000776 4b03 0100101100000011 ldr  r3, [pc, #12] ; 0x000c
00000778 4a03 0100101000000011 ldr  r2, [pc, #12] ; 0x000c
0000077a 4904 0100100100000100 ldr  r1, [pc, #16] ; 0x0010
0000077c 4804 0100100000000100 ldr  r0, [pc, #16] ; 0x0010
0000077e f7ff 1111011111111111 (32-bit)
00000780 ff98 1111111110011000 bl   6b2

00000782 bd10 1011110100010000 pop {r4, pc}
00000784 075d 0000011101011101 lsls  r5, r3, #29
00000786 0000 0000000000000000 nop     ; movs r0, r0

00000788 3f59 0011111101011001 subs r7, #89  ; 0x59
0000078a 0000 0000000000000000 nop     ; movs r0, r0

0000078c 09c4 0000100111000100 lsrs  r4, r0, #7
0000078e 5010 0101000000010000 str r0, [r2, r0]
00000790 0f68 0000111101101000 lsrs  r0, r5, #29
00000792 5010 0101000000010000 str r0, [r2, r0]
00000794 b510 1011010100010000 push {r4, lr}
00000796 1dc3 0001110111000011 adds r3, r0, #7   ;0x7
00000798 7fda 0111111111011010 strb r2, [r3, #31]
0000079a 6881 0110100010000001 ldr  r1, [r0, #8] ; 0x8
0000079c 2a00 0010101000000000 cmp r2, #0  ; 0x00
0000079e d105 1101000100000101 bne.n 7ac ; PC + 14

000007a0 68cb 0110100011001011 ldr  r3, [r1, #12] ; 0xc
000007a2 2b00 0010101100000000 cmp r3, #0  ; 0x00
000007a4 d10a 1101000100001010 bne.n 7bc ; PC + 24

000007a6 7c0b 0111110000001011 ldrb r3, [r1, #16]
000007a8 2b00 0010101100000000 cmp r3, #0  ; 0x00
000007aa d107 1101000100000111 bne.n 7bc ; PC + 18

000007ac 2401 0010010000000001 movs r4, #1  ; 0x01
000007ae 2300 0010001100000000 movs r3, #0  ; 0x00
000007b0 74cc 0111010011001100 ldrb r4, [r1, #19]
000007b2 6083 0110000010000011 str  r3, [r0, #8] ; 0x8
000007b4 429a 0100001010011010 cmp  r2, r3
000007b6 d002 1101000000000010 beq.n 7be ; PC + 8

000007b8 60cb 0110000011001011 str  r3, [r1, #12] ; 0xc
000007ba 608b 0110000010001011 str  r3, [r1, #8] ; 0x8
000007bc bd10 1011110100010000 pop {r4, pc}
000007be 684b 0110100001001011 ldr  r3, [r1, #4] ; 0x4
000007c0 2b00 0010101100000000 cmp r3, #0  ; 0x00
000007c2 d001 1101000000000001 beq.n 7c8 ; PC + 6

000007c4 4798 0100011110011000 blx  r3

000007c6 e7f9 1110011111111001 b.n  7bc

000007c8 68c3 0110100011000011 ldr  r3, [r0, #12] ; 0xc
000007ca 2b00 0010101100000000 cmp r3, #0  ; 0x00
000007cc d0f6 1101000011110110 beq.n 7bc ; PC + -16

000007ce 6083 0110000010000011 str  r3, [r0, #8] ; 0x8
000007d0 60c2 0110000011000010 str  r2, [r0, #12] ; 0xc
000007d2 749c 0111010010011100 ldrb r4, [r3, #18]
000007d4 f7ff 1111011111111111 (32-bit)
000007d6 ff4c 1111111101001100 bl   670

000007d8 e7f0 1110011111110000 b.n  7bc

000007da be00 1011111000000000 bkpt 0x0000

000007dc b570 1011010101110000 push {r4, r5, r6, lr}
000007de 1dc6 0001110111000110 adds r6, r0, #7   ;0x7
000007e0 7ff3 0111111111110011 strb r3, [r6, #31]
000007e2 0004 0000000000000100 movs r4, r0
000007e4 000d 0000000000001101 movs r5, r1
000007e6 2b00 0010101100000000 cmp r3, #0  ; 0x00
000007e8 d11a 1101000100011010 bne.n 820 ; PC + 56

000007ea 1c43 0001110001000011 adds r3, r0, #1   ;0x1
000007ec 7fdb 0111111111011011 strb r3, [r3, #31]
000007ee 2b00 0010101100000000 cmp r3, #0  ; 0x00
000007f0 d107 1101000100000111 bne.n 802 ; PC + 18

000007f2 0003 0000000000000011 movs r3, r0
000007f4 3329 0011001100101001 adds r3, #41  ; 0x29
000007f6 781b 0111100000011011 ldrb r3, [r3, #0]
000007f8 425a 0100001001011010 rsb  r2, r3
000007fa 4153 0100000101010011 adc  r3, r2
000007fc 4a0a 0100101000001010 ldr  r2, [pc, #40] ; 0x0028
000007fe 3301 0011001100000001 adds r3, #1  ; 0x01
00000800 6693 0110011010010011 str  r3, [r2, #104] ; 0x68
00000802 0020 0000000000100000 movs r0, r4
00000804 f7ff 1111011111111111 (32-bit)
00000806 feba 1111111010111010 bl   57c

00000808 2380 0010001110000000 movs r3, #128  ; 0x80
0000080a 6802 0110100000000010 ldr  r2, [r0, #0] ; 0x0
0000080c 011b 0000000100011011 lsls  r3, r3, #4
0000080e 4313 0100001100010011 orrs  r3, r2
00000810 6003 0110000000000011 str  r3, [r0, #0] ; 0x0
00000812 77f5 0111011111110101 strb r5, [r6, #31]
00000814 6923 0110100100100011 ldr  r3, [r4, #16] ; 0x10
00000816 2b00 0010101100000000 cmp r3, #0  ; 0x00
00000818 d001 1101000000000001 beq.n 81e ; PC + 6

0000081a 0020 0000000000100000 movs r0, r4
0000081c 4798 0100011110011000 blx  r3

0000081e bd70 1011110101110000 pop {r4, r5, r6, pc}
00000820 428b 0100001010001011 cmp  r3, r1
00000822 d2fc 1101001011111100 bcs.n 81e ; PC + -4

00000824 77f1 0111011111110001 strb r1, [r6, #31]
00000826 e7fa 1110011111111010 b.n  81e

00000828 2000 0010000000000000 movs r0, #0  ; 0x00
0000082a 5011 0101000000010001 str r1, [r2, r0]
0000082c b570 1011010101110000 push {r4, r5, r6, lr}
0000082e 2800 0010100000000000 cmp r0, #0  ; 0x00
00000830 d00e 1101000000001110 beq.n 850 ; PC + 32

00000832 4b18 0100101100011000 ldr  r3, [pc, #96] ; 0x0060
00000834 0080 0000000010000000 lsls  r0, r0, #2
00000836 58c4 0101100011000100 ldr r4, [r0, r3]
00000838 1d21 0001110100100001 adds r1, r4, #4   ;0x4
0000083a 7fcb 0111111111001011 strb r3, [r1, #31]
0000083c 3301 0011001100000001 adds r3, #1  ; 0x01
0000083e 77cb 0111011111001011 strb r3, [r1, #31]
00000840 68a5 0110100010100101 ldr  r5, [r4, #8] ; 0x8
00000842 2d00 0010110100000000 cmp r5, #0  ; 0x00
00000844 d109 1101000100001001 bne.n 85a ; PC + 22

00000846 2102 0010000100000010 movs r1, #2  ; 0x02
00000848 0020 0000000000100000 movs r0, r4
0000084a f7ff 1111011111111111 (32-bit)
0000084c ffc7 1111111111000111 bl   7dc

0000084e bd70 1011110101110000 pop {r4, r5, r6, pc}
00000850 4c11 0100110000010001 ldr  r4, [pc, #68] ; 0x0044
00000852 2900 0010100100000000 cmp r1, #0  ; 0x00
00000854 d1f0 1101000111110000 bne.n 838 ; PC + -28

00000856 4c11 0100110000010001 ldr  r4, [pc, #68] ; 0x0044
00000858 e7ee 1110011111101110 b.n  838

0000085a 7c2b 0111110000101011 ldrb r3, [r5, #16]
0000085c 2b00 0010101100000000 cmp r3, #0  ; 0x00
0000085e d002 1101000000000010 beq.n 866 ; PC + 8

00000860 2301 0010001100000001 movs r3, #1  ; 0x01
00000862 746b 0111010001101011 ldrb r3, [r5, #17]
00000864 e7f3 1110011111110011 b.n  84e

00000866 1da3 0001110110100011 adds r3, r4, #6   ;0x6
00000868 77da 0111011111011010 strb r2, [r3, #31]
0000086a 3323 0011001100100011 adds r3, #35  ; 0x23
0000086c 781b 0111100000011011 ldrb r3, [r3, #0]
0000086e 2b00 0010101100000000 cmp r3, #0  ; 0x00
00000870 d002 1101000000000010 beq.n 878 ; PC + 8

00000872 68ab 0110100010101011 ldr  r3, [r5, #8] ; 0x8
00000874 2b00 0010101100000000 cmp r3, #0  ; 0x00
00000876 d002 1101000000000010 beq.n 87e ; PC + 8

00000878 0020 0000000000100000 movs r0, r4
0000087a f7ff 1111011111111111 (32-bit)
0000087c fe01 1111111000000001 bl   480

0000087e 7ceb 0111110011101011 ldrb r3, [r5, #19]
00000880 2b00 0010101100000000 cmp r3, #0  ; 0x00
00000882 d1e4 1101000111100100 bne.n 84e ; PC + -52

00000884 68eb 0110100011101011 ldr  r3, [r5, #12] ; 0xc
00000886 0020 0000000000100000 movs r0, r4
00000888 3b01 0011101100000001 subs r3, #1  ; 0x01
0000088a 60eb 0110000011101011 str  r3, [r5, #12] ; 0xc
0000088c f7ff 1111011111111111 (32-bit)
0000088e ff82 1111111110000010 bl   794

00000890 e7dd 1110011111011101 b.n  84e

00000892 46c0 0100011011000000 nop  ; (mov  r8, r8)

00000894 0a08 0000101000001000 lsrs  r0, r1, #8
00000896 5010 0101000000010000 str r0, [r2, r0]
00000898 0f68 0000111101101000 lsrs  r0, r5, #29
0000089a 5010 0101000000010000 str r0, [r2, r0]
0000089c 0f94 0000111110010100 lsrs  r4, r2, #30
0000089e 5010 0101000000010000 str r0, [r2, r0]
000008a0 2300 0010001100000000 movs r3, #0  ; 0x00
000008a2 b570 1011010101110000 push {r4, r5, r6, lr}
000008a4 6885 0110100010000101 ldr  r5, [r0, #8] ; 0x8
000008a6 0004 0000000000000100 movs r4, r0
000008a8 742b 0111010000101011 ldrb r3, [r5, #16]
000008aa f7ff 1111011111111111 (32-bit)
000008ac ff73 1111111101110011 bl   794

000008ae 7ceb 0111110011101011 ldrb r3, [r5, #19]
000008b0 2b00 0010101100000000 cmp r3, #0  ; 0x00
000008b2 d11b 1101000100011011 bne.n 8ec ; PC + 58

000008b4 0026 0000000000100110 movs r6, r4
000008b6 3629 0011011000101001 adds r6, #41  ; 0x29
000008b8 7833 0111100000110011 ldrb r3, [r6, #0]
000008ba 2b00 0010101100000000 cmp r3, #0  ; 0x00
000008bc d003 1101000000000011 beq.n 8c6 ; PC + 10

000008be 0020 0000000000100000 movs r0, r4
000008c0 7f21 0111111100100001 strb r1, [r4, #28]
000008c2 f7ff 1111011111111111 (32-bit)
000008c4 fe97 1111111010010111 bl   5f4

000008c6 2300 0010001100000000 movs r3, #0  ; 0x00
000008c8 77a3 0111011110100011 strb r3, [r4, #30]
000008ca 7c6a 0111110001101010 ldrb r2, [r5, #17]
000008cc 429a 0100001010011010 cmp  r2, r3
000008ce d00e 1101000000001110 beq.n 8ee ; PC + 32

000008d0 746b 0111010001101011 ldrb r3, [r5, #17]
000008d2 1d22 0001110100100010 adds r2, r4, #4   ;0x4
000008d4 7fd3 0111111111010011 strb r3, [r2, #31]
000008d6 3b01 0011101100000001 subs r3, #1  ; 0x01
000008d8 77d3 0111011111010011 strb r3, [r2, #31]
000008da 2201 0010001000000001 movs r2, #1  ; 0x01
000008dc 1da3 0001110110100011 adds r3, r4, #6   ;0x6
000008de 7fdb 0111111111011011 strb r3, [r3, #31]
000008e0 3401 0011010000000001 adds r4, #1  ; 0x01
000008e2 7831 0111100000110001 ldrb r1, [r6, #0]
000008e4 7fe0 0111111111100000 strb r0, [r4, #31]
000008e6 405a 0100000001011010 eors  r2, r3
000008e8 f7ff 1111011111111111 (32-bit)
000008ea ffa0 1111111110100000 bl   82c

000008ec bd70 1011110101110000 pop {r4, r5, r6, pc}
000008ee 0020 0000000000100000 movs r0, r4
000008f0 f7ff 1111011111111111 (32-bit)
000008f2 febe 1111111010111110 bl   670

000008f4 e7fa 1110011111111010 b.n  8ec

000008f6 be00 1011111000000000 bkpt 0x0000

000008f8 b5f8 1011010111111000 push {r3, r4, r5, r6, r7, lr}
000008fa 0004 0000000000000100 movs r4, r0
000008fc f7ff 1111011111111111 (32-bit)
000008fe fe3e 1111111000111110 bl   57c

00000900 0025 0000000000100101 movs r5, r4
00000902 6802 0110100000000010 ldr  r2, [r0, #0] ; 0x0
00000904 4b19 0100101100011001 ldr  r3, [pc, #100] ; 0x0064
00000906 3528 0011010100101000 adds r5, #40  ; 0x28
00000908 421a 0100001000011010 tst  r2, r3
0000090a d01d 1101000000011101 beq.n 948 ; PC + 62

0000090c 782b 0111100000101011 ldrb r3, [r5, #0]
0000090e 2b00 0010101100000000 cmp r3, #0  ; 0x00
00000910 d003 1101000000000011 beq.n 91a ; PC + 10

00000912 1d23 0001110100100011 adds r3, r4, #4   ;0x4
00000914 7fdb 0111111111011011 strb r3, [r3, #31]
00000916 2b01 0010101100000001 cmp r3, #1  ; 0x01
00000918 d104 1101000100000100 bne.n 924 ; PC + 12

0000091a 2301 0010001100000001 movs r3, #1  ; 0x01
0000091c 1ca2 0001110010100010 adds r2, r4, #2   ;0x2
0000091e 7fd1 0111111111010001 strb r1, [r2, #31]
00000920 404b 0100000001001011 eors  r3, r1
00000922 77d3 0111011111010011 strb r3, [r2, #31]
00000924 1ce3 0001110011100011 adds r3, r4, #3   ;0x3
00000926 7fda 0111111111011010 strb r2, [r3, #31]
00000928 2301 0010001100000001 movs r3, #1  ; 0x01
0000092a 4093 0100000010010011 lsl  r3, r2
0000092c 4910 0100100100010000 ldr  r1, [pc, #64] ; 0x0040
0000092e 4a11 0100101000010001 ldr  r2, [pc, #68] ; 0x0044
00000930 4811 0100100000010001 ldr  r0, [pc, #68] ; 0x0044
00000932 4e12 0100111000010010 ldr  r6, [pc, #72] ; 0x0048
00000934 6653 0110011001010011 str  r3, [r2, #100] ; 0x64
00000936 660b 0110011000001011 str  r3, [r1, #96] ; 0x60
00000938 6e77 0110111001110111 ldr  r7, [r6, #100] ; 0x64
0000093a 423b 0100001000111011 tst  r3, r7
0000093c d102 1101000100000010 bne.n 944 ; PC + 8

0000093e 3801 0011100000000001 subs r0, #1  ; 0x01
00000940 2800 0010100000000000 cmp r0, #0  ; 0x00
00000942 d111 1101000100010001 bne.n 968 ; PC + 38

00000944 6613 0110011000010011 str  r3, [r2, #96] ; 0x60
00000946 6653 0110011001010011 str  r3, [r2, #100] ; 0x64
00000948 0020 0000000000100000 movs r0, r4
0000094a f7ff 1111011111111111 (32-bit)
0000094c fe17 1111111000010111 bl   57c

0000094e 782b 0111100000101011 ldrb r3, [r5, #0]
00000950 2200 0010001000000000 movs r2, #0  ; 0x00
00000952 1e59 0001111001011001 subs  r1, r3, #1   ;0x1
00000954 418b 0100000110001011 sbc  r3, r1
00000956 1d21 0001110100100001 adds r1, r4, #4   ;0x4
00000958 3301 0011001100000001 adds r3, #1  ; 0x01
0000095a 6002 0110000000000010 str  r2, [r0, #0] ; 0x0
0000095c 77cb 0111011111001011 strb r3, [r1, #31]
0000095e 2301 0010001100000001 movs r3, #1  ; 0x01
00000960 84a2 1000010010100010 strh r2, [r4, #36]
00000962 3408 0011010000001000 adds r4, #8  ; 0x08
00000964 77e3 0111011111100011 strb r3, [r4, #31]
00000966 bdf8 1011110111111000 pop {r3, r4, r5, r6, r7, pc}
00000968 660b 0110011000001011 str  r3, [r1, #96] ; 0x60
0000096a e7e5 1110011111100101 b.n  938

0000096c 0400 0000010000000000 lsls  r0, r0, #16
0000096e 0400 0000010000000000 lsls  r0, r0, #16
00000970 2000 0010000000000000 movs r0, #0  ; 0x00
00000972 5011 0101000000010001 str r1, [r2, r0]
00000974 3000 0011000000000000 adds r0, #0  ; 0x00
00000976 5011 0101000000010001 str r1, [r2, r0]
00000978 86a0 1000011010100000 strh r0, [r4, #52]
0000097a 0001 0000000000000001 movs r1, r0
0000097c 0000 0000000000000000 nop     ; movs r0, r0

0000097e 5011 0101000000010001 str r1, [r2, r0]
00000980 b570 1011010101110000 push {r4, r5, r6, lr}
00000982 4d08 0100110100001000 ldr  r5, [pc, #32] ; 0x0020
00000984 0028 0000000000101000 movs r0, r5
00000986 f7ff 1111011111111111 (32-bit)
00000988 ffb7 1111111110110111 bl   8f8

0000098a 4c07 0100110000000111 ldr  r4, [pc, #28] ; 0x001c
0000098c 0020 0000000000100000 movs r0, r4
0000098e f7ff 1111011111111111 (32-bit)
00000990 ffb3 1111111110110011 bl   8f8

00000992 0028 0000000000101000 movs r0, r5
00000994 2101 0010000100000001 movs r1, #1  ; 0x01
00000996 f7ff 1111011111111111 (32-bit)
00000998 ff21 1111111100100001 bl   7dc

0000099a 2101 0010000100000001 movs r1, #1  ; 0x01
0000099c 0020 0000000000100000 movs r0, r4
0000099e f7ff 1111011111111111 (32-bit)
000009a0 ff1d 1111111100011101 bl   7dc

000009a2 bd70 1011110101110000 pop {r4, r5, r6, pc}
000009a4 0f68 0000111101101000 lsrs  r0, r5, #29
000009a6 5010 0101000000010000 str r0, [r2, r0]
000009a8 0f94 0000111110010100 lsrs  r4, r2, #30
000009aa 5010 0101000000010000 str r0, [r2, r0]
000009ac b570 1011010101110000 push {r4, r5, r6, lr}
000009ae 2500 0010010100000000 movs r5, #0  ; 0x00
000009b0 6085 0110000010000101 str  r5, [r0, #8] ; 0x8
000009b2 000e 0000000000001110 movs r6, r1
000009b4 0004 0000000000000100 movs r4, r0
000009b6 f7ff 1111011111111111 (32-bit)
000009b8 ff9f 1111111110011111 bl   8f8

000009ba 42ae 0100001010101110 cmp  r6, r5
000009bc d001 1101000000000001 beq.n 9c2 ; PC + 6

000009be 1ca2 0001110010100010 adds r2, r4, #2   ;0x2
000009c0 77d5 0111011111010101 strb r5, [r2, #31]
000009c2 77a5 0111011110100101 strb r5, [r4, #30]
000009c4 1de2 0001110111100010 adds r2, r4, #7   ;0x7
000009c6 7fd1 0111111111010001 strb r1, [r2, #31]
000009c8 2900 0010100100000000 cmp r1, #0  ; 0x00
000009ca d005 1101000000000101 beq.n 9d8 ; PC + 14

000009cc 77d5 0111011111010101 strb r5, [r2, #31]
000009ce 6923 0110100100100011 ldr  r3, [r4, #16] ; 0x10
000009d0 2b00 0010101100000000 cmp r3, #0  ; 0x00
000009d2 d001 1101000000000001 beq.n 9d8 ; PC + 6

000009d4 0020 0000000000100000 movs r0, r4
000009d6 4798 0100011110011000 blx  r3

000009d8 4b07 0100101100000111 ldr  r3, [pc, #28] ; 0x001c
000009da 7d5b 0111110101011011 ldrb r3, [r3, #21]
000009dc 2b00 0010101100000000 cmp r3, #0  ; 0x00
000009de d009 1101000000001001 beq.n 9f4 ; PC + 22

000009e0 6861 0110100001100001 ldr  r1, [r4, #4] ; 0x4
000009e2 2900 0010100100000000 cmp r1, #0  ; 0x00
000009e4 d006 1101000000000110 beq.n 9f4 ; PC + 16

000009e6 68a3 0110100010100011 ldr  r3, [r4, #8] ; 0x8
000009e8 2b00 0010101100000000 cmp r3, #0  ; 0x00
000009ea d103 1101000100000011 bne.n 9f4 ; PC + 10

000009ec 0020 0000000000100000 movs r0, r4
000009ee 680a 0110100000001010 ldr  r2, [r1, #0] ; 0x0
000009f0 f7ff 1111011111111111 (32-bit)
000009f2 fe5f 1111111001011111 bl   6b2

000009f4 bd70 1011110101110000 pop {r4, r5, r6, pc}
000009f6 46c0 0100011011000000 nop  ; (mov  r8, r8)

000009f8 09ec 0000100111101100 lsrs  r4, r5, #7
000009fa 5010 0101000000010000 str r0, [r2, r0]
000009fc b510 1011010100010000 push {r4, lr}
000009fe 4b1e 0100101100011110 ldr  r3, [pc, #120] ; 0x0078
00000a00 4c1e 0100110000011110 ldr  r4, [pc, #120] ; 0x0078
00000a02 601c 0110000000011100 str  r4, [r3, #0] ; 0x0
00000a04 2480 0010010010000000 movs r4, #128  ; 0x80
00000a06 4b1e 0100101100011110 ldr  r3, [pc, #120] ; 0x0078
00000a08 05e4 0000010111100100 lsls  r4, r4, #23
00000a0a 601c 0110000000011100 str  r4, [r3, #0] ; 0x0
00000a0c 24e0 0010010011100000 movs r4, #224  ; 0xe0
00000a0e 04e4 0000010011100100 lsls  r4, r4, #19
00000a10 601c 0110000000011100 str  r4, [r3, #0] ; 0x0
00000a12 4b1c 0100101100011100 ldr  r3, [pc, #112] ; 0x0070
00000a14 2800 0010100000000000 cmp r0, #0  ; 0x00
00000a16 d02c 1101000000101100 beq.n a72 ; PC + 92

00000a18 2401 0010010000000001 movs r4, #1  ; 0x01
00000a1a 4320 0100001100100000 orrs  r0, r4
00000a1c 4c1a 0100110000011010 ldr  r4, [pc, #104] ; 0x0068
00000a1e 61dc 0110000111011100 str  r4, [r3, #28] ; 0x1c
00000a20 69dc 0110100111011100 ldr  r4, [r3, #28] ; 0x1c
00000a22 4264 0100001001100100 rsb  r4, r4
00000a24 4044 0100000001000100 eors  r4, r0
00000a26 621c 0110001000011100 str  r4, [r3, #32] ; 0x20 imm5
00000a28 6259 0110001001011001 str  r1, [r3, #36] ; 0x24 imm5
00000a2a 6298 0110001010011000 str  r0, [r3, #40] ; 0x28 imm5
00000a2c 21fa 0010000111111010 movs r1, #250  ; 0xfa
00000a2e 0089 0000000010001001 lsls  r1, r1, #2
00000a30 434a 0100001101001010 muls  r2, r1
00000a32 605a 0110000001011010 str  r2, [r3, #4] ; 0x4
00000a34 4a15 0100101000010101 ldr  r2, [pc, #84] ; 0x0054
00000a36 6811 0110100000010001 ldr  r1, [r2, #0] ; 0x0
00000a38 2202 0010001000000010 movs r2, #2  ; 0x02
00000a3a 4211 0100001000010001 tst  r1, r2
00000a3c d10b 1101000100001011 bne.n a56 ; PC + 26

00000a3e 4914 0100100100010100 ldr  r1, [pc, #80] ; 0x0050
00000a40 4814 0100100000010100 ldr  r0, [pc, #80] ; 0x0050
00000a42 6809 0110100000001001 ldr  r1, [r1, #0] ; 0x0
00000a44 404a 0100000001001010 eors  r2, r1
00000a46 2103 0010000100000011 movs r1, #3  ; 0x03
00000a48 400a 0100000000001010 ands  r2, r1
00000a4a 4913 0100100100010011 ldr  r1, [pc, #76] ; 0x004c
00000a4c 600a 0110000000001010 str  r2, [r1, #0] ; 0x0
00000a4e 2204 0010001000000100 movs r2, #4  ; 0x04
00000a50 6b81 0110101110000001 ldr  r1, [r0, #56] ; 0x38
00000a52 4211 0100001000010001 tst  r1, r2
00000a54 d0fc 1101000011111100 beq.n a50 ; PC + -4

00000a56 220c 0010001000001100 movs r2, #12  ; 0x0c
00000a58 62da 0110001011011010 str  r2, [r3, #44] ; 0x2c imm5
00000a5a 4b10 0100101100010000 ldr  r3, [pc, #64] ; 0x0040
00000a5c 32f5 0011001011110101 adds r2, #245  ; 0xf5
00000a5e 32ff 0011001011111111 adds r2, #255  ; 0xff
00000a60 601a 0110000000011010 str  r2, [r3, #0] ; 0x0
00000a62 2280 0010001010000000 movs r2, #128  ; 0x80
00000a64 4b0e 0100101100001110 ldr  r3, [pc, #56] ; 0x0038
00000a66 05d2 0000010111010010 lsls  r2, r2, #23
00000a68 601a 0110000000011010 str  r2, [r3, #0] ; 0x0
00000a6a 2201 0010001000000001 movs r2, #1  ; 0x01
00000a6c 4b0d 0100101100001101 ldr  r3, [pc, #52] ; 0x0034
00000a6e 701a 0111000000011010 ldrb r2, [r3, #0]
00000a70 bd10 1011110100010000 pop {r4, pc}
00000a72 61d8 0110000111011000 str  r0, [r3, #28] ; 0x1c
00000a74 e7da 1110011111011010 b.n  a2c

00000a76 46c0 0100011011000000 nop  ; (mov  r8, r8)

00000a78 0008 0000000000001000 movs r0, r1
00000a7a 4001 0100000000000001 ands  r1, r0
00000a7c fffc 1111111111111100 (32-bit)
00000a7e 0001 0000000000000001 To be implemented

00000a80 b000 1011000000000000 add r0, sp, #0
00000a82 4005 0100000000000101 ands  r5, r0
00000a84 8000 1000000000000000 strh r0, [r0, #0]
00000a86 4005 0100000000000101 ands  r5, r0
00000a88 c0d3 1100000011010011 stmia r0!, {r0, r1, r4, r6, r7}
00000a8a b007 1011000000000111 add r0, sp, #28
00000a8c c000 1100000000000000 stmia r0!, {}
00000a8e 4006 0100000000000110 ands  r6, r0
00000a90 8030 1000000000110000 strh r0, [r6, #0]
00000a92 4000 0100000000000000 ands  r0, r0
00000a94 8000 1000000000000000 strh r0, [r0, #0]
00000a96 4000 0100000000000000 ands  r0, r0
00000a98 9030 1001000000110000 str r0, [sp, #192]
00000a9a 4000 0100000000000000 ands  r0, r0
00000a9c a02c 1010000000101100 add r0, pc, #176
00000a9e 4005 0100000000000101 ands  r5, r0
00000aa0 a000 1010000000000000 add r0, pc, #0
00000aa2 4005 0100000000000101 ands  r5, r0
00000aa4 0eb4 0000111010110100 lsrs  r4, r6, #26
00000aa6 5010 0101000000010000 str r0, [r2, r0]
00000aa8 b570 1011010101110000 push {r4, r5, r6, lr}
00000aaa 0004 0000000000000100 movs r4, r0
00000aac 1845 0001100001000101 adds r5, r0, r1
00000aae 2000 0010000000000000 movs r0, #0  ; 0x00
00000ab0 42ac 0100001010101100 cmp  r4, r5
00000ab2 d201 1101001000000001 bcs.n ab8 ; PC + 6

00000ab4 2800 0010100000000000 cmp r0, #0  ; 0x00
00000ab6 d000 1101000000000000 beq.n aba ; PC + 4

00000ab8 bd70 1011110101110000 pop {r4, r5, r6, pc}
00000aba 4b04 0100101100000100 ldr  r3, [pc, #16] ; 0x0010
00000abc 0020 0000000000100000 movs r0, r4
00000abe 681b 0110100000011011 ldr  r3, [r3, #0] ; 0x0
00000ac0 68db 0110100011011011 ldr  r3, [r3, #12] ; 0xc
00000ac2 4798 0100011110011000 blx  r3

00000ac4 2380 0010001110000000 movs r3, #128  ; 0x80
00000ac6 015b 0000000101011011 lsls  r3, r3, #5
00000ac8 18e4 0001100011100100 adds r4, r4, r3
00000aca e7f1 1110011111110001 b.n  ab0

00000acc 0dbc 0000110110111100 lsrs  r4, r7, #22
00000ace 5010 0101000000010000 str r0, [r2, r0]
00000ad0 22e0 0010001011100000 movs r2, #224  ; 0xe0
00000ad2 0612 0000011000010010 lsls  r2, r2, #24
00000ad4 1881 0001100010000001 adds r1, r0, r2
00000ad6 2284 0010001010000100 movs r2, #132  ; 0x84
00000ad8 0003 0000000000000011 movs r3, r0
00000ada 02d2 0000001011010010 lsls  r2, r2, #11
00000adc 2001 0010000000000001 movs r0, #1  ; 0x01
00000ade 4291 0100001010010001 cmp  r1, r2
00000ae0 d907 1101100100000111 bls.n af2 ; PC + 18

00000ae2 22eb 0010001011101011 movs r2, #235  ; 0xeb
00000ae4 0612 0000011000010010 lsls  r2, r2, #24
00000ae6 189b 0001100010011011 adds r3, r3, r2
00000ae8 2280 0010001010000000 movs r2, #128  ; 0x80
00000aea 2000 0010000000000000 movs r0, #0  ; 0x00
00000aec 01d2 0000000111010010 lsls  r2, r2, #7
00000aee 429a 0100001010011010 cmp  r2, r3
00000af0 4140 0100000101000000 adc  r0, r0
00000af2 4770 0100011101110000 bx lr

00000af4 b530 1011010100110000 push {r4, r5, lr}
00000af6 1d85 0001110110000101 adds r5, r0, #6   ;0x6
00000af8 0f0c 0000111100001100 lsrs  r4, r1, #28
00000afa b2e2 1011001011100010 uxtb
00000afc 0013 0000000000010011 movs r3, r2
00000afe 3337 0011001100110111 adds r3, #55  ; 0x37
00000b00 2c09 0010110000001001 cmp r4, #9  ; 0x09
00000b02 d800 1101100000000000 bhi.n b06 ; PC + 4

00000b04 3b07 0011101100000111 subs r3, #7  ; 0x07
00000b06 7003 0111000000000011 ldrb r3, [r0, #0]
00000b08 3001 0011000000000001 adds r0, #1  ; 0x01
00000b0a 0109 0000000100001001 lsls  r1, r1, #4
00000b0c 42a8 0100001010101000 cmp  r0, r5
00000b0e d1f3 1101000111110011 bne.n af8 ; PC + -22

00000b10 bd30 1011110100110000 pop {r4, r5, pc}
00000b12 be00 1011111000000000 bkpt 0x0000

00000b14 2200 0010001000000000 movs r2, #0  ; 0x00
00000b16 b510 1011010100010000 push {r4, lr}
00000b18 4b05 0100101100000101 ldr  r3, [pc, #20] ; 0x0014
00000b1a 4806 0100100000000110 ldr  r0, [pc, #24] ; 0x0018
00000b1c 725a 0111001001011010 strb r2, [r3, #9]
00000b1e 7a1b 0111101000011011 strb r3, [r3, #8]
00000b20 2b7f 0010101101111111 cmp r3, #127  ; 0x7f
00000b22 d800 1101100000000000 bhi.n b26 ; PC + 4

00000b24 4804 0100100000000100 ldr  r0, [pc, #16] ; 0x0010
00000b26 4a05 0100101000000101 ldr  r2, [pc, #20] ; 0x0014
00000b28 4905 0100100100000101 ldr  r1, [pc, #20] ; 0x0014
00000b2a f7ff 1111011111111111 (32-bit)
00000b2c fdf5 1111110111110101 bl   718

00000b2e bd10 1011110100010000 pop {r4, pc}
00000b30 0ab8 0000101010111000 lsrs  r0, r7, #10
00000b32 5010 0101000000010000 str r0, [r2, r0]
00000b34 0e58 0000111001011000 lsrs  r0, r3, #25
00000b36 5010 0101000000010000 str r0, [r2, r0]
00000b38 0e24 0000111000100100 lsrs  r4, r4, #24
00000b3a 5010 0101000000010000 str r0, [r2, r0]
00000b3c 0b5d 0000101101011101 lsrs  r5, r3, #13
00000b3e 0000 0000000000000000 nop     ; movs r0, r0

00000b40 08b0 0000100010110000 lsrs  r0, r6, #2
00000b42 5010 0101000000010000 str r0, [r2, r0]
00000b44 4b04 0100101100000100 ldr  r3, [pc, #16] ; 0x0010
00000b46 6a02 0110101000000010 ldr  r2, [r0, #32] ; 0x20
00000b48 6cdb 0110110011011011 ldr  r3, [r3, #76] ; 0x4c
00000b4a b510 1011010100010000 push {r4, lr}
00000b4c 429a 0100001010011010 cmp  r2, r3
00000b4e d101 1101000100000001 bne.n b54 ; PC + 6

00000b50 f7ff 1111011111111111 (32-bit)
00000b52 ffe0 1111111111100000 bl   b14

00000b54 bd10 1011110100010000 pop {r4, pc}
00000b56 46c0 0100011011000000 nop  ; (mov  r8, r8)

00000b58 0ac8 0000101011001000 lsrs  r0, r1, #11
00000b5a 5010 0101000000010000 str r0, [r2, r0]
00000b5c b510 1011010100010000 push {r4, lr}
00000b5e 4804 0100100000000100 ldr  r0, [pc, #16] ; 0x0010
00000b60 1dc3 0001110111000011 adds r3, r0, #7   ;0x7
00000b62 7fdb 0111111111011011 strb r3, [r3, #31]
00000b64 2b00 0010101100000000 cmp r3, #0  ; 0x00
00000b66 d101 1101000100000001 bne.n b6c ; PC + 6

00000b68 f7ff 1111011111111111 (32-bit)
00000b6a fdc2 1111110111000010 bl   6f0

00000b6c bd10 1011110100010000 pop {r4, pc}
00000b6e 46c0 0100011011000000 nop  ; (mov  r8, r8)

00000b70 0e58 0000111001011000 lsrs  r0, r3, #25
00000b72 5010 0101000000010000 str r0, [r2, r0]
00000b74 0003 0000000000000011 movs r3, r0
00000b76 4804 0100100000000100 ldr  r0, [pc, #16] ; 0x0010
00000b78 2b03 0010101100000011 cmp r3, #3  ; 0x03
00000b7a d803 1101100000000011 bhi.n b84 ; PC + 10

00000b7c 4a03 0100101000000011 ldr  r2, [pc, #12] ; 0x000c
00000b7e 3b01 0011101100000001 subs r3, #1  ; 0x01
00000b80 009b 0000000010011011 lsls  r3, r3, #2
00000b82 5898 0101100010011000 ldr r0, [r3, r2]
00000b84 4770 0100011101110000 bx lr

00000b86 46c0 0100011011000000 nop  ; (mov  r8, r8)

00000b88 3db7 0011110110110111 subs r5, #183  ; 0xb7
00000b8a 0000 0000000000000000 nop     ; movs r0, r0

00000b8c 3ee8 0011111011101000 subs r6, #232  ; 0xe8
00000b8e 0000 0000000000000000 nop     ; movs r0, r0

00000b90 4b02 0100101100000010 ldr  r3, [pc, #8] ; 0x0008
00000b92 0200 0000001000000000 lsls  r0, r0, #8
00000b94 6018 0110000000011000 str  r0, [r3, #0] ; 0x0
00000b96 681b 0110100000011011 ldr  r3, [r3, #0] ; 0x0
00000b98 4770 0100011101110000 bx lr

00000b9a 46c0 0100011011000000 nop  ; (mov  r8, r8)

00000b9c 800c 1000000000001100 strh r4, [r1, #0]
00000b9e 4001 0100000000000001 ands  r1, r0
00000ba0 b570 1011010101110000 push {r4, r5, r6, lr}
00000ba2 0004 0000000000000100 movs r4, r0
00000ba4 2002 0010000000000010 movs r0, #2  ; 0x02
00000ba6 000d 0000000000001101 movs r5, r1
00000ba8 f7ff 1111011111111111 (32-bit)
00000baa fff2 1111111111110010 bl   b90

00000bac 22c0 0010001011000000 movs r2, #192  ; 0xc0
00000bae 2304 0010001100000100 movs r3, #4  ; 0x04
00000bb0 0621 0000011000100001 lsls  r1, r4, #24
00000bb2 4329 0100001100101001 orrs  r1, r5
00000bb4 0552 0000010101010010 lsls  r2, r2, #21
00000bb6 0e08 0000111000001000 lsrs  r0, r1, #24
00000bb8 3b01 0011101100000001 subs r3, #1  ; 0x01
00000bba 6610 0110011000010000 str  r0, [r2, #96] ; 0x60
00000bbc 0209 0000001000001001 lsls  r1, r1, #8
00000bbe 2b00 0010101100000000 cmp r3, #0  ; 0x00
00000bc0 d1f9 1101000111111001 bne.n bb6 ; PC + -10

00000bc2 bd70 1011110101110000 pop {r4, r5, r6, pc}
00000bc4 4b03 0100101100000011 ldr  r3, [pc, #12] ; 0x000c
00000bc6 4a04 0100101000000100 ldr  r2, [pc, #16] ; 0x0010
00000bc8 6018 0110000000011000 str  r0, [r3, #0] ; 0x0
00000bca 0001 0000000000000001 movs r1, r0
00000bcc 6893 0110100010010011 ldr  r3, [r2, #8] ; 0x8
00000bce 4399 0100001110011001 bics  r1, r3

00000bd0 d1fb 1101000111111011 bne.n bca ; PC + -6

00000bd2 4770 0100011101110000 bx lr

00000bd4 f000 1111000000000000 (32-bit)
00000bd6 4000 0100000000000000 To be implemented

00000bd8 c000 1100000000000000 stmia r0!, {}
00000bda 4000 0100000000000000 ands  r0, r0
00000bdc b5f7 1011010111110111 push {r0, r1, r2, r4, r5, r6, r7, lr}
00000bde 3029 0011000000101001 adds r0, #41  ; 0x29
00000be0 7803 0111100000000011 ldrb r3, [r0, #0]
00000be2 4c7a 0100110001111010 ldr  r4, [pc, #488] ; 0x01e8
00000be4 2b00 0010101100000000 cmp r3, #0  ; 0x00
00000be6 d00a 1101000000001010 beq.n bfe ; PC + 24

00000be8 2301 0010001100000001 movs r3, #1  ; 0x01
00000bea 6063 0110000001100011 str  r3, [r4, #4] ; 0x4
00000bec f3ef 1111001111101111 (32-bit)
00000bee 8510 1000010100010000 To be implemented

00000bf0 b672 1011011001110010 cps
00000bf2 0020 0000000000100000 movs r0, r4
00000bf4 68a3 0110100010100011 ldr  r3, [r4, #8] ; 0x8
00000bf6 4798 0100011110011000 blx  r3

00000bf8 f385 1111001110000101 (32-bit)
00000bfa 8810 1000100000010000 msr ASPR, r5

00000bfc bdf7 1011110111110111 pop {r0, r1, r2, r4, r5, r6, r7, pc}
00000bfe 4b74 0100101101110100 ldr  r3, [pc, #464] ; 0x01d0
00000c00 2007 0010000000000111 movs r0, #7  ; 0x07
00000c02 781b 0111100000011011 ldrb r3, [r3, #0]
00000c04 2b00 0010101100000000 cmp r3, #0  ; 0x00
00000c06 d109 1101000100001001 bne.n c1c ; PC + 22

00000c08 1d63 0001110101100011 adds r3, r4, #5   ;0x5
00000c0a 7fde 0111111111011110 strb r6, [r3, #31]
00000c0c 7fdb 0111111111011011 strb r3, [r3, #31]
00000c0e b25b 1011001001011011 sxtb
00000c10 2b00 0010101100000000 cmp r3, #0  ; 0x00
00000c12 da25 1101101000100101 bge.n c60 ; PC + 78

00000c14 68e5 0110100011100101 ldr  r5, [r4, #12] ; 0xc
00000c16 07eb 0000011111101011 lsls  r3, r5, #31
00000c18 d502 1101010100000010 bpl.n c20 ; PC + 8

00000c1a 2005 0010000000000101 movs r0, #5  ; 0x05
00000c1c 6060 0110000001100000 str  r0, [r4, #4] ; 0x4
00000c1e e7e5 1110011111100101 b.n  bec

00000c20 0028 0000000000101000 movs r0, r5
00000c22 f7ff 1111011111111111 (32-bit)
00000c24 ff55 1111111101010101 bl   ad0

00000c26 2800 0010100000000000 cmp r0, #0  ; 0x00
00000c28 d101 1101000100000001 bne.n c2e ; PC + 6

00000c2a 2004 0010000000000100 movs r0, #4  ; 0x04
00000c2c e7f6 1110011111110110 b.n  c1c

00000c2e 23eb 0010001111101011 movs r3, #235  ; 0xeb
00000c30 2780 0010011110000000 movs r7, #128  ; 0x80
00000c32 061b 0000011000011011 lsls  r3, r3, #24
00000c34 18eb 0001100011101011 adds r3, r5, r3
00000c36 01ff 0000000111111111 lsls  r7, r7, #7
00000c38 42bb 0100001010111011 cmp  r3, r7
00000c3a d9f6 1101100111110110 bls.n c2a ; PC + -16

00000c3c 0028 0000000000101000 movs r0, r5
00000c3e 301c 0011000000011100 adds r0, #28  ; 0x1c
00000c40 f7ff 1111011111111111 (32-bit)
00000c42 ff46 1111111101000110 bl   ad0

00000c44 2800 0010100000000000 cmp r0, #0  ; 0x00
00000c46 d0f0 1101000011110000 beq.n c2a ; PC + -28

00000c48 4b62 0100101101100010 ldr  r3, [pc, #392] ; 0x0188
00000c4a 18eb 0001100011101011 adds r3, r5, r3
00000c4c 42bb 0100001010111011 cmp  r3, r7
00000c4e d9ec 1101100111101100 bls.n c2a ; PC + -36

00000c50 221c 0010001000011100 movs r2, #28  ; 0x1c
00000c52 0028 0000000000101000 movs r0, r5
00000c54 4960 0100100101100000 ldr  r1, [pc, #384] ; 0x0180
00000c56 f001 1111000000000001 (32-bit)
00000c58 fcf3 1111110011110011 bl   2640

00000c5a 4b60 0100101101100000 ldr  r3, [pc, #384] ; 0x0180
00000c5c 68e2 0110100011100010 ldr  r2, [r4, #12] ; 0xc
00000c5e 601a 0110000000011010 str  r2, [r3, #0] ; 0x0
00000c60 06f3 0000011011110011 lsls  r3, r6, #27
00000c62 d50e 1101010100001110 bpl.n c82 ; PC + 32

00000c64 1da3 0001110110100011 adds r3, r4, #6   ;0x6
00000c66 7fd9 0111111111011001 strb r1, [r3, #31]
00000c68 000a 0000000000001010 movs r2, r1
00000c6a 1e53 0001111001010011 subs  r3, r2, #1   ;0x1
00000c6c 419a 0100000110011010 sbc  r2, r3
00000c6e 4b5c 0100101101011100 ldr  r3, [pc, #368] ; 0x0170
00000c70 b2d2 1011001011010010 uxtb
00000c72 3329 0011001100101001 adds r3, #41  ; 0x29
00000c74 701a 0111000000011010 ldrb r2, [r3, #0]
00000c76 2902 0010100100000010 cmp r1, #2  ; 0x02
00000c78 d103 1101000100000011 bne.n c82 ; PC + 10

00000c7a 2201 0010001000000001 movs r2, #1  ; 0x01
00000c7c 4b59 0100101101011001 ldr  r3, [pc, #356] ; 0x0164
00000c7e 3307 0011001100000111 adds r3, #7  ; 0x07
00000c80 77da 0111011111011010 strb r2, [r3, #31]
00000c82 07f3 0000011111110011 lsls  r3, r6, #31
00000c84 d418 1101010000011000 bmi.n cb8 ; PC + 52

00000c86 0673 0000011001110011 lsls  r3, r6, #25
00000c88 d41d 1101010000011101 bmi.n cc6 ; PC + 62

00000c8a 230a 0010001100001010 movs r3, #10  ; 0x0a
00000c8c 421e 0100001000011110 tst  r6, r3
00000c8e d00c 1101000000001100 beq.n caa ; PC + 28

00000c90 1de3 0001110111100011 adds r3, r4, #7   ;0x7
00000c92 7fda 0111111111011010 strb r2, [r3, #31]
00000c94 0023 0000000000100011 movs r3, r4
00000c96 3308 0011001100001000 adds r3, #8  ; 0x08
00000c98 7fd9 0111111111011001 strb r1, [r3, #31]
00000c9a 4b53 0100101101010011 ldr  r3, [pc, #332] ; 0x014c
00000c9c 2900 0010100100000000 cmp r1, #0  ; 0x00
00000c9e d003 1101000000000011 beq.n ca8 ; PC + 10

00000ca0 7819 0111100000011001 ldrb r1, [r3, #0]
00000ca2 2006 0010000000000110 movs r0, #6  ; 0x06
00000ca4 4291 0100001010010001 cmp  r1, r2
00000ca6 d1b9 1101000110111001 bne.n d1c ; PC + 118

00000ca8 701a 0111000000011010 ldrb r2, [r3, #0]
00000caa 07b3 0000011110110011 lsls  r3, r6, #30
00000cac d410 1101010000010000 bmi.n cd0 ; PC + 36

00000cae 230c 0010001100001100 movs r3, #12  ; 0x0c
00000cb0 421e 0100001000011110 tst  r6, r3
00000cb2 d125 1101000100100101 bne.n d00 ; PC + 78

00000cb4 2000 0010000000000000 movs r0, #0  ; 0x00
00000cb6 e7b1 1110011110110001 b.n  c1c

00000cb8 4b48 0100101101001000 ldr  r3, [pc, #288] ; 0x0120
00000cba 681b 0110100000011011 ldr  r3, [r3, #0] ; 0x0
00000cbc 689b 0110100010011011 ldr  r3, [r3, #8] ; 0x8
00000cbe 4798 0100011110011000 blx  r3

00000cc0 2800 0010100000000000 cmp r0, #0  ; 0x00
00000cc2 d0e0 1101000011100000 beq.n c86 ; PC + -60

00000cc4 e7aa 1110011110101010 b.n  c1c

00000cc6 2301 0010001100000001 movs r3, #1  ; 0x01
00000cc8 68e2 0110100011100010 ldr  r2, [r4, #12] ; 0xc
00000cca 4313 0100001100010011 orrs  r3, r2
00000ccc 4798 0100011110011000 blx  r3

00000cce e7dc 1110011111011100 b.n  c8a

00000cd0 6920 0110100100100000 ldr  r0, [r4, #16] ; 0x10
00000cd2 0503 0000010100000011 lsls  r3, r0, #20
00000cd4 d1a1 1101000110100001 bne.n d1a ; PC + 70

00000cd6 6961 0110100101100001 ldr  r1, [r4, #20] ; 0x14
00000cd8 050b 0000010100001011 lsls  r3, r1, #20
00000cda d19e 1101000110011110 bne.n d1a ; PC + 64

00000cdc 25f0 0010010111110000 movs r5, #240  ; 0xf0
00000cde 2280 0010001010000000 movs r2, #128  ; 0x80
00000ce0 062d 0000011000101101 lsls  r5, r5, #24
00000ce2 1943 0001100101000011 adds r3, r0, r5
00000ce4 0552 0000010101010010 lsls  r2, r2, #21
00000ce6 4293 0100001010010011 cmp  r3, r2
00000ce8 d89f 1101100010011111 bhi.n d2a ; PC + 66

00000cea 1843 0001100001000011 adds r3, r0, r1
00000cec 195b 0001100101011011 adds r3, r3, r5
00000cee 4293 0100001010010011 cmp  r3, r2
00000cf0 d89b 1101100010011011 bhi.n d2a ; PC + 58

00000cf2 4b3a 0100101100111010 ldr  r3, [pc, #232] ; 0x00e8
00000cf4 681b 0110100000011011 ldr  r3, [r3, #0] ; 0x0
00000cf6 691b 0110100100011011 ldr  r3, [r3, #16] ; 0x10
00000cf8 4798 0100011110011000 blx  r3

00000cfa 2800 0010100000000000 cmp r0, #0  ; 0x00
00000cfc d0d7 1101000011010111 beq.n cae ; PC + -78

00000cfe e78d 1110011110001101 b.n  c1c

00000d00 68e5 0110100011100101 ldr  r5, [r4, #12] ; 0xc
00000d02 0028 0000000000101000 movs r0, r5
00000d04 f7ff 1111011111111111 (32-bit)
00000d06 fee4 1111111011100100 bl   ad0

00000d08 2800 0010100000000000 cmp r0, #0  ; 0x00
00000d0a d005 1101000000000101 beq.n d18 ; PC + 14

00000d0c 69e3 0110100111100011 ldr  r3, [r4, #28] ; 0x1c
00000d0e 18e8 0001100011101000 adds r0, r5, r3
00000d10 f7ff 1111011111111111 (32-bit)
00000d12 fede 1111111011011110 bl   ad0

00000d14 1e07 0001111000000111 subs  r7, r0, #0   ;0x0
00000d16 d11e 1101000100011110 bne.n d56 ; PC + 64

00000d18 0733 0000011100110011 lsls  r3, r6, #28
00000d1a d40a 1101010000001010 bmi.n d32 ; PC + 24

00000d1c 2280 0010001010000000 movs r2, #128  ; 0x80
00000d1e 0192 0000000110010010 lsls  r2, r2, #6
00000d20 4295 0100001010010101 cmp  r5, r2
00000d22 d206 1101001000000110 bcs.n d32 ; PC + 16

00000d24 69e3 0110100111100011 ldr  r3, [r4, #28] ; 0x1c
00000d26 18eb 0001100011101011 adds r3, r5, r3
00000d28 4293 0100001010010011 cmp  r3, r2
00000d2a d300 1101001100000000 bcc.n d2e ; PC + 4

00000d2c e77d 1110011101111101 b.n  c2a

00000d2e 2701 0010011100000001 movs r7, #1  ; 0x01
00000d30 e011 1110000000010001 b.n  d56

00000d32 21f0 0010000111110000 movs r1, #240  ; 0xf0
00000d34 2280 0010001010000000 movs r2, #128  ; 0x80
00000d36 0609 0000011000001001 lsls  r1, r1, #24
00000d38 186b 0001100001101011 adds r3, r5, r1
00000d3a 0552 0000010101010010 lsls  r2, r2, #21
00000d3c 4293 0100001010010011 cmp  r3, r2
00000d3e d900 1101100100000000 bls.n d42 ; PC + 4

00000d40 e773 1110011101110011 b.n  c2a

00000d42 69e3 0110100111100011 ldr  r3, [r4, #28] ; 0x1c
00000d44 18eb 0001100011101011 adds r3, r5, r3
00000d46 185b 0001100001011011 adds r3, r3, r1
00000d48 4293 0100001010010011 cmp  r3, r2
00000d4a d900 1101100100000000 bls.n d4e ; PC + 4

00000d4c e76d 1110011101101101 b.n  c2a

00000d4e b2ef 1011001011101111 uxtb
00000d50 2f00 0010111100000000 cmp r7, #0  ; 0x00
00000d52 d000 1101000000000000 beq.n d56 ; PC + 4

00000d54 e761 1110011101100001 b.n  c1a

00000d56 0733 0000011100110011 lsls  r3, r6, #28
00000d58 d518 1101010100011000 bpl.n d8c ; PC + 52

00000d5a 4b20 0100101100100000 ldr  r3, [pc, #128] ; 0x0080
00000d5c 69a1 0110100110100001 ldr  r1, [r4, #24] ; 0x18
00000d5e 469c 0100011010011100 mov  ip, r3
00000d60 681b 0110100000011011 ldr  r3, [r3, #0] ; 0x0
00000d62 2f00 0010111100000000 cmp r7, #0  ; 0x00
00000d64 d023 1101000000100011 beq.n dae ; PC + 74

00000d66 69e2 0110100111100010 ldr  r2, [r4, #28] ; 0x1c
00000d68 9501 1001010100000001 str r5, [sp, #4]
00000d6a 42ab 0100001010101011 cmp  r3, r5
00000d6c d900 1101100100000000 bls.n d70 ; PC + 4

00000d6e 9301 1001001100000001 str r1, [sp, #12]
00000d70 331c 0011001100011100 adds r3, #28  ; 0x1c
00000d72 18a8 0001100010101000 adds r0, r5, r2
00000d74 4283 0100001010000011 cmp  r3, r0
00000d76 d200 1101001000000000 bcs.n d7a ; PC + 4

00000d78 0018 0000000000011000 movs r0, r3
00000d7a 9b01 1001101100000001 ldr r3, [sp, #4]
00000d7c 4283 0100001010000011 cmp  r3, r0
00000d7e d202 1101001000000010 bcs.n d86 ; PC + 8

00000d80 4660 0100011001100000 mov  r0, ip
00000d82 4b15 0100101100010101 ldr  r3, [pc, #84] ; 0x0054
00000d84 6003 0110000000000011 str  r3, [r0, #0] ; 0x0
00000d86 0028 0000000000101000 movs r0, r5
00000d88 f001 1111000000000001 (32-bit)
00000d8a fc5a 1111110001011010 bl   2640

00000d8c 0773 0000011101110011 lsls  r3, r6, #29
00000d8e d507 1101010100000111 bpl.n da0 ; PC + 18

00000d90 68e3 0110100011100011 ldr  r3, [r4, #12] ; 0xc
00000d92 69a0 0110100110100000 ldr  r0, [r4, #24] ; 0x18
00000d94 2f00 0010111100000000 cmp r7, #0  ; 0x00
00000d96 d010 1101000000010000 beq.n dba ; PC + 36

00000d98 0019 0000000000011001 movs r1, r3
00000d9a 69e2 0110100111100010 ldr  r2, [r4, #28] ; 0x1c
00000d9c f001 1111000000000001 (32-bit)
00000d9e fc50 1111110001010000 bl   2640

00000da0 06b3 0000011010110011 lsls  r3, r6, #26
00000da2 d587 1101010110000111 bpl.n db4 ; PC + 18

00000da4 4b0d 0100101100001101 ldr  r3, [pc, #52] ; 0x0034
00000da6 681b 0110100000011011 ldr  r3, [r3, #0] ; 0x0
00000da8 685b 0110100001011011 ldr  r3, [r3, #4] ; 0x4
00000daa 4798 0100011110011000 blx  r3

00000dac e736 1110011100110110 b.n  c1c

00000dae 0028 0000000000101000 movs r0, r5
00000db0 695b 0110100101011011 ldr  r3, [r3, #20] ; 0x14
00000db2 4798 0100011110011000 blx  r3

00000db4 2800 0010100000000000 cmp r0, #0  ; 0x00
00000db6 d0e9 1101000011101001 beq.n d8c ; PC + -42

00000db8 e730 1110011100110000 b.n  c1c

00000dba 4a08 0100101000001000 ldr  r2, [pc, #32] ; 0x0020
00000dbc 0001 0000000000000001 movs r1, r0
00000dbe 6812 0110100000010010 ldr  r2, [r2, #0] ; 0x0
00000dc0 0018 0000000000011000 movs r0, r3
00000dc2 6992 0110100110010010 ldr  r2, [r2, #24] ; 0x18
00000dc4 4790 0100011110010000 blx  r2

00000dc6 2800 0010100000000000 cmp r0, #0  ; 0x00
00000dc8 d0ea 1101000011101010 beq.n da0 ; PC + -40

00000dca e727 1110011100100111 b.n  c1c

00000dcc .word 50100d8c
00000dd0 .word 50100eb4
00000dd4 .word eb00001c
00000dd8 .word 00003ecc
00000ddc .word 50100dbc
00000de0 .word 50100fc0
00000de4 .word 50100a7c
00000de8 .word 50100a1c

00000dec b5f8 1011010111111000 push {r3, r4, r5, r6, r7, lr}
00000dee 6a46 0110101001000110 ldr  r6, [r0, #36] ; 0x24
00000df0 0004 0000000000000100 movs r4, r0
00000df2 0033 0000000000110011 movs r3, r6
00000df4 3329 0011001100101001 adds r3, #41  ; 0x29
00000df6 781b 0111100000011011 ldrb r3, [r3, #0]
00000df8 0030 0000000000110000 movs r0, r6
00000dfa 2b00 0010101100000000 cmp r3, #0  ; 0x00
00000dfc d023 1101000000100011 beq.n e46 ; PC + 74

00000dfe f7ff 1111011111111111 (32-bit)
00000e00 fbcd 1111101111001101 bl   59c

00000e02 6963 0110100101100011 ldr  r3, [r4, #20] ; 0x14
00000e04 69e2 0110100111100010 ldr  r2, [r4, #28] ; 0x1c
00000e06 001f 0000000000011111 movs r7, r3
00000e08 0005 0000000000000101 movs r5, r0
00000e0a 69a0 0110100110100000 ldr  r0, [r4, #24] ; 0x18
00000e0c 1e51 0001111001010001 subs  r1, r2, #1   ;0x1
00000e0e 3740 0011011101000000 adds r7, #64  ; 0x40
00000e10 2240 0010001001000000 movs r2, #64  ; 0x40
00000e12 4019 0100000000011001 ands  r1, r3
00000e14 4287 0100001010000111 cmp  r7, r0
00000e16 d900 1101100100000000 bls.n e1a ; PC + 4

00000e18 1ac2 0001101011000010 sub r2, r0, r3
00000e1a 712a 0111000100101010 ldrb r2, [r5, #4]
00000e1c 6a23 0110101000100011 ldr  r3, [r4, #32] ; 0x20
00000e1e 6828 0110100000101000 ldr  r0, [r5, #0] ; 0x0
00000e20 1859 0001100001011001 adds r1, r3, r1
00000e22 f001 1111000000000001 (32-bit)
00000e24 fc0d 1111110000001101 bl   2640

00000e26 792b 0111100100101011 ldrb r3, [r5, #4]
00000e28 6962 0110100101100010 ldr  r2, [r4, #20] ; 0x14
00000e2a 0020 0000000000100000 movs r0, r4
00000e2c 18d3 0001100011010011 adds r3, r2, r3
00000e2e 6163 0110000101100011 str  r3, [r4, #20] ; 0x14
00000e30 6aa3 0110101010100011 ldr  r3, [r4, #40] ; 0x28
00000e32 681b 0110100000011011 ldr  r3, [r3, #0] ; 0x0
00000e34 4798 0100011110011000 blx  r3

00000e36 4b06 0100101100000110 ldr  r3, [pc, #24] ; 0x0018
00000e38 0030 0000000000110000 movs r0, r6
00000e3a 681a 0110100000011010 ldr  r2, [r3, #0] ; 0x0
00000e3c 4b05 0100101100000101 ldr  r3, [pc, #20] ; 0x0014
00000e3e 601a 0110000000011010 str  r2, [r3, #0] ; 0x0
00000e40 f7ff 1111011111111111 (32-bit)
00000e42 fd2e 1111110100101110 bl   8a0

00000e44 bdf8 1011110111111000 pop {r3, r4, r5, r6, r7, pc}
00000e46 f7ff 1111011111111111 (32-bit)
00000e48 fba9 1111101110101001 bl   59c

00000e4a 0005 0000000000000101 movs r5, r0
00000e4c e7eb 1110011111101011 b.n  e26

00000e4e 46c0 0100011011000000 nop  ; (mov  r8, r8)

00000e50 .word 50100f64
00000e54 .word d0000018

00000e58 b570 1011010101110000 push {r4, r5, r6, lr}
00000e5a 4c0c 0100110000001100 ldr  r4, [pc, #48] ; 0x0030
00000e5c 6a03 0110101000000011 ldr  r3, [r0, #32] ; 0x20
00000e5e 6ce2 0110110011100010 ldr  r2, [r4, #76] ; 0x4c
00000e60 0005 0000000000000101 movs r5, r0
00000e62 4293 0100001010010011 cmp  r3, r2
00000e64 d111 1101000100010001 bne.n e8a ; PC + 38

00000e66 6843 0110100001000011 ldr  r3, [r0, #4] ; 0x4
00000e68 4e09 0100111000001001 ldr  r6, [pc, #36] ; 0x0024
00000e6a 6073 0110000001110011 str  r3, [r6, #4] ; 0x4
00000e6c 2b00 0010101100000000 cmp r3, #0  ; 0x00
00000e6e d005 1101000000000101 beq.n e7c ; PC + 14

00000e70 2102 0010000100000010 movs r1, #2  ; 0x02
00000e72 6a60 0110101001100000 ldr  r0, [r4, #36] ; 0x24
00000e74 f7ff 1111011111111111 (32-bit)
00000e76 fcb2 1111110010110010 bl   7dc

00000e78 2300 0010001100000000 movs r3, #0  ; 0x00
00000e7a 7273 0111001001110011 strb r3, [r6, #9]
00000e7c 69eb 0110100111101011 ldr  r3, [r5, #28] ; 0x1c
00000e7e 6ba2 0110101110100010 ldr  r2, [r4, #56] ; 0x38
00000e80 0020 0000000000100000 movs r0, r4
00000e82 18d3 0001100011010011 adds r3, r2, r3
00000e84 63a3 0110001110100011 str  r3, [r4, #56] ; 0x38 imm5
00000e86 f7ff 1111011111111111 (32-bit)
00000e88 ffb1 1111111110110001 bl   dec

00000e8a bd70 1011110101110000 pop {r4, r5, r6, pc}
00000e8c .word 50100ac8
00000e90 .word 50100ab8

00000e94 b570 1011010101110000 push {r4, r5, r6, lr}
00000e96 0004 0000000000000100 movs r4, r0
00000e98 2601 0010011000000001 movs r6, #1  ; 0x01
00000e9a 4d0a 0100110100001010 ldr  r5, [pc, #40] ; 0x0028
00000e9c 7568 0111010101101000 ldrb r0, [r5, #21]
00000e9e 4b0a 0100101100001010 ldr  r3, [pc, #40] ; 0x0028
00000ea0 00b2 0000000010110010 lsls  r2, r6, #2
00000ea2 58d0 0101100011010000 ldr r0, [r2, r3]
00000ea4 2800 0010100000000000 cmp r0, #0  ; 0x00
00000ea6 d002 1101000000000010 beq.n eae ; PC + 8

00000ea8 2101 0010000100000001 movs r1, #1  ; 0x01
00000eaa f7ff 1111011111111111 (32-bit)
00000eac fd7f 1111110101111111 bl   9ac

00000eae 3601 0011011000000001 adds r6, #1  ; 0x01
00000eb0 2e05 0010111000000101 cmp r6, #5  ; 0x05
00000eb2 d1f4 1101000111110100 bne.n e9e ; PC + -20

00000eb4 1e60 0001111001100000 subs  r0, r4, #1   ;0x1
00000eb6 4184 0100000110000100 sbc  r4, r0
00000eb8 686b 0110100001101011 ldr  r3, [r5, #4] ; 0x4
00000eba 0028 0000000000101000 movs r0, r5
00000ebc b2e1 1011001011100001 uxtb
00000ebe 4798 0100011110011000 blx  r3

00000ec0 bd70 1011110101110000 pop {r4, r5, r6, pc}
00000ec2 46c0 0100011011000000 nop  ; (mov  r8, r8)

00000ec4 .word 501009ec
00000ec8 .word 50100a08

00000ecc b510 1011010100010000 push {r4, lr}
00000ece 2000 0010000000000000 movs r0, #0  ; 0x00
00000ed0 f7ff 1111011111111111 (32-bit)
00000ed2 ffe0 1111111111100000 bl   e94

00000ed4 2300 0010001100000000 movs r3, #0  ; 0x00
00000ed6 4a05 0100101000000101 ldr  r2, [pc, #20] ; 0x0014
00000ed8 7513 0111010100010011 ldrb r3, [r2, #20]
00000eda 4a05 0100101000000101 ldr  r2, [pc, #20] ; 0x0014
00000edc 6013 0110000000010011 str  r3, [r2, #0] ; 0x0
00000ede 2201 0010001000000001 movs r2, #1  ; 0x01
00000ee0 4b04 0100101100000100 ldr  r3, [pc, #16] ; 0x0010
00000ee2 4252 0100001001010010 rsb  r2, r2
00000ee4 659a 0110010110011010 str  r2, [r3, #88] ; 0x58
00000ee6 651a 0110010100011010 str  r2, [r3, #80] ; 0x50
00000ee8 bd10 1011110100010000 pop {r4, pc}
00000eea 46c0 0100011011000000 nop  ; (mov  r8, r8)

00000eec .word 501009ec
00000ef0 .word 50110000
00000ef4 .word 50113000

00000ef8 2220 0010001000100000 movs r2, #32  ; 0x20
00000efa 4b0e 0100101100001110 ldr  r3, [pc, #56] ; 0x0038
00000efc b510 1011010100010000 push {r4, lr}
00000efe 601a 0110000000011010 str  r2, [r3, #0] ; 0x0
00000f00 4b0d 0100101100001101 ldr  r3, [pc, #52] ; 0x0034
00000f02 6818 0110100000011000 ldr  r0, [r3, #0] ; 0x0
00000f04 23d0 0010001111010000 movs r3, #208  ; 0xd0
00000f06 061b 0000011000011011 lsls  r3, r3, #24
00000f08 6158 0110000101011000 str  r0, [r3, #20] ; 0x14
00000f0a 6258 0110001001011000 str  r0, [r3, #36] ; 0x24 imm5
00000f0c f7ff 1111011111111111 (32-bit)
00000f0e fa27 1111101000100111 bl   35e

00000f10 2240 0010001001000000 movs r2, #64  ; 0x40
00000f12 4b0a 0100101100001010 ldr  r3, [pc, #40] ; 0x0028
00000f14 18c3 0001100011000011 adds r3, r0, r3
00000f16 009b 0000000010011011 lsls  r3, r3, #2
00000f18 6819 0110100000011001 ldr  r1, [r3, #0] ; 0x0
00000f1a 430a 0100001100001010 orrs  r2, r1
00000f1c 2180 0010000110000000 movs r1, #128  ; 0x80
00000f1e 601a 0110000000011010 str  r2, [r3, #0] ; 0x0
00000f20 681a 0110100000011010 ldr  r2, [r3, #0] ; 0x0
00000f22 438a 0100001110001010 bics  r2, r1

00000f24 601a 0110000000011010 str  r2, [r3, #0] ; 0x0
00000f26 4b06 0100101100000110 ldr  r3, [pc, #24] ; 0x0018
00000f28 18c0 0001100011000000 adds r0, r0, r3
00000f2a 2305 0010001100000101 movs r3, #5  ; 0x05
00000f2c 00c0 0000000011000000 lsls  r0, r0, #3
00000f2e 6043 0110000001000011 str  r3, [r0, #4] ; 0x4
00000f30 bd10 1011110100010000 pop {r4, pc}
00000f32 46c0 0100011011000000 nop  ; (mov  r8, r8)

00000f34 .word 4000f000
00000f38 .word 50100f64
00000f3c .word 10007001
00000f40 .word 08002800

00000f44 b510 1011010100010000 push {r4, lr}
00000f46 000a 0000000000001010 movs r2, r1
00000f48 2100 0010000100000000 movs r1, #0  ; 0x00
00000f4a f001 1111000000000001 (32-bit)
00000f4c fbc7 1111101111000111 bl   26dc

00000f4e bd10 1011110100010000 pop {r4, pc}
00000f50 4b11 0100101100010001 ldr  r3, [pc, #68] ; 0x0044
00000f52 b570 1011010101110000 push {r4, r5, r6, lr}
00000f54 781a 0111100000011010 ldrb r2, [r3, #0]
00000f56 4c11 0100110000010001 ldr  r4, [pc, #68] ; 0x0044
00000f58 2a00 0010101000000000 cmp r2, #0  ; 0x00
00000f5a d107 1101000100000111 bne.n f6c ; PC + 18

00000f5c 4a10 0100101000010000 ldr  r2, [pc, #64] ; 0x0040
00000f5e 4911 0100100100010001 ldr  r1, [pc, #68] ; 0x0044
00000f60 6322 0110001100100010 str  r2, [r4, #48] ; 0x30 imm5
00000f62 6011 0110000000010001 str  r1, [r2, #0] ; 0x0
00000f64 4a10 0100101000010000 ldr  r2, [pc, #64] ; 0x0040
00000f66 6122 0110000100100010 str  r2, [r4, #16] ; 0x10
00000f68 2201 0010001000000001 movs r2, #1  ; 0x01
00000f6a 701a 0111000000011010 ldrb r2, [r3, #0]
00000f6c 4d0f 0100110100001111 ldr  r5, [pc, #60] ; 0x003c
00000f6e 2128 0010000100101000 movs r1, #40  ; 0x28
00000f70 0028 0000000000101000 movs r0, r5
00000f72 f7ff 1111011111111111 (32-bit)
00000f74 ffe7 1111111111100111 bl   f44

00000f76 2370 0010001101110000 movs r3, #112  ; 0x70
00000f78 736b 0111001101101011 strb r3, [r5, #13]
00000f7a 3b66 0011101101100110 subs r3, #102  ; 0x66
00000f7c 752b 0111010100101011 ldrb r3, [r5, #20]
00000f7e 2500 0010010100000000 movs r5, #0  ; 0x00
00000f80 4b0b 0100101100001011 ldr  r3, [pc, #44] ; 0x002c
00000f82 0029 0000000000101001 movs r1, r5
00000f84 0020 0000000000100000 movs r0, r4
00000f86 611d 0110000100011101 str  r5, [r3, #16] ; 0x10
00000f88 f7ff 1111011111111111 (32-bit)
00000f8a fd10 1111110100010000 bl   9ac

00000f8c 0020 0000000000100000 movs r0, r4
00000f8e 0029 0000000000101001 movs r1, r5
00000f90 302c 0011000000101100 adds r0, #44  ; 0x2c
00000f92 f7ff 1111011111111111 (32-bit)
00000f94 fd0b 1111110100001011 bl   9ac

00000f96 bd70 1011110101110000 pop {r4, r5, r6, pc}
00000f98 .word 50100e20
00000f9c .word 50100dc0
00000fa0 .word 50100a38
00000fa4 .word 00003dda
00000fa8 .word 0000144d
00000fac .word 50100a7c
00000fb0 .word 50100d3c

00000fb4 2260 0010001001100000 movs r2, #96  ; 0x60
00000fb6 780b 0111100000001011 ldrb r3, [r1, #0]
00000fb8 b510 1011010100010000 push {r4, lr}
00000fba 401a 0100000000011010 ands  r2, r3
00000fbc 2400 0010010000000000 movs r4, #0  ; 0x00
00000fbe 2a20 0010101000100000 cmp r2, #32  ; 0x20
00000fc0 d114 1101000100010100 bne.n fec ; PC + 44

00000fc2 b25b 1011001001011011 sxtb
00000fc4 784a 0111100001001010 ldrb r2, [r1, #1]
00000fc6 42a3 0100001010100011 cmp  r3, r4
00000fc8 da12 1101101000010010 bge.n ff0 ; PC + 40

00000fca 2afe 0010101011111110 cmp r2, #254  ; 0xfe
00000fcc d10e 1101000100001110 bne.n fec ; PC + 32

00000fce 884b 1000100001001011 ldrh r3, [r1, #2] ; 0x2
00000fd0 42a3 0100001010100011 cmp  r3, r4
00000fd2 d10b 1101000100001011 bne.n fec ; PC + 26

00000fd4 88cb 1000100011001011 ldrh r3, [r1, #6] ; 0x6
00000fd6 42a3 0100001010100011 cmp  r3, r4
00000fd8 d008 1101000000001000 beq.n fec ; PC + 20

00000fda 4813 0100100000010011 ldr  r0, [pc, #76] ; 0x004c
00000fdc f7ff 1111011111111111 (32-bit)
00000fde fade 1111101011011110 bl   59c

00000fe0 6803 0110100000000011 ldr  r3, [r0, #0] ; 0x0
00000fe2 701c 0111000000011100 ldrb r4, [r3, #0]
00000fe4 3401 0011010000000001 adds r4, #1  ; 0x01
00000fe6 7104 0111000100000100 ldrb r4, [r0, #4]
00000fe8 f7ff 1111011111111111 (32-bit)
00000fea fbc4 1111101111000100 bl   774

00000fec 0020 0000000000100000 movs r0, r4
00000fee bd10 1011110100010000 pop {r4, pc}
00000ff0 2aff 0010101011111111 cmp r2, #255  ; 0xff
00000ff2 d1fb 1101000111111011 bne.n fec ; PC + -6

00000ff4 884b 1000100001001011 ldrh r3, [r1, #2] ; 0x2
00000ff6 2b00 0010101100000000 cmp r3, #0  ; 0x00
00000ff8 d1f8 1101000111111000 bne.n fec ; PC + -12

00000ffa 88ca 1000100011001010 ldrh r2, [r1, #6] ; 0x6
00000ffc 001c 0000000000011100 movs r4, r3
00000ffe 2a00 0010101000000000 cmp r2, #0  ; 0x00
00001000 d1f4 1101000111110100 bne.n fec ; PC + -20

00001002 4b0a 0100101100001010 ldr  r3, [pc, #40] ; 0x0028
00001004 1dda 0001110111011010 adds r2, r3, #7   ;0x7
00001006 7fd1 0111111111010001 strb r1, [r2, #31]
00001008 2903 0010100100000011 cmp r1, #3  ; 0x03
0000100a d101 1101000100000001 bne.n 1010 ; PC + 6

0000100c 3901 0011100100000001 subs r1, #1  ; 0x01
0000100e 77d1 0111011111010001 strb r1, [r2, #31]
00001010 3352 0011001101010010 adds r3, #82  ; 0x52
00001012 781a 0111100000011010 ldrb r2, [r3, #0]
00001014 2a03 0010101000000011 cmp r2, #3  ; 0x03
00001016 d101 1101000100000001 bne.n 101c ; PC + 6

00001018 3a01 0011101000000001 subs r2, #1  ; 0x01
0000101a 701a 0111000000011010 ldrb r2, [r3, #0]
0000101c f7ff 1111011111111111 (32-bit)
0000101e ff98 1111111110011000 bl   f50

00001020 2401 0010010000000001 movs r4, #1  ; 0x01
00001022 f7ff 1111011111111111 (32-bit)
00001024 fb8f 1111101110001111 bl   744

00001026 e7e1 1110011111100001 b.n  fec

00001028 .word 50100f68
0000102c .word 50100dc0

00001030 b5f7 1011010111110111 push {r0, r1, r2, r4, r5, r6, r7, lr}
00001032 000d 0000000000001101 movs r5, r1
00001034 2180 0010000110000000 movs r1, #128  ; 0x80
00001036 0010 0000000000010000 movs r0, r2
00001038 0089 0000000010001001 lsls  r1, r1, #2
0000103a 0014 0000000000010100 movs r4, r2
0000103c f7ff 1111011111111111 (32-bit)
0000103e ff82 1111111110000010 bl   f44

00001040 2d00 0010110100000000 cmp r5, #0  ; 0x00
00001042 d120 1101000100100000 bne.n 1086 ; PC + 68

00001044 0020 0000000000100000 movs r0, r4
00001046 30c3 0011000011000011 adds r0, #195  ; 0xc3
00001048 220b 0010001000001011 movs r2, #11  ; 0x0b
0000104a 494f 0100100101001111 ldr  r1, [pc, #316] ; 0x013c
0000104c 30ff 0011000011111111 adds r0, #255  ; 0xff
0000104e f001 1111000000000001 (32-bit)
00001050 faf7 1111101011110111 bl   2640

00001052 23ff 0010001111111111 movs r3, #255  ; 0xff
00001054 2255 0010001001010101 movs r2, #85  ; 0x55
00001056 005b 0000000001011011 lsls  r3, r3, #1
00001058 54e2 0101010011100010 strb r2, [r4, r3]
0000105a 4b4c 0100101101001100 ldr  r3, [pc, #304] ; 0x0130
0000105c 1892 0001100010010010 adds r2, r2, r2
0000105e 54e2 0101010011100010 strb r2, [r4, r3]
00001060 4b4b 0100101101001011 ldr  r3, [pc, #300] ; 0x012c
00001062 791a 0111100100011010 ldrb r2, [r3, #4]
00001064 2a00 0010101000000000 cmp r2, #0  ; 0x00
00001066 d104 1101000100000100 bne.n 1072 ; PC + 12

00001068 4a4a 0100101001001010 ldr  r2, [pc, #296] ; 0x0128
0000106a 6a92 0110101010010010 ldr  r2, [r2, #40] ; 0x28
0000106c 601a 0110000000011010 str  r2, [r3, #0] ; 0x0
0000106e 2201 0010001000000001 movs r2, #1  ; 0x01
00001070 711a 0111000100011010 ldrb r2, [r3, #4]
00001072 0020 0000000000100000 movs r0, r4
00001074 681b 0110100000011011 ldr  r3, [r3, #0] ; 0x0
00001076 30b9 0011000010111001 adds r0, #185  ; 0xb9
00001078 9301 1001001100000001 str r1, [sp, #12]
0000107a 30ff 0011000011111111 adds r0, #255  ; 0xff
0000107c 2204 0010001000000100 movs r2, #4  ; 0x04
0000107e a901 1010100100000001 add r1, sp, #4 ; #4
00001080 f001 1111000000000001 (32-bit)
00001082 fade 1111101011011110 bl   2640

00001084 e023 1110000000100011 b.n  10ce

00001086 2d01 0010110100000001 cmp r5, #1  ; 0x01
00001088 d111 1101000100010001 bne.n 10ae ; PC + 38

0000108a 4b41 0100101101000001 ldr  r3, [pc, #260] ; 0x0104
0000108c 791a 0111100100011010 ldrb r2, [r3, #4]
0000108e 2a00 0010101000000000 cmp r2, #0  ; 0x00
00001090 d103 1101000100000011 bne.n 109a ; PC + 10

00001092 4a40 0100101001000000 ldr  r2, [pc, #256] ; 0x0100
00001094 6a92 0110101010010010 ldr  r2, [r2, #40] ; 0x28
00001096 711d 0111000100011101 ldrb r5, [r3, #4]
00001098 601a 0110000000011010 str  r2, [r3, #0] ; 0x0
0000109a 681b 0110100000011011 ldr  r3, [r3, #0] ; 0x0
0000109c 2240 0010001001000000 movs r2, #64  ; 0x40
0000109e 0020 0000000000100000 movs r0, r4
000010a0 493d 0100100100111101 ldr  r1, [pc, #244] ; 0x00f4
000010a2 9301 1001001100000001 str r1, [sp, #12]
000010a4 f001 1111000000000001 (32-bit)
000010a6 facc 1111101011001100 bl   2640

000010a8 0020 0000000000100000 movs r0, r4
000010aa 3027 0011000000100111 adds r0, #39  ; 0x27
000010ac e7e6 1110011111100110 b.n  107c

000010ae 2281 0010001010000001 movs r2, #129  ; 0x81
000010b0 1eab 0001111010101011 subs  r3, r5, #2   ;0x2
000010b2 0052 0000000001010010 lsls  r2, r2, #1
000010b4 4293 0100001010010011 cmp  r3, r2
000010b6 d20c 1101001000001100 bcs.n 10d2 ; PC + 28

000010b8 2b80 0010101110000000 cmp r3, #128  ; 0x80
000010ba d900 1101100100000000 bls.n 10be ; PC + 4

000010bc 3b81 0011101110000001 subs r3, #129  ; 0x81
000010be 2b00 0010101100000000 cmp r3, #0  ; 0x00
000010c0 d105 1101000100000101 bne.n 10ce ; PC + 14

000010c2 3b08 0011101100001000 subs r3, #8  ; 0x08
000010c4 8023 1000000000100011 strh r3, [r4, #0]
000010c6 3307 0011001100000111 adds r3, #7  ; 0x07
000010c8 8063 1000000001100011 strh r3, [r4, #2]
000010ca 80a3 1000000010100011 strh r3, [r4, #4]
000010cc 80e3 1000000011100011 strh r3, [r4, #6]
000010ce 2000 0010000000000000 movs r0, #0  ; 0x00
000010d0 bdfe 1011110111111110 pop {r1, r2, r3, r4, r5, r6, r7, pc}
000010d2 1f6b 0001111101101011 subs  r3, r5, #5   ;0x5
000010d4 3bff 0011101111111111 subs r3, #255  ; 0xff
000010d6 2b1f 0010101100011111 cmp r3, #31  ; 0x1f
000010d8 d839 1101100000111001 bhi.n 114e ; PC + 118

000010da 2b00 0010101100000000 cmp r3, #0  ; 0x00
000010dc d1f7 1101000111110111 bne.n 10ce ; PC + -14

000010de 492e 0100100100101110 ldr  r1, [pc, #184] ; 0x00b8
000010e0 220b 0010001000001011 movs r2, #11  ; 0x0b
000010e2 312b 0011000100101011 adds r1, #43  ; 0x2b
000010e4 0020 0000000000100000 movs r0, r4
000010e6 f001 1111000000000001 (32-bit)
000010e8 faab 1111101010101011 bl   2640

000010ea 2328 0010001100101000 movs r3, #40  ; 0x28
000010ec 72e3 0111001011100011 strb r3, [r4, #11]
000010ee 0023 0000000000100011 movs r3, r4
000010f0 2264 0010001001100100 movs r2, #100  ; 0x64
000010f2 0020 0000000000100000 movs r0, r4
000010f4 4e29 0100111000101001 ldr  r6, [pc, #164] ; 0x00a4
000010f6 4d2a 0100110100101010 ldr  r5, [pc, #168] ; 0x00a8
000010f8 332d 0011001100101101 adds r3, #45  ; 0x2d
000010fa 701a 0111000000011010 ldrb r2, [r3, #0]
000010fc 4929 0100100100101001 ldr  r1, [pc, #164] ; 0x00a4
000010fe 3a59 0011101001011001 subs r2, #89  ; 0x59
00001100 85e6 1000010111100110 strh r6, [r4, #46]
00001102 8625 1000011000100101 strh r5, [r4, #48]
00001104 86e6 1000011011100110 strh r6, [r4, #54]
00001106 8725 1000011100100101 strh r5, [r4, #56]
00001108 3020 0011000000100000 adds r0, #32  ; 0x20
0000110a f001 1111000000000001 (32-bit)
0000110c fa99 1111101010011001 bl   2640

0000110e 0023 0000000000100011 movs r3, r4
00001110 2121 0010000100100001 movs r1, #33  ; 0x21
00001112 332b 0011001100101011 adds r3, #43  ; 0x2b
00001114 7019 0111000000011001 ldrb r1, [r3, #0]
00001116 2302 0010001100000010 movs r3, #2  ; 0x02
00001118 8763 1000011101100011 strh r3, [r4, #58]
0000111a 33ef 0011001111101111 adds r3, #239  ; 0xef
0000111c 63e3 0110001111100011 str  r3, [r4, #60] ; 0x3c imm5
0000111e 0027 0000000000100111 movs r7, r4
00001120 0023 0000000000100011 movs r3, r4
00001122 2264 0010001001100100 movs r2, #100  ; 0x64
00001124 334e 0011001101001110 adds r3, #78  ; 0x4e
00001126 3740 0011011101000000 adds r7, #64  ; 0x40
00001128 737a 0111001101111010 strb r2, [r7, #13]
0000112a 491f 0100100100011111 ldr  r1, [pc, #124] ; 0x007c
0000112c 801e 1000000000011110 strh r6, [r3, #0]
0000112e 805d 1000000001011101 strh r5, [r3, #2]
00001130 811e 1000000100011110 strh r6, [r3, #8]
00001132 815d 1000000101011101 strh r5, [r3, #10]
00001134 3a59 0011101001011001 subs r2, #89  ; 0x59
00001136 0038 0000000000111000 movs r0, r7
00001138 f001 1111000000000001 (32-bit)
0000113a fa82 1111101010000010 bl   2640

0000113c 0023 0000000000100011 movs r3, r4
0000113e 2121 0010000100100001 movs r1, #33  ; 0x21
00001140 2203 0010001000000011 movs r2, #3  ; 0x03
00001142 335a 0011001101011010 adds r3, #90  ; 0x5a
00001144 72f9 0111001011111001 strb r1, [r7, #11]
00001146 801a 1000000000011010 strh r2, [r3, #0]
00001148 233e 0010001100111110 movs r3, #62  ; 0x3e
0000114a 65e3 0110010111100011 str  r3, [r4, #92] ; 0x5c
0000114c e7bf 1110011110111111 b.n  10ce

0000114e 3d25 0011110100100101 subs r5, #37  ; 0x25
00001150 3dff 0011110111111111 subs r5, #255  ; 0xff
00001152 076b 0000011101101011 lsls  r3, r5, #29
00001154 d1bb 1101000110111011 bne.n 11ce ; PC + 122

00001156 08ed 0000100011101101 lsrs  r5, r5, #3
00001158 d110 1101000100010000 bne.n 117c ; PC + 36

0000115a 0022 0000000000100010 movs r2, r4
0000115c 219f 0010000110011111 movs r1, #159  ; 0x9f
0000115e 4813 0100100000010011 ldr  r0, [pc, #76] ; 0x004c
00001160 f001 1111000000000001 (32-bit)
00001162 fa4f 1111101001001111 bl   2602

00001164 0020 0000000000100000 movs r0, r4
00001166 4d12 0100110100010010 ldr  r5, [pc, #72] ; 0x0048
00001168 220c 0010001000001100 movs r2, #12  ; 0x0c
0000116a 0029 0000000000101001 movs r1, r5
0000116c 3062 0011000001100010 adds r0, #98  ; 0x62
0000116e f001 1111000000000001 (32-bit)
00001170 fa67 1111101001100111 bl   2640

00001172 0020 0000000000100000 movs r0, r4
00001174 220c 0010001000001100 movs r2, #12  ; 0x0c
00001176 0029 0000000000101001 movs r1, r5
00001178 30c2 0011000011000010 adds r0, #194  ; 0xc2
0000117a e781 1110011110000001 b.n  1080

0000117c 2d01 0010110100000001 cmp r5, #1  ; 0x01
0000117e d1a6 1101000110100110 bne.n 11ce ; PC + 80

00001180 223e 0010001000111110 movs r2, #62  ; 0x3e
00001182 0020 0000000000100000 movs r0, r4
00001184 490b 0100100100001011 ldr  r1, [pc, #44] ; 0x002c
00001186 e77b 1110011101111011 b.n  1080

00001188 .word 00003df8
0000118c .word 000001ff
00001190 .word 50100db4
00001194 .word 40054000
00001198 .word 00003e6c
0000119c .word ffff8299
000011a0 .word 00003925
000011a4 .word 00003dac
000011a8 .word 00003db8
000011ac .word 00003ffa
000011b0 .word 50100eb5
000011b4 .word 00003ef4

000011b8 b5f0 1011010111110000 push {r4, r5, r6, r7, lr}
000011ba 4b85 0100101110000101 ldr  r3, [pc, #532] ; 0x0214
000011bc 0016 0000000000010110 movs r6, r2
000011be 6812 0110100000010010 ldr  r2, [r2, #0] ; 0x0
000011c0 b085 1011000010000101 sub r0, sp, #532
000011c2 9003 1001000000000011 str r0, [sp, #12]
000011c4 429a 0100001010011010 cmp  r2, r3
000011c6 d002 1101000000000010 beq.n 11ce ; PC + 8

000011c8 2000 0010000000000000 movs r0, #0  ; 0x00
000011ca b005 1011000000000101 add r0, sp, #20
000011cc bdf0 1011110111110000 pop {r4, r5, r6, r7, pc}
000011ce 4b81 0100101110000001 ldr  r3, [pc, #516] ; 0x0204
000011d0 6872 0110100001110010 ldr  r2, [r6, #4] ; 0x4
000011d2 429a 0100001010011010 cmp  r2, r3
000011d4 d1f8 1101000111111000 bne.n 11c8 ; PC + -12

000011d6 22fe 0010001011111110 movs r2, #254  ; 0xfe
000011d8 0052 0000000001010010 lsls  r2, r2, #1
000011da 4b7f 0100101101111111 ldr  r3, [pc, #508] ; 0x01fc
000011dc 58b2 0101100010110010 ldr r2, [r6, r2]
000011de 429a 0100001010011010 cmp  r2, r3
000011e0 d1f2 1101000111110010 bne.n 11c8 ; PC + -24

000011e2 68b3 0110100010110011 ldr  r3, [r6, #8] ; 0x8
000011e4 049a 0000010010011010 lsls  r2, r3, #18
000011e6 d5ef 1101010111101111 bpl.n 11c8 ; PC + -30

000011e8 4a7c 0100101001111100 ldr  r2, [pc, #496] ; 0x01f0
000011ea 69f1 0110100111110001 ldr  r1, [r6, #28] ; 0x1c
000011ec 4291 0100001010010001 cmp  r1, r2
000011ee d1eb 1101000111101011 bne.n 11c8 ; PC + -38

000011f0 2201 0010001000000001 movs r2, #1  ; 0x01
000011f2 001d 0000000000011101 movs r5, r3
000011f4 4015 0100000000010101 ands  r5, r2
000011f6 4213 0100001000010011 tst  r3, r2
000011f8 d1e6 1101000111100110 bne.n 11c8 ; PC + -48

000011fa 2380 0010001110000000 movs r3, #128  ; 0x80
000011fc 6932 0110100100110010 ldr  r2, [r6, #16] ; 0x10
000011fe 005b 0000000001011011 lsls  r3, r3, #1
00001200 429a 0100001010011010 cmp  r2, r3
00001202 d1e1 1101000111100001 bne.n 11c8 ; PC + -58

00001204 68f7 0110100011110111 ldr  r7, [r6, #12] ; 0xc
00001206 0038 0000000000111000 movs r0, r7
00001208 f7ff 1111011111111111 (32-bit)
0000120a fc62 1111110001100010 bl   ad0

0000120c 2800 0010100000000000 cmp r0, #0  ; 0x00
0000120e d004 1101000000000100 beq.n 121a ; PC + 12

00001210 0038 0000000000111000 movs r0, r7
00001212 30ff 0011000011111111 adds r0, #255  ; 0xff
00001214 f7ff 1111011111111111 (32-bit)
00001216 fc5c 1111110001011100 bl   ad0

00001218 0005 0000000000000101 movs r5, r0
0000121a 69b3 0110100110110011 ldr  r3, [r6, #24] ; 0x18
0000121c 4c70 0100110001110000 ldr  r4, [pc, #448] ; 0x01c0
0000121e 2b00 0010101100000000 cmp r3, #0  ; 0x00
00001220 d009 1101000000001001 beq.n 1236 ; PC + 22

00001222 22f0 0010001011110000 movs r2, #240  ; 0xf0
00001224 0612 0000011000010010 lsls  r2, r2, #24
00001226 18ba 0001100010111010 adds r2, r7, r2
00001228 9201 1001001000000001 str r1, [sp, #8]
0000122a 2d00 0010110100000000 cmp r5, #0  ; 0x00
0000122c d106 1101000100000110 bne.n 123c ; PC + 16

0000122e 0011 0000000000010001 movs r1, r2
00001230 4a6c 0100101001101100 ldr  r2, [pc, #432] ; 0x01b0
00001232 4291 0100001010010001 cmp  r1, r2
00001234 d907 1101100100000111 bls.n 1246 ; PC + 18

00001236 2000 0010000000000000 movs r0, #0  ; 0x00
00001238 6120 0110000100100000 str  r0, [r4, #16] ; 0x10
0000123a e7c6 1110011111000110 b.n  11ca

0000123c 9a01 1001101000000001 ldr r2, [sp, #4]
0000123e 0011 0000000000010001 movs r1, r2
00001240 4a68 0100101001101000 ldr  r2, [pc, #416] ; 0x01a0
00001242 4291 0100001010010001 cmp  r1, r2
00001244 d802 1101100000000010 bhi.n 124c ; PC + 8

00001246 b2ff 1011001011111111 uxtb
00001248 2f00 0010111100000000 cmp r7, #0  ; 0x00
0000124a d1f4 1101000111110100 bne.n 1236 ; PC + -20

0000124c 4a66 0100101001100110 ldr  r2, [pc, #408] ; 0x0198
0000124e 3229 0011001000101001 adds r2, #41  ; 0x29
00001250 7812 0111100000010010 ldrb r2, [r2, #0]
00001252 2a00 0010101000000000 cmp r2, #0  ; 0x00
00001254 d1ef 1101000111101111 bne.n 1236 ; PC + -30

00001256 3201 0011001000000001 adds r2, #1  ; 0x01
00001258 402a 0100000000101010 ands  r2, r5
0000125a 9202 1001001000000010 str r2, [sp, #8]
0000125c 6922 0110100100100010 ldr  r2, [r4, #16] ; 0x10
0000125e 2708 0010011100001000 movs r7, #8  ; 0x08
00001260 4293 0100001010010011 cmp  r3, r2
00001262 d035 1101000000110101 beq.n 12d0 ; PC + 110

00001264 0020 0000000000100000 movs r0, r4
00001266 2150 0010000101010000 movs r1, #80  ; 0x50
00001268 f7ff 1111011111111111 (32-bit)
0000126a fe6c 1111111001101100 bl   f44

0000126c 0023 0000000000100011 movs r3, r4
0000126e 9a02 1001101000000010 ldr r2, [sp, #8]
00001270 334c 0011001101001100 adds r3, #76  ; 0x4c
00001272 485e 0100100001011110 ldr  r0, [pc, #376] ; 0x0178
00001274 701a 0111000000011010 ldrb r2, [r3, #0]
00001276 2d00 0010110100000000 cmp r5, #0  ; 0x00
00001278 d101 1101000100000001 bne.n 127e ; PC + 6

0000127a 20a8 0010000010101000 movs r0, #168  ; 0xa8
0000127c 0540 0000010101000000 lsls  r0, r0, #21
0000127e 4269 0100001001101001 rsb  r1, r5
00001280 4169 0100000101101001 adc  r1, r5
00001282 23a0 0010001110100000 movs r3, #160  ; 0xa0
00001284 4d5a 0100110101011010 ldr  r5, [pc, #360] ; 0x0168
00001286 4249 0100001001001001 rsb  r1, r1
00001288 00db 0000000011011011 lsls  r3, r3, #3
0000128a 4029 0100000000101001 ands  r1, r5
0000128c 18c9 0001100011001001 adds r1, r1, r3
0000128e 6061 0110000001100001 str  r1, [r4, #4] ; 0x4
00001290 08c9 0000100011001001 lsrs  r1, r1, #3
00001292 6020 0110000000100000 str  r0, [r4, #0] ; 0x0
00001294 f7ff 1111011111111111 (32-bit)
00001296 fe56 1111111001010110 bl   f44

00001298 9b01 1001101100000001 ldr r3, [sp, #4]
0000129a 001a 0000000000011010 movs r2, r3
0000129c 4b51 0100101101010001 ldr  r3, [pc, #324] ; 0x0144
0000129e 429a 0100001010011010 cmp  r2, r3
000012a0 d806 1101100000000110 bhi.n 12b0 ; PC + 16

000012a2 4854 0100100001010100 ldr  r0, [pc, #336] ; 0x0150
000012a4 4b54 0100101101010100 ldr  r3, [pc, #336] ; 0x0150
000012a6 4955 0100100101010101 ldr  r1, [pc, #340] ; 0x0154
000012a8 60a0 0110000010100000 str  r0, [r4, #8] ; 0x8
000012aa 60e3 0110000011100011 str  r3, [r4, #12] ; 0xc
000012ac f7ff 1111011111111111 (32-bit)
000012ae fe4a 1111111001001010 bl   f44

000012b0 69b3 0110100110110011 ldr  r3, [r6, #24] ; 0x18
000012b2 6862 0110100001100010 ldr  r2, [r4, #4] ; 0x4
000012b4 4293 0100001010010011 cmp  r3, r2
000012b6 d900 1101100100000000 bls.n 12ba ; PC + 4

000012b8 e786 1110011110000110 b.n  11c8

000012ba 6123 0110000100100011 str  r3, [r4, #16] ; 0x10
000012bc 2301 0010001100000001 movs r3, #1  ; 0x01
000012be 2700 0010011100000000 movs r7, #0  ; 0x00
000012c0 425b 0100001001011011 rsb  r3, r3
000012c2 9a01 1001101000000001 ldr r2, [sp, #4]
000012c4 61e3 0110000111100011 str  r3, [r4, #28] ; 0x1c
000012c6 4b47 0100101101000111 ldr  r3, [pc, #284] ; 0x011c
000012c8 61a7 0110000110100111 str  r7, [r4, #24] ; 0x18
000012ca 4293 0100001010010011 cmp  r3, r2
000012cc 417f 0100000101111111 adc  r7, r7
000012ce 3708 0011011100001000 adds r7, #8  ; 0x08
000012d0 0023 0000000000100011 movs r3, r4
000012d2 334c 0011001101001100 adds r3, #76  ; 0x4c
000012d4 781b 0111100000011011 ldrb r3, [r3, #0]
000012d6 9a02 1001101000000010 ldr r2, [sp, #8]
000012d8 4293 0100001010010011 cmp  r3, r2
000012da d1ac 1101000110101100 bne.n 1336 ; PC + 92

000012dc 6973 0110100101110011 ldr  r3, [r6, #20] ; 0x14
000012de 69b2 0110100110110010 ldr  r2, [r6, #24] ; 0x18
000012e0 4293 0100001010010011 cmp  r3, r2
000012e2 d2a8 1101001010101000 bcs.n 1336 ; PC + 84

000012e4 0020 0000000000100000 movs r0, r4
000012e6 2128 0010000100101000 movs r1, #40  ; 0x28
000012e8 3024 0011000000100100 adds r0, #36  ; 0x24
000012ea f7ff 1111011111111111 (32-bit)
000012ec fe2b 1111111000101011 bl   f44

000012ee 0022 0000000000100010 movs r2, r4
000012f0 9b03 1001101100000011 ldr r3, [sp, #12]
000012f2 3248 0011001001001000 adds r2, #72  ; 0x48
000012f4 6971 0110100101110001 ldr  r1, [r6, #20] ; 0x14
000012f6 6263 0110001001100011 str  r3, [r4, #36] ; 0x24 imm5
000012f8 6163 0110000101100011 str  r3, [r4, #20] ; 0x14
000012fa 68f3 0110100011110011 ldr  r3, [r6, #12] ; 0xc
000012fc 7017 0111000000010111 ldrb r7, [r2, #0]
000012fe 4a40 0100101001000000 ldr  r2, [pc, #256] ; 0x0100
00001300 2001 0010000000000001 movs r0, #1  ; 0x01
00001302 4694 0100011010010100 mov  ip, r2
00001304 62e2 0110001011100010 str  r2, [r4, #44] ; 0x2c imm5
00001306 2280 0010001010000000 movs r2, #128  ; 0x80
00001308 0052 0000000001010010 lsls  r2, r2, #1
0000130a 6422 0110010000100010 str  r2, [r4, #64] ; 0x40
0000130c 0022 0000000000100010 movs r2, r4
0000130e 324a 0011001001001010 adds r2, #74  ; 0x4a
00001310 7010 0111000000010000 ldrb r0, [r2, #0]
00001312 221f 0010001000011111 movs r2, #31  ; 0x1f
00001314 400a 0100000000001010 ands  r2, r1
00001316 4090 0100000010010000 lsl  r0, r2
00001318 6825 0110100000100101 ldr  r5, [r4, #0] ; 0x0
0000131a 094a 0000100101001010 lsrs  r2, r1, #5
0000131c 0092 0000000010010010 lsls  r2, r2, #2
0000131e 6221 0110001000100001 str  r1, [r4, #32] ; 0x20 imm5
00001320 6323 0110001100100011 str  r3, [r4, #48] ; 0x30 imm5
00001322 18aa 0001100010101010 adds r2, r5, r2
00001324 6815 0110100000010101 ldr  r5, [r2, #0] ; 0x0
00001326 3620 0011011000100000 adds r6, #32  ; 0x20
00001328 63e6 0110001111100110 str  r6, [r4, #60] ; 0x3c imm5
0000132a 9001 1001000000000001 str r0, [sp, #4]
0000132c 4205 0100001000000101 tst  r5, r0
0000132e d000 1101000000000000 beq.n 1332 ; PC + 4

00001330 e74a 1110011101001010 b.n  11c8

00001332 2580 0010010110000000 movs r5, #128  ; 0x80
00001334 69e6 0110100111100110 ldr  r6, [r4, #28] ; 0x1c
00001336 05ad 0000010110101101 lsls  r5, r5, #22
00001338 42b3 0100001010110011 cmp  r3, r6
0000133a d20b 1101001000001011 bcs.n 1354 ; PC + 26

0000133c 42ab 0100001010101011 cmp  r3, r5
0000133e 41bf 0100000110111111 sbc  r7, r7
00001340 427f 0100001001111111 rsb  r7, r7
00001342 0038 0000000000111000 movs r0, r7
00001344 42ae 0100001010101110 cmp  r6, r5
00001346 41bf 0100000110111111 sbc  r7, r7
00001348 427f 0100001001111111 rsb  r7, r7
0000134a 9702 1001011100000010 str r7, [sp, #8]
0000134c 0007 0000000000000111 movs r7, r0
0000134e 9802 1001100000000010 ldr r0, [sp, #8]
00001350 4287 0100001010000111 cmp  r7, r0
00001352 d003 1101000000000011 beq.n 135c ; PC + 10

00001354 42ae 0100001010101110 cmp  r6, r5
00001356 d202 1101001000000010 bcs.n 135e ; PC + 8

00001358 42ab 0100001010101011 cmp  r3, r5
0000135a d300 1101001100000000 bcc.n 135e ; PC + 4

0000135c 61e3 0110000111100011 str  r3, [r4, #28] ; 0x1c
0000135e 0025 0000000000100101 movs r5, r4
00001360 354c 0011010101001100 adds r5, #76  ; 0x4c
00001362 782d 0111100000101101 ldrb r5, [r5, #0]
00001364 2d00 0010110100000000 cmp r5, #0  ; 0x00
00001366 d11a 1101000100011010 bne.n 139e ; PC + 56

00001368 020e 0000001000001110 lsls  r6, r1, #8
0000136a 05c9 0000010111001001 lsls  r1, r1, #23
0000136c 0ec9 0000111011001001 lsrs  r1, r1, #27
0000136e 3501 0011010100000001 adds r5, #1  ; 0x01
00001370 408d 0100000010001101 lsl  r5, r1
00001372 0c71 0000110001110001 lsrs  r1, r6, #17
00001374 68a6 0110100010100110 ldr  r6, [r4, #8] ; 0x8
00001376 0089 0000000010001001 lsls  r1, r1, #2
00001378 1871 0001100001110001 adds r1, r6, r1
0000137a 680e 0110100000001110 ldr  r6, [r1, #0] ; 0x0
0000137c 422e 0100001000101110 tst  r6, r5
0000137e d10e 1101000100001110 bne.n 139e ; PC + 32

00001380 0b1b 0000101100011011 lsrs  r3, r3, #12
00001382 031b 0000001100011011 lsls  r3, r3, #12
00001384 6363 0110001101100011 str  r3, [r4, #52] ; 0x34 imm5
00001386 2380 0010001110000000 movs r3, #128  ; 0x80
00001388 015b 0000000101011011 lsls  r3, r3, #5
0000138a 63a3 0110001110100011 str  r3, [r4, #56] ; 0x38 imm5
0000138c 680b 0110100000001011 ldr  r3, [r1, #0] ; 0x0
0000138e 431d 0100001100011101 orrs  r5, r3
00001390 600d 0110000000001101 str  r5, [r1, #0] ; 0x0
00001392 0021 0000000000100001 movs r1, r4
00001394 2302 0010001100000010 movs r3, #2  ; 0x02
00001396 3148 0011000101001000 adds r1, #72  ; 0x48
00001398 780d 0111100000001101 ldrb r5, [r1, #0]
0000139a 432b 0100001100101011 orrs  r3, r5
0000139c 700b 0111000000001011 ldrb r3, [r1, #0]
0000139e 69a3 0110100110100011 ldr  r3, [r4, #24] ; 0x18
000013a0 9801 1001100000000001 ldr r0, [sp, #4]
000013a2 3301 0011001100000001 adds r3, #1  ; 0x01
000013a4 61a3 0110000110100011 str  r3, [r4, #24] ; 0x18
000013a6 6813 0110100000010011 ldr  r3, [r2, #0] ; 0x0
000013a8 0021 0000000000100001 movs r1, r4
000013aa 4318 0100001100011000 orrs  r0, r3
000013ac 4663 0100011001100011 mov  r3, ip
000013ae 4d0e 0100110100001110 ldr  r5, [pc, #56] ; 0x0038
000013b0 6010 0110000000010000 str  r0, [r2, #0] ; 0x0
000013b2 3528 0011010100101000 adds r5, #40  ; 0x28
000013b4 62e3 0110001011100011 str  r3, [r4, #44] ; 0x2c imm5
000013b6 2228 0010001000101000 movs r2, #40  ; 0x28
000013b8 3124 0011000100100100 adds r1, #36  ; 0x24
000013ba 480b 0100100000001011 ldr  r0, [pc, #44] ; 0x002c
000013bc 782b 0111100000101011 ldrb r3, [r5, #0]
000013be f001 1111000000000001 (32-bit)
000013c0 f93f 1111100100111111 bl   2640

000013c2 2001 0010000000000001 movs r0, #1  ; 0x01
000013c4 7028 0111000000101000 ldrb r0, [r5, #0]
000013c6 bf40 1011111101000000 sev
000013c8 344b 0011010001001011 adds r4, #75  ; 0x4b
000013ca 7020 0111000000100000 ldrb r0, [r4, #0]
000013cc e6fd 1110011011111101 b.n  11ca

000013ce 46c0 0100011011000000 nop  ; (mov  r8, r8)

000013d0 .word 0a324655
000013d4 .word 9e5d5157
000013d8 .word 0ab16f30
000013dc .word e48bff56
000013e0 .word 50100d3c
000013e4 .word 0fffff01
000013e8 .word 50100fc0
000013ec .word 50100ec4
000013f0 .word 0001dce0
000013f4 .word 15003c3c
000013f8 .word 00001e1e
000013fc .word 000003c3
00001400 .word 00001631

00001404 b570 1011010101110000 push {r4, r5, r6, lr}
00001406 000d 0000000000001101 movs r5, r1
00001408 f7ff 1111011111111111 (32-bit)
0000140a f8c8 1111100011001000 bl   59c

0000140c 0004 0000000000000100 movs r4, r0
0000140e 0029 0000000000101001 movs r1, r5
00001410 6800 0110100000000000 ldr  r0, [r0, #0] ; 0x0
00001412 f7ff 1111011111111111 (32-bit)
00001414 fd97 1111110110010111 bl   f44

00001416 6820 0110100000100000 ldr  r0, [r4, #0] ; 0x0
00001418 7125 0111000100100101 ldrb r5, [r4, #4]
0000141a bd70 1011110101110000 pop {r4, r5, r6, pc}
0000141c 2200 0010001000000000 movs r2, #0  ; 0x00
0000141e b510 1011010100010000 push {r4, lr}
00001420 4c07 0100110000000111 ldr  r4, [pc, #28] ; 0x001c
00001422 210d 0010000100001101 movs r1, #13  ; 0x0d
00001424 1da3 0001110110100011 adds r3, r4, #6   ;0x6
00001426 4807 0100100000000111 ldr  r0, [pc, #28] ; 0x001c
00001428 77da 0111011111011010 strb r2, [r3, #31]
0000142a f7ff 1111011111111111 (32-bit)
0000142c ffeb 1111111111101011 bl   1404

0000142e 220d 0010001000001101 movs r2, #13  ; 0x0d
00001430 0021 0000000000100001 movs r1, r4
00001432 f001 1111000000000001 (32-bit)
00001434 f905 1111100100000101 bl   2640

00001436 4804 0100100000000100 ldr  r0, [pc, #16] ; 0x0010
00001438 f7ff 1111011111111111 (32-bit)
0000143a f94c 1111100101001100 bl   6d4

0000143c bd10 1011110100010000 pop {r4, pc}
0000143e 46c0 0100011011000000 nop  ; (mov  r8, r8)

00001440 0a7c 0000101001111100 lsrs  r4, r7, #9
00001442 5010 0101000000010000 str r0, [r2, r0]
00001444 0dc0 0000110111000000 lsrs  r0, r0, #23
00001446 5010 0101000000010000 str r0, [r2, r0]
00001448 0705 0000011100000101 lsls  r5, r0, #28
0000144a 0000 0000000000000000 nop     ; movs r0, r0

0000144c b510 1011010100010000 push {r4, lr}
0000144e 1dc3 0001110111000011 adds r3, r0, #7   ;0x7
00001450 7fdb 0111111111011011 strb r3, [r3, #31]
00001452 2b00 0010101100000000 cmp r3, #0  ; 0x00
00001454 d109 1101000100001001 bne.n 146a ; PC + 22

00001456 4b05 0100101100000101 ldr  r3, [pc, #20] ; 0x0014
00001458 4298 0100001010011000 cmp  r0, r3
0000145a d106 1101000100000110 bne.n 146a ; PC + 16

0000145c 4b04 0100101100000100 ldr  r3, [pc, #16] ; 0x0010
0000145e 3306 0011001100000110 adds r3, #6  ; 0x06
00001460 7fdb 0111111111011011 strb r3, [r3, #31]
00001462 2b00 0010101100000000 cmp r3, #0  ; 0x00
00001464 d001 1101000000000001 beq.n 146a ; PC + 6

00001466 f7ff 1111011111111111 (32-bit)
00001468 ffd9 1111111111011001 bl   141c

0000146a bd10 1011110100010000 pop {r4, pc}
0000146c .word 50100dc0
00001470 .word 50100a7c

00001474 b510 1011010100010000 push {r4, lr}
00001476 4a0c 0100101000001100 ldr  r2, [pc, #48] ; 0x0030
00001478 1d53 0001110101010011 adds r3, r2, #5   ;0x5
0000147a 7fd9 0111111111011001 strb r1, [r3, #31]
0000147c 2901 0010100100000001 cmp r1, #1  ; 0x01
0000147e d107 1101000100000111 bne.n 1490 ; PC + 18

00001480 2380 0010001110000000 movs r3, #128  ; 0x80
00001482 005b 0000000001011011 lsls  r3, r3, #1
00001484 4809 0100100000001001 ldr  r0, [pc, #36] ; 0x0024
00001486 8493 1000010010010011 strh r3, [r2, #36]
00001488 3101 0011000100000001 adds r1, #1  ; 0x01
0000148a f7ff 1111011111111111 (32-bit)
0000148c f9a7 1111100110100111 bl   7dc

0000148e bd10 1011110100010000 pop {r4, pc}
00001490 2902 0010100100000010 cmp r1, #2  ; 0x02
00001492 d105 1101000100000101 bne.n 14a0 ; PC + 14

00001494 2200 0010001000000000 movs r2, #0  ; 0x00
00001496 4805 0100100000000101 ldr  r0, [pc, #20] ; 0x0014
00001498 77da 0111011111011010 strb r2, [r3, #31]
0000149a 302c 0011000000101100 adds r0, #44  ; 0x2c
0000149c f7ff 1111011111111111 (32-bit)
0000149e f99e 1111100110011110 bl   7dc

000014a0 f7ff 1111011111111111 (32-bit)
000014a2 ffbc 1111111110111100 bl   141c

000014a4 e7f3 1110011111110011 b.n  148e

000014a6 46c0 0100011011000000 nop  ; (mov  r8, r8)

000014a8 .word 50100a7c
000014ac .word 50100dc0

000014b0 2300 0010001100000000 movs r3, #0  ; 0x00
000014b2 b570 1011010101110000 push {r4, r5, r6, lr}
000014b4 4c11 0100110000010001 ldr  r4, [pc, #68] ; 0x0044
000014b6 1d65 0001110101100101 adds r5, r4, #5   ;0x5
000014b8 77eb 0111011111101011 strb r3, [r5, #31]
000014ba 6223 0110001000100011 str  r3, [r4, #32] ; 0x20 imm5
000014bc 7b05 0111101100000101 strb r5, [r0, #12]
000014be 3301 0011001100000001 adds r3, #1  ; 0x01
000014c0 2d7f 0010110101111111 cmp r5, #127  ; 0x7f
000014c2 d800 1101100000000000 bhi.n 14c6 ; PC + 4

000014c4 3301 0011001100000001 adds r3, #1  ; 0x01
000014c6 429a 0100001010011010 cmp  r2, r3
000014c8 d007 1101000000000111 beq.n 14da ; PC + 18

000014ca 1d62 0001110101100010 adds r2, r4, #5   ;0x5
000014cc 77d3 0111011111010011 strb r3, [r2, #31]
000014ce 2302 0010001100000010 movs r3, #2  ; 0x02
000014d0 7323 0111001100100011 strb r3, [r4, #12]
000014d2 f7ff 1111011111111111 (32-bit)
000014d4 ffcf 1111111111001111 bl   1474

000014d6 2000 0010000000000000 movs r0, #0  ; 0x00
000014d8 e00f 1110000000001111 b.n  14fa

000014da 6883 0110100010000011 ldr  r3, [r0, #8] ; 0x8
000014dc 428b 0100001010001011 cmp  r3, r1
000014de d008 1101000000001000 beq.n 14f2 ; PC + 20

000014e0 1d60 0001110101100000 adds r0, r4, #5   ;0x5
000014e2 77c2 0111011111000010 strb r2, [r0, #31]
000014e4 428b 0100001010001011 cmp  r3, r1
000014e6 d201 1101001000000001 bcs.n 14ec ; PC + 6

000014e8 2202 0010001000000010 movs r2, #2  ; 0x02
000014ea 7322 0111001100100010 strb r2, [r4, #12]
000014ec 428b 0100001010001011 cmp  r3, r1
000014ee d900 1101100100000000 bls.n 14f2 ; PC + 4

000014f0 000b 0000000000001011 movs r3, r1
000014f2 2001 0010000000000001 movs r0, #1  ; 0x01
000014f4 6223 0110001000100011 str  r3, [r4, #32] ; 0x20 imm5
000014f6 2b00 0010101100000000 cmp r3, #0  ; 0x00
000014f8 d0eb 1101000011101011 beq.n 14d2 ; PC + -38

000014fa bd70 1011110101110000 pop {r4, r5, r6, pc}
000014fc .word 50100a7c

00001500 b5f8 1011010111111000 push {r3, r4, r5, r6, r7, lr}
00001502 7c82 0111110010000010 ldrb r2, [r0, #18]
00001504 7c43 0111110001000011 ldrb r3, [r0, #17]
00001506 0212 0000001000010010 lsls  r2, r2, #8
00001508 431a 0100001100011010 orrs  r2, r3
0000150a 7cc3 0111110011000011 ldrb r3, [r0, #19]
0000150c 000f 0000000000001111 movs r7, r1
0000150e 041b 0000010000011011 lsls  r3, r3, #16
00001510 431a 0100001100011010 orrs  r2, r3
00001512 7d03 0111110100000011 ldrb r3, [r0, #20]
00001514 7dc1 0111110111000001 ldrb r1, [r0, #23]
00001516 061b 0000011000011011 lsls  r3, r3, #24
00001518 4313 0100001100010011 orrs  r3, r2
0000151a 7d82 0111110110000010 ldrb r2, [r0, #22]
0000151c 0209 0000001000001001 lsls  r1, r1, #8
0000151e 4311 0100001100010001 orrs  r1, r2
00001520 4e20 0100111000100000 ldr  r6, [pc, #128] ; 0x0080
00001522 ba49 1011101001001001 revsh r1, r1
00001524 0032 0000000000110010 movs r2, r6
00001526 ba1b 1011101000011011 rev r3, r3
00001528 b289 1011001010001001 uxth
0000152a 2f01 0010111100000001 cmp r7, #1  ; 0x01
0000152c d000 1101000000000000 beq.n 1530 ; PC + 4

0000152e 322c 0011001000101100 adds r2, #44  ; 0x2c
00001530 4c1d 0100110000011101 ldr  r4, [pc, #116] ; 0x0074
00001532 0249 0000001001001001 lsls  r1, r1, #9
00001534 6262 0110001001100010 str  r2, [r4, #36] ; 0x24 imm5
00001536 003a 0000000000111010 movs r2, r7
00001538 62e3 0110001011100011 str  r3, [r4, #44] ; 0x2c imm5
0000153a f7ff 1111011111111111 (32-bit)
0000153c ffb9 1111111110111001 bl   14b0

0000153e 2800 0010100000000000 cmp r0, #0  ; 0x00
00001540 d029 1101000000101001 beq.n 1596 ; PC + 86

00001542 4b1a 0100101100011010 ldr  r3, [pc, #104] ; 0x0068
00001544 6a1d 0110101000011101 ldr  r5, [r3, #32] ; 0x20
00001546 2d3f 0010110100111111 cmp r5, #63  ; 0x3f
00001548 d928 1101100100101000 bls.n 159c ; PC + 84

0000154a 4a19 0100101000011001 ldr  r2, [pc, #100] ; 0x0064
0000154c 0020 0000000000100000 movs r0, r4
0000154e 6813 0110100000010011 ldr  r3, [r2, #0] ; 0x0
00001550 4918 0100100100011000 ldr  r1, [pc, #96] ; 0x0060
00001552 3301 0011001100000001 adds r3, #1  ; 0x01
00001554 6013 0110000000010011 str  r3, [r2, #0] ; 0x0
00001556 233f 0010001100111111 movs r3, #63  ; 0x3f
00001558 439d 0100001110011101 bics  r5, r3

0000155a 4b17 0100101100010111 ldr  r3, [pc, #92] ; 0x005c
0000155c 61a5 0110000110100101 str  r5, [r4, #24] ; 0x18
0000155e 62a3 0110001010100011 str  r3, [r4, #40] ; 0x28 imm5
00001560 4b16 0100101100010110 ldr  r3, [pc, #88] ; 0x0058
00001562 4a17 0100101000010111 ldr  r2, [pc, #92] ; 0x005c
00001564 6223 0110001000100011 str  r3, [r4, #32] ; 0x20 imm5
00001566 2380 0010001110000000 movs r3, #128  ; 0x80
00001568 009b 0000000010011011 lsls  r3, r3, #2
0000156a 61e3 0110000111100011 str  r3, [r4, #28] ; 0x1c
0000156c 2300 0010001100000000 movs r3, #0  ; 0x00
0000156e 6163 0110000101100011 str  r3, [r4, #20] ; 0x14
00001570 f7fe 1111011111111110 (32-bit)
00001572 ff7e 1111111101111110 bl   470

00001574 353f 0011010100111111 adds r5, #63  ; 0x3f
00001576 68a3 0110100010100011 ldr  r3, [r4, #8] ; 0x8
00001578 09ad 0000100110101101 lsrs  r5, r5, #6
0000157a 195b 0001100101011011 adds r3, r3, r5
0000157c 60a3 0110000010100011 str  r3, [r4, #8] ; 0x8
0000157e 68e3 0110100011100011 ldr  r3, [r4, #12] ; 0xc
00001580 195d 0001100101011101 adds r5, r3, r5
00001582 60e5 0110000011100101 str  r5, [r4, #12] ; 0xc
00001584 2f01 0010111100000001 cmp r7, #1  ; 0x01
00001586 d107 1101000100000111 bne.n 1598 ; PC + 18

00001588 2300 0010001100000000 movs r3, #0  ; 0x00
0000158a 0030 0000000000110000 movs r0, r6
0000158c 60b4 0110000010110100 str  r4, [r6, #8] ; 0x8
0000158e 60f3 0110000011110011 str  r3, [r6, #12] ; 0xc
00001590 74a7 0111010010100111 ldrb r7, [r4, #18]
00001592 f7ff 1111011111111111 (32-bit)
00001594 f86d 1111100001101101 bl   670

00001596 bdf8 1011110111111000 pop {r3, r4, r5, r6, r7, pc}
00001598 63b4 0110001110110100 str  r4, [r6, #56] ; 0x38 imm5
0000159a e7fc 1110011111111100 b.n  1596

0000159c f7ff 1111011111111111 (32-bit)
0000159e ff6a 1111111101101010 bl   1474

000015a0 e7f9 1110011111111001 b.n  1596

000015a2 46c0 0100011011000000 nop  ; (mov  r8, r8)

000015a4 0dc0 0000110111000000 lsrs  r0, r0, #23
000015a6 5010 0101000000010000 str r0, [r2, r0]
000015a8 0a4c 0000101001001100 lsrs  r4, r1, #9
000015aa 5010 0101000000010000 str r0, [r2, r0]
000015ac 0a7c 0000101001111100 lsrs  r4, r7, #9
000015ae 5010 0101000000010000 str r0, [r2, r0]
000015b0 0a20 0000101000100000 lsrs  r0, r4, #8
000015b2 5010 0101000000010000 str r0, [r2, r0]
000015b4 3e17 0011111000010111 subs r6, #23  ; 0x17
000015b6 0000 0000000000000000 nop     ; movs r0, r0

000015b8 3de4 0011110111100100 subs r5, #228  ; 0xe4
000015ba 0000 0000000000000000 nop     ; movs r0, r0

000015bc 0b1c 0000101100011100 lsrs  r4, r3, #12
000015be 5010 0101000000010000 str r0, [r2, r0]
000015c0 1475 0001010001110101 asr   r5, r6, #81
000015c2 0000 0000000000000000 nop     ; movs r0, r0


000015c4 b570 1011010101110000 push {r4, r5, r6, lr}
000015c6 0005 0000000000000101 movs r5, r0
000015c8 480c 0100100000001100 ldr  r0, [pc, #48] ; 0x0030
000015ca f7fe 1111011111111110 (32-bit)
000015cc ffe7 1111111111100111 bl   59c

000015ce 68a9 0110100010101001 ldr  r1, [r5, #8] ; 0x8
000015d0 7903 0111100100000011 ldrb r3, [r0, #4]
000015d2 0004 0000000000000100 movs r4, r0
000015d4 4299 0100001010011001 cmp  r1, r3
000015d6 d900 1101100100000000 bls.n 15da ; PC + 4

000015d8 0019 0000000000011001 movs r1, r3
000015da 2201 0010001000000001 movs r2, #1  ; 0x01
000015dc 0028 0000000000101000 movs r0, r5
000015de f7ff 1111011111111111 (32-bit)
000015e0 ff67 1111111101100111 bl   14b0

000015e2 2800 0010100000000000 cmp r0, #0  ; 0x00
000015e4 d009 1101000000001001 beq.n 15fa ; PC + 22

000015e6 4a06 0100101000000110 ldr  r2, [pc, #24] ; 0x0018
000015e8 4806 0100100000000110 ldr  r0, [pc, #24] ; 0x0018
000015ea 6a13 0110101000010011 ldr  r3, [r2, #32] ; 0x20
000015ec 7123 0111000100100011 ldrb r3, [r4, #4]
000015ee 6891 0110100010010001 ldr  r1, [r2, #8] ; 0x8
000015f0 b2db 1011001011011011 uxtb
000015f2 1acb 0001101011001011 sub r3, r1, r3
000015f4 6093 0110000010010011 str  r3, [r2, #8] ; 0x8
000015f6 f7ff 1111011111111111 (32-bit)
000015f8 f86d 1111100001101101 bl   6d4

000015fa bd70 1011110101110000 pop {r4, r5, r6, pc}
000015fc .word 50100dc0
00001600 .word 50100a7c
00001604 .word 00001475

00001608 2100 0010000100000000 movs r1, #0  ; 0x00
0000160a 4b08 0100101100001000 ldr  r3, [pc, #32] ; 0x0020
0000160c b510 1011010100010000 push {r4, lr}
0000160e 1d5a 0001110101011010 adds r2, r3, #5   ;0x5
00001610 77d1 0111011111010001 strb r1, [r2, #31]
00001612 6882 0110100010000010 ldr  r2, [r0, #8] ; 0x8
00001614 428a 0100001010001010 cmp  r2, r1
00001616 d006 1101000000000110 beq.n 1626 ; PC + 16

00001618 7b01 0111101100000001 strb r1, [r0, #12]
0000161a 2201 0010001000000001 movs r2, #1  ; 0x01
0000161c 297f 0010100101111111 cmp r1, #127  ; 0x7f
0000161e d800 1101100000000000 bhi.n 1622 ; PC + 4

00001620 1892 0001100010010010 adds r2, r2, r2
00001622 3305 0011001100000101 adds r3, #5  ; 0x05
00001624 77da 0111011111011010 strb r2, [r3, #31]
00001626 f7ff 1111011111111111 (32-bit)
00001628 ff25 1111111100100101 bl   1474

0000162a bd10 1011110100010000 pop {r4, pc}
0000162c .word 50100a7c

00001630 4b1a 0100101100011010 ldr  r3, [pc, #104] ; 0x0068
00001632 6802 0110100000000010 ldr  r2, [r0, #0] ; 0x0
00001634 6959 0110100101011001 ldr  r1, [r3, #20] ; 0x14
00001636 b510 1011010100010000 push {r4, lr}
00001638 0004 0000000000000100 movs r4, r0
0000163a 428a 0100001010001010 cmp  r2, r1
0000163c d111 1101000100010001 bne.n 1662 ; PC + 38

0000163e 6840 0110100001000000 ldr  r0, [r0, #4] ; 0x4
00001640 2800 0010100000000000 cmp r0, #0  ; 0x00
00001642 d10e 1101000100001110 bne.n 1662 ; PC + 32

00001644 699a 0110100110011010 ldr  r2, [r3, #24] ; 0x18
00001646 6919 0110100100011001 ldr  r1, [r3, #16] ; 0x10
00001648 428a 0100001010001010 cmp  r2, r1
0000164a d10a 1101000100001010 bne.n 1662 ; PC + 24

0000164c 001a 0000000000011010 movs r2, r3
0000164e 324c 0011001001001100 adds r2, #76  ; 0x4c
00001650 7812 0111100000010010 ldrb r2, [r2, #0]
00001652 2a00 0010101000000000 cmp r2, #0  ; 0x00
00001654 d000 1101000000000000 beq.n 1658 ; PC + 4

00001656 69d8 0110100111011000 ldr  r0, [r3, #28] ; 0x1c
00001658 22fa 0010001011111010 movs r2, #250  ; 0xfa
0000165a 4911 0100100100010001 ldr  r1, [pc, #68] ; 0x0044
0000165c 0092 0000000010010010 lsls  r2, r2, #2
0000165e f7ff 1111011111111111 (32-bit)
00001660 f9cd 1111100111001101 bl   9fc

00001662 cc0a 1100110000001010 ldmia r4, {r1}
00001664 f3ef 1111001111101111 (32-bit)
00001666 8410 1000010000010000 To be implemented

00001668 b672 1011011001110010 cps
0000166a 4a0e 0100101000001110 ldr  r2, [pc, #56] ; 0x0038
0000166c 6812 0110100000010010 ldr  r2, [r2, #0] ; 0x0
0000166e 4291 0100001010010001 cmp  r1, r2
00001670 d111 1101000100010001 bne.n 1696 ; PC + 38

00001672 2b00 0010101100000000 cmp r3, #0  ; 0x00
00001674 d00c 1101000000001100 beq.n 1690 ; PC + 28

00001676 2201 0010001000000001 movs r2, #1  ; 0x01
00001678 4b0b 0100101100001011 ldr  r3, [pc, #44] ; 0x002c
0000167a 731a 0111001100011010 strb r2, [r3, #12]
0000167c 3206 0011001000000110 adds r2, #6  ; 0x06
0000167e 73da 0111001111011010 strb r2, [r3, #15]
00001680 3219 0011001000011001 adds r2, #25  ; 0x19
00001682 765a 0111011001011010 strb r2, [r3, #25]
00001684 3a1e 0011101000011110 subs r2, #30  ; 0x1e
00001686 769a 0111011010011010 strb r2, [r3, #26]
00001688 3305 0011001100000101 adds r3, #5  ; 0x05
0000168a 77da 0111011111011010 strb r2, [r3, #31]
0000168c f7ff 1111011111111111 (32-bit)
0000168e fef2 1111111011110010 bl   1474

00001690 4806 0100100000000110 ldr  r0, [pc, #24] ; 0x0018
00001692 f7ff 1111011111111111 (32-bit)
00001694 fbab 1111101110101011 bl   dec

00001696 f384 1111001110000100 (32-bit)
00001698 8810 1000100000010000 msr ASPR, r4

0000169a bd10 1011110100010000 pop {r4, pc}
0000169c .word 50100d3c
000016a0 .word 20042000
000016a4 .word 50100a20
000016a8 .word 50100a7c
000016ac .word 50100a4c

000016b0 2100 0010000100000000 movs r1, #0  ; 0x00
000016b2 b510 1011010100010000 push {r4, lr}
000016b4 480f 0100100000001111 ldr  r0, [pc, #60] ; 0x003c
000016b6 f7ff 1111011111111111 (32-bit)
000016b8 f979 1111100101111001 bl   9ac

000016ba 480f 0100100000001111 ldr  r0, [pc, #60] ; 0x003c
000016bc 2100 0010000100000000 movs r1, #0  ; 0x00
000016be f7ff 1111011111111111 (32-bit)
000016c0 f975 1111100101110101 bl   9ac

000016c2 480e 0100100000001110 ldr  r0, [pc, #56] ; 0x0038
000016c4 7a43 0111101001000011 strb r3, [r0, #9]
000016c6 2b00 0010101100000000 cmp r3, #0  ; 0x00
000016c8 d003 1101000000000011 beq.n 16d2 ; PC + 10

000016ca 2280 0010001010000000 movs r2, #128  ; 0x80
000016cc 4b0c 0100101100001100 ldr  r3, [pc, #48] ; 0x0030
000016ce 0292 0000001010010010 lsls  r2, r2, #10
000016d0 601a 0110000000011010 str  r2, [r3, #0] ; 0x0
000016d2 2110 0010000100010000 movs r1, #16  ; 0x10
000016d4 f7ff 1111011111111111 (32-bit)
000016d6 fc36 1111110000110110 bl   f44

000016d8 4b0a 0100101100001010 ldr  r3, [pc, #40] ; 0x0028
000016da 2200 0010001000000000 movs r2, #0  ; 0x00
000016dc 0019 0000000000011001 movs r1, r3
000016de 3329 0011001100101001 adds r3, #41  ; 0x29
000016e0 3128 0011000100101000 adds r1, #40  ; 0x28
000016e2 700a 0111000000001010 ldrb r2, [r1, #0]
000016e4 701a 0111000000011010 ldrb r2, [r3, #0]
000016e6 4b08 0100101100001000 ldr  r3, [pc, #32] ; 0x0020
000016e8 0019 0000000000011001 movs r1, r3
000016ea 3329 0011001100101001 adds r3, #41  ; 0x29
000016ec 3128 0011000100101000 adds r1, #40  ; 0x28
000016ee 700a 0111000000001010 ldrb r2, [r1, #0]
000016f0 701a 0111000000011010 ldrb r2, [r3, #0]
000016f2 bd10 1011110100010000 pop {r4, pc}
000016f4 .word 50100e58
000016f8 .word 50100e24
000016fc .word 50100ab8
00001700 .word 4001a01c
00001704 .word 50100fc0
00001708 .word 50100e84

0000170c 2280 0010001010000000 movs r2, #128  ; 0x80
0000170e 4b05 0100101100000101 ldr  r3, [pc, #20] ; 0x0014
00001710 0292 0000001010010010 lsls  r2, r2, #10
00001712 b510 1011010100010000 push {r4, lr}
00001714 601a 0110000000011010 str  r2, [r3, #0] ; 0x0
00001716 2900 0010100100000000 cmp r1, #0  ; 0x00
00001718 d003 1101000000000011 beq.n 1722 ; PC + 10

0000171a f7ff 1111011111111111 (32-bit)
0000171c fc19 1111110000011001 bl   f50

0000171e f7ff 1111011111111111 (32-bit)
00001720 ffc7 1111111111000111 bl   16b0

00001722 bd10 1011110100010000 pop {r4, pc}
00001724 .word 4001a01c

00001728 2260 0010001001100000 movs r2, #96  ; 0x60
0000172a 780b 0111100000001011 ldrb r3, [r1, #0]
0000172c 2000 0010000000000000 movs r0, #0  ; 0x00
0000172e b510 1011010100010000 push {r4, lr}
00001730 401a 0100000000011010 ands  r2, r3
00001732 2a40 0010101001000000 cmp r2, #64  ; 0x40
00001734 d113 1101000100010011 bne.n 175e ; PC + 42

00001736 b25b 1011001001011011 sxtb
00001738 784a 0111100001001010 ldrb r2, [r1, #1]
0000173a 4283 0100001010000011 cmp  r3, r0
0000173c da10 1101101000010000 bge.n 1760 ; PC + 36

0000173e 2a42 0010101001000010 cmp r2, #66  ; 0x42
00001740 d10d 1101000100001101 bne.n 175e ; PC + 30

00001742 88cc 1000100011001100 ldrh r4, [r1, #6] ; 0x6
00001744 2c10 0010110000010000 cmp r4, #16  ; 0x10
00001746 d10a 1101000100001010 bne.n 175e ; PC + 24

00001748 0021 0000000000100001 movs r1, r4
0000174a 4809 0100100000001001 ldr  r0, [pc, #36] ; 0x0024
0000174c f7ff 1111011111111111 (32-bit)
0000174e fe5a 1111111001011010 bl   1404

00001750 0022 0000000000100010 movs r2, r4
00001752 4908 0100100100001000 ldr  r1, [pc, #32] ; 0x0020
00001754 f000 1111000000000000 (32-bit)
00001756 ff74 1111111101110100 bl   2640

00001758 f7ff 1111011111111111 (32-bit)
0000175a f80c 1111100000001100 bl   774

0000175c 2001 0010000000000001 movs r0, #1  ; 0x01
0000175e bd10 1011110100010000 pop {r4, pc}
00001760 2a41 0010101001000001 cmp r2, #65  ; 0x41
00001762 d1fc 1101000111111100 bne.n 175e ; PC + -4

00001764 f7ff 1111011111111111 (32-bit)
00001766 ffa4 1111111110100100 bl   16b0

00001768 f7fe 1111011111111110 (32-bit)
0000176a ffec 1111111111101100 bl   744

0000176c e7f6 1110011111110110 b.n  175c

0000176e 46c0 0100011011000000 nop  ; (mov  r8, r8)

00001770 .word 50100f68
00001774 .word 50100ab8

00001778 b5f8 1011010111111000 push {r3, r4, r5, r6, r7, lr}
0000177a 4e18 0100111000011000 ldr  r6, [pc, #96] ; 0x0060
0000177c 24c0 0010010011000000 movs r4, #192  ; 0xc0
0000177e 0015 0000000000010101 movs r5, r2
00001780 46b4 0100011010110100 mov  ip, r6
00001782 0564 0000010101100100 lsls  r4, r4, #21
00001784 001e 0000000000011110 movs r6, r3
00001786 4316 0100001100010110 orrs  r6, r2
00001788 432e 0100001100101110 orrs  r6, r5
0000178a d103 1101000100000011 bne.n 1794 ; PC + 10

0000178c 2003 0010000000000011 movs r0, #3  ; 0x03
0000178e f7ff 1111011111111111 (32-bit)
00001790 f9ff 1111100111111111 bl   b90

00001792 bdf8 1011110111111000 pop {r3, r4, r5, r6, r7, pc}
00001794 6a27 0110101000100111 ldr  r7, [r4, #32] ; 0x20
00001796 6a66 0110101001100110 ldr  r6, [r4, #36] ; 0x24
00001798 2a00 0010101000000000 cmp r2, #0  ; 0x00
0000179a d015 1101000000010101 beq.n 17c8 ; PC + 46

0000179c 19bf 0001100110111111 adds r7, r7, r6
0000179e 2f0d 0010111100001101 cmp r7, #13  ; 0x0d
000017a0 d812 1101100000010010 bhi.n 17c8 ; PC + 40

000017a2 1e07 0001111000000111 subs  r7, r0, #0   ;0x0
000017a4 d001 1101000000000001 beq.n 17aa ; PC + 6

000017a6 7807 0111100000000111 ldrb r7, [r0, #0]
000017a8 3001 0011000000000001 adds r0, #1  ; 0x01
000017aa 6627 0110011000100111 str  r7, [r4, #96] ; 0x60
000017ac 3a01 0011101000000001 subs r2, #1  ; 0x01
000017ae 2e00 0010111000000000 cmp r6, #0  ; 0x00
000017b0 d0e8 1101000011101000 beq.n 1784 ; PC + -44

000017b2 6e26 0110111000100110 ldr  r6, [r4, #96] ; 0x60
000017b4 2b00 0010101100000000 cmp r3, #0  ; 0x00
000017b6 d001 1101000000000001 beq.n 17bc ; PC + 6

000017b8 3b01 0011101100000001 subs r3, #1  ; 0x01
000017ba e7e3 1110011111100011 b.n  1784

000017bc 2900 0010100100000000 cmp r1, #0  ; 0x00
000017be d001 1101000000000001 beq.n 17c4 ; PC + 6

000017c0 700e 0111000000001110 ldrb r6, [r1, #0]
000017c2 3101 0011000100000001 adds r1, #1  ; 0x01
000017c4 3d01 0011110100000001 subs r5, #1  ; 0x01
000017c6 e7dd 1110011111011101 b.n  1784

000017c8 2e00 0010111000000000 cmp r6, #0  ; 0x00
000017ca d1f2 1101000111110010 bne.n 17b2 ; PC + -24

000017cc 4666 0100011001100110 mov  r6, ip
000017ce 27c0 0010011111000000 movs r7, #192  ; 0xc0
000017d0 6836 0110100000110110 ldr  r6, [r6, #0] ; 0x0
000017d2 02bf 0000001010111111 lsls  r7, r7, #10
000017d4 423e 0100001000111110 tst  r6, r7
000017d6 d0d5 1101000011010101 beq.n 1784 ; PC + -82

000017d8 e7d8 1110011111011000 b.n  178c

000017da 46c0 0100011011000000 nop  ; (mov  r8, r8)

000017dc .word 4001801c

000017e0 b510 1011010100010000 push {r4, lr}
000017e2 000c 0000000000001100 movs r4, r1
000017e4 0001 0000000000000001 movs r1, r0
000017e6 2003 0010000000000011 movs r0, #3  ; 0x03
000017e8 f7ff 1111011111111111 (32-bit)
000017ea f9da 1111100111011010 bl   ba0

000017ec 2280 0010001010000000 movs r2, #128  ; 0x80
000017ee 2304 0010001100000100 movs r3, #4  ; 0x04
000017f0 0021 0000000000100001 movs r1, r4
000017f2 2000 0010000000000000 movs r0, #0  ; 0x00
000017f4 0052 0000000001010010 lsls  r2, r2, #1
000017f6 f7ff 1111011111111111 (32-bit)
000017f8 ffbf 1111111110111111 bl   1778

000017fa bd10 1011110100010000 pop {r4, pc}
000017fc 23f0 0010001111110000 movs r3, #240  ; 0xf0
000017fe b510 1011010100010000 push {r4, lr}
00001800 061b 0000011000011011 lsls  r3, r3, #24
00001802 18c0 0001100011000000 adds r0, r0, r3
00001804 f7ff 1111011111111111 (32-bit)
00001806 ffec 1111111111101100 bl   17e0

00001808 2000 0010000000000000 movs r0, #0  ; 0x00
0000180a bd10 1011110100010000 pop {r4, pc}
0000180c b510 1011010100010000 push {r4, lr}
0000180e 2002 0010000000000010 movs r0, #2  ; 0x02
00001810 f7ff 1111011111111111 (32-bit)
00001812 f9be 1111100110111110 bl   b90

00001814 23c0 0010001111000000 movs r3, #192  ; 0xc0
00001816 2206 0010001000000110 movs r2, #6  ; 0x06
00001818 055b 0000010101011011 lsls  r3, r3, #21
0000181a 661a 0110011000011010 str  r2, [r3, #96] ; 0x60
0000181c 2200 0010001000000000 movs r2, #0  ; 0x00
0000181e 2301 0010001100000001 movs r3, #1  ; 0x01
00001820 0011 0000000000010001 movs r1, r2
00001822 0010 0000000000010000 movs r0, r2
00001824 f7ff 1111011111111111 (32-bit)
00001826 ffa8 1111111110101000 bl   1778

00001828 bd10 1011110100010000 pop {r4, pc}
0000182a be00 1011111000000000 bkpt 0x0000

0000182c b573 1011010101110011 push {r0, r1, r4, r5, r6, lr}
0000182e 26c0 0010011011000000 movs r6, #192  ; 0xc0
00001830 2401 0010010000000001 movs r4, #1  ; 0x01
00001832 0576 0000010101110110 lsls  r6, r6, #21
00001834 2002 0010000000000010 movs r0, #2  ; 0x02
00001836 f7ff 1111011111111111 (32-bit)
00001838 f9ab 1111100110101011 bl   b90

0000183a 2305 0010001100000101 movs r3, #5  ; 0x05
0000183c 6633 0110011000110011 str  r3, [r6, #96] ; 0x60
0000183e 466b 0100011001101011 mov  r3, sp
00001840 1ddd 0001110111011101 adds r5, r3, #7   ;0x7
00001842 0022 0000000000100010 movs r2, r4
00001844 0023 0000000000100011 movs r3, r4
00001846 0029 0000000000101001 movs r1, r5
00001848 2000 0010000000000000 movs r0, #0  ; 0x00
0000184a f7ff 1111011111111111 (32-bit)
0000184c ff95 1111111110010101 bl   1778

0000184e 782b 0111100000101011 ldrb r3, [r5, #0]
00001850 4223 0100001000100011 tst  r3, r4
00001852 d005 1101000000000101 beq.n 1860 ; PC + 14

00001854 4b03 0100101100000011 ldr  r3, [pc, #12] ; 0x000c
00001856 681a 0110100000011010 ldr  r2, [r3, #0] ; 0x0
00001858 23c0 0010001111000000 movs r3, #192  ; 0xc0
0000185a 029b 0000001010011011 lsls  r3, r3, #10
0000185c 421a 0100001000011010 tst  r2, r3
0000185e d0e9 1101000011101001 beq.n 1834 ; PC + -42

00001860 bd73 1011110101110011 pop {r0, r1, r4, r5, r6, pc}
00001862 46c0 0100011011000000 nop  ; (mov  r8, r8)

00001864 .word 4001801c

00001868 b570 1011010101110000 push {r4, r5, r6, lr}
0000186a 0005 0000000000000101 movs r5, r0
0000186c 000c 0000000000001100 movs r4, r1
0000186e f7ff 1111011111111111 (32-bit)
00001870 ffcd 1111111111001101 bl   180c

00001872 0029 0000000000101001 movs r1, r5
00001874 0020 0000000000100000 movs r0, r4
00001876 f7ff 1111011111111111 (32-bit)
00001878 f993 1111100110010011 bl   ba0

0000187a 2200 0010001000000000 movs r2, #0  ; 0x00
0000187c 2304 0010001100000100 movs r3, #4  ; 0x04
0000187e 0011 0000000000010001 movs r1, r2
00001880 0010 0000000000010000 movs r0, r2
00001882 f7ff 1111011111111111 (32-bit)
00001884 ff79 1111111101111001 bl   1778

00001886 f7ff 1111011111111111 (32-bit)
00001888 ffd1 1111111111010001 bl   182c

0000188a bd70 1011110101110000 pop {r4, r5, r6, pc}
0000188c 23f0 0010001111110000 movs r3, #240  ; 0xf0
0000188e b510 1011010100010000 push {r4, lr}
00001890 061b 0000011000011011 lsls  r3, r3, #24
00001892 18c0 0001100011000000 adds r0, r0, r3
00001894 2120 0010000100100000 movs r1, #32  ; 0x20
00001896 f7ff 1111011111111111 (32-bit)
00001898 ffe7 1111111111100111 bl   1868

0000189a 2000 0010000000000000 movs r0, #0  ; 0x00
0000189c bd10 1011110100010000 pop {r4, pc}
0000189e b570 1011010101110000 push {r4, r5, r6, lr}
000018a0 0005 0000000000000101 movs r5, r0
000018a2 000c 0000000000001100 movs r4, r1
000018a4 f7ff 1111011111111111 (32-bit)
000018a6 ffb2 1111111110110010 bl   180c

000018a8 0029 0000000000101001 movs r1, r5
000018aa 2002 0010000000000010 movs r0, #2  ; 0x02
000018ac f7ff 1111011111111111 (32-bit)
000018ae f978 1111100101111000 bl   ba0

000018b0 2280 0010001010000000 movs r2, #128  ; 0x80
000018b2 2304 0010001100000100 movs r3, #4  ; 0x04
000018b4 2100 0010000100000000 movs r1, #0  ; 0x00
000018b6 0020 0000000000100000 movs r0, r4
000018b8 0052 0000000001010010 lsls  r2, r2, #1
000018ba f7ff 1111011111111111 (32-bit)
000018bc ff5d 1111111101011101 bl   1778

000018be f7ff 1111011111111111 (32-bit)
000018c0 ffb5 1111111110110101 bl   182c

000018c2 bd70 1011110101110000 pop {r4, r5, r6, pc}
000018c4 23f0 0010001111110000 movs r3, #240  ; 0xf0
000018c6 b510 1011010100010000 push {r4, lr}
000018c8 061b 0000011000011011 lsls  r3, r3, #24
000018ca 18c0 0001100011000000 adds r0, r0, r3
000018cc f7ff 1111011111111111 (32-bit)
000018ce ffe7 1111111111100111 bl   189e

000018d0 2000 0010000000000000 movs r0, #0  ; 0x00
000018d2 bd10 1011110100010000 pop {r4, pc}
000018d4 2280 0010001010000000 movs r2, #128  ; 0x80
000018d6 4b82 0100101110000010 ldr  r3, [pc, #520] ; 0x0208
000018d8 b5f0 1011010111110000 push {r4, r5, r6, r7, lr}
000018da 0452 0000010001010010 lsls  r2, r2, #17
000018dc 601a 0110000000011010 str  r2, [r3, #0] ; 0x0
000018de 4a81 0100101010000001 ldr  r2, [pc, #516] ; 0x0204
000018e0 0006 0000000000000110 movs r6, r0
000018e2 6812 0110100000010010 ldr  r2, [r2, #0] ; 0x0
000018e4 000d 0000000000001101 movs r5, r1
000018e6 b085 1011000010000101 sub r0, sp, #532
000018e8 0792 0000011110010010 lsls  r2, r2, #30
000018ea d439 1101010000111001 bmi.n 1960 ; PC + 118

000018ec 2003 0010000000000011 movs r0, #3  ; 0x03
000018ee 4a7e 0100101001111110 ldr  r2, [pc, #504] ; 0x01f8
000018f0 497e 0100100101111110 ldr  r1, [pc, #504] ; 0x01f8
000018f2 4c7f 0100110001111111 ldr  r4, [pc, #508] ; 0x01fc
000018f4 6011 0110000000010001 str  r1, [r2, #0] ; 0x0
000018f6 4a7f 0100101001111111 ldr  r2, [pc, #508] ; 0x01fc
000018f8 6010 0110000000010000 str  r0, [r2, #0] ; 0x0
000018fa 4a7f 0100101001111111 ldr  r2, [pc, #508] ; 0x01fc
000018fc 487f 0100100001111111 ldr  r0, [pc, #508] ; 0x01fc
000018fe 67a2 0110011110100010 str  r2, [r4, #120] ; 0x78
00001900 3aff 0011101011111111 subs r2, #255  ; 0xff
00001902 3aff 0011101011111111 subs r2, #255  ; 0xff
00001904 6002 0110000000000010 str  r2, [r0, #0] ; 0x0
00001906 6c60 0110110001100000 ldr  r0, [r4, #68] ; 0x44
00001908 4210 0100001000010000 tst  r0, r2
0000190a d0fc 1101000011111100 beq.n 1906 ; PC + -4

0000190c 2280 0010001010000000 movs r2, #128  ; 0x80
0000190e 0052 0000000001010010 lsls  r2, r2, #1
00001910 6422 0110010000100010 str  r2, [r4, #64] ; 0x40
00001912 65a2 0110010110100010 str  r2, [r4, #88] ; 0x58
00001914 4a7a 0100101001111010 ldr  r2, [pc, #488] ; 0x01e8
00001916 6011 0110000000010001 str  r1, [r2, #0] ; 0x0
00001918 6851 0110100001010001 ldr  r1, [r2, #4] ; 0x4
0000191a 2900 0010100100000000 cmp r1, #0  ; 0x00
0000191c dafc 1101101011111100 bge.n 1918 ; PC + -4

0000191e 2080 0010000010000000 movs r0, #128  ; 0x80
00001920 0140 0000000101000000 lsls  r0, r0, #5
00001922 6018 0110000000011000 str  r0, [r3, #0] ; 0x0
00001924 f7ff 1111011111111111 (32-bit)
00001926 f94e 1111100101001110 bl   bc4

00001928 2201 0010001000000001 movs r2, #1  ; 0x01
0000192a 4b76 0100101101110110 ldr  r3, [pc, #472] ; 0x01d8
0000192c 2121 0010000100100001 movs r1, #33  ; 0x21
0000192e 601a 0110000000011010 str  r2, [r3, #0] ; 0x0
00001930 3263 0011001001100011 adds r2, #99  ; 0x63
00001932 609a 0110000010011010 str  r2, [r3, #8] ; 0x8
00001934 22aa 0010001010101010 movs r2, #170  ; 0xaa
00001936 02d2 0000001011010010 lsls  r2, r2, #11
00001938 60da 0110000011011010 str  r2, [r3, #12] ; 0xc
0000193a 4a73 0100101001110011 ldr  r2, [pc, #460] ; 0x01cc
0000193c 6011 0110000000010001 str  r1, [r2, #0] ; 0x0
0000193e 6819 0110100000011001 ldr  r1, [r3, #0] ; 0x0
00001940 2900 0010100100000000 cmp r1, #0  ; 0x00
00001942 dafc 1101101011111100 bge.n 193e ; PC + -4

00001944 2308 0010001100001000 movs r3, #8  ; 0x08
00001946 6013 0110000000010011 str  r3, [r2, #0] ; 0x0
00001948 2300 0010001100000000 movs r3, #0  ; 0x00
0000194a 63e3 0110001111100011 str  r3, [r4, #60] ; 0x3c imm5
0000194c 2382 0010001110000010 movs r3, #130  ; 0x82
0000194e 2201 0010001000000001 movs r2, #1  ; 0x01
00001950 011b 0000000100011011 lsls  r3, r3, #4
00001952 6563 0110010101100011 str  r3, [r4, #84] ; 0x54
00001954 4b6d 0100101101101101 ldr  r3, [pc, #436] ; 0x01b4
00001956 601a 0110000000011010 str  r2, [r3, #0] ; 0x0
00001958 2302 0010001100000010 movs r3, #2  ; 0x02
0000195a 6c62 0110110001100010 ldr  r2, [r4, #68] ; 0x44
0000195c 421a 0100001000011010 tst  r2, r3
0000195e d0fc 1101000011111100 beq.n 195a ; PC + -4

00001960 2080 0010000010000000 movs r0, #128  ; 0x80
00001962 0440 0000010001000000 lsls  r0, r0, #17
00001964 f7ff 1111011111111111 (32-bit)
00001966 f92e 1111100100101110 bl   bc4

00001968 220c 0010001000001100 movs r2, #12  ; 0x0c
0000196a 4b69 0100101101101001 ldr  r3, [pc, #420] ; 0x01a4
0000196c 2180 0010000110000000 movs r1, #128  ; 0x80
0000196e 62da 0110001011011010 str  r2, [r3, #44] ; 0x2c imm5
00001970 4b68 0100101101101000 ldr  r3, [pc, #416] ; 0x01a0
00001972 32f5 0011001011110101 adds r2, #245  ; 0xf5
00001974 32ff 0011001011111111 adds r2, #255  ; 0xff
00001976 601a 0110000000011010 str  r2, [r3, #0] ; 0x0
00001978 2201 0010001000000001 movs r2, #1  ; 0x01
0000197a 4b67 0100101101100111 ldr  r3, [pc, #412] ; 0x019c
0000197c 4867 0100100001100111 ldr  r0, [pc, #412] ; 0x019c
0000197e 601a 0110000000011010 str  r2, [r3, #0] ; 0x0
00001980 0149 0000000101001001 lsls  r1, r1, #5
00001982 f7ff 1111011111111111 (32-bit)
00001984 fadf 1111101011011111 bl   f44

00001986 4b66 0100101101100110 ldr  r3, [pc, #408] ; 0x0198
00001988 601e 0110000000011110 str  r6, [r3, #0] ; 0x0
0000198a 43eb 0100001111101011 mvns  r3, r5
0000198c 079b 0000011110011011 lsls  r3, r3, #30
0000198e d100 1101000100000000 bne.n 1992 ; PC + 4

00001990 2500 0010010100000000 movs r5, #0  ; 0x00
00001992 2e00 0010111000000000 cmp r6, #0  ; 0x00
00001994 d001 1101000000000001 beq.n 199a ; PC + 6

00001996 f7ff 1111011111111111 (32-bit)
00001998 faaf 1111101010101111 bl   ef8

0000199a 4c62 0100110001100010 ldr  r4, [pc, #392] ; 0x0188
0000199c 4b62 0100101101100010 ldr  r3, [pc, #392] ; 0x0188
0000199e 0020 0000000000100000 movs r0, r4
000019a0 6819 0110100000011001 ldr  r1, [r3, #0] ; 0x0
000019a2 f7ff 1111011111111111 (32-bit)
000019a4 f8a7 1111100010100111 bl   af4

000019a6 4b61 0100101101100001 ldr  r3, [pc, #388] ; 0x0184
000019a8 1da0 0001110110100000 adds r0, r4, #6   ;0x6
000019aa 6819 0110100000011001 ldr  r1, [r3, #0] ; 0x0
000019ac f7ff 1111011111111111 (32-bit)
000019ae f8a2 1111100010100010 bl   af4

000019b0 2601 0010011000000001 movs r6, #1  ; 0x01
000019b2 4c5f 0100110001011111 ldr  r4, [pc, #380] ; 0x017c
000019b4 2d00 0010110100000000 cmp r5, #0  ; 0x00
000019b6 d01f 1101000000011111 beq.n 19f8 ; PC + 66

000019b8 4f5e 0100111101011110 ldr  r7, [pc, #376] ; 0x0178
000019ba 2220 0010001000100000 movs r2, #32  ; 0x20
000019bc 0021 0000000000100001 movs r1, r4
000019be 0038 0000000000111000 movs r0, r7
000019c0 f000 1111000000000000 (32-bit)
000019c2 fe3e 1111111000111110 bl   2640

000019c4 2320 0010001100100000 movs r3, #32  ; 0x20
000019c6 70bb 0111000010111011 ldrb r3, [r7, #2]
000019c8 2300 0010001100000000 movs r3, #0  ; 0x00
000019ca 2601 0010011000000001 movs r6, #1  ; 0x01
000019cc 70fb 0111000011111011 ldrb r3, [r7, #3]
000019ce 002b 0000000000101011 movs r3, r5
000019d0 4033 0100000000110011 ands  r3, r6
000019d2 9303 1001001100000011 str r3, [sp, #12]
000019d4 4235 0100001000110101 tst  r5, r6
000019d6 d007 1101000000000111 beq.n 19e8 ; PC + 18

000019d8 0021 0000000000100001 movs r1, r4
000019da 0038 0000000000111000 movs r0, r7
000019dc 2217 0010001000010111 movs r2, #23  ; 0x17
000019de 3120 0011000100100000 adds r1, #32  ; 0x20
000019e0 3009 0011000000001001 adds r0, #9  ; 0x09
000019e2 f000 1111000000000000 (32-bit)
000019e4 fe2d 1111111000101101 bl   2640

000019e6 2600 0010011000000000 movs r6, #0  ; 0x00
000019e8 2301 0010001100000001 movs r3, #1  ; 0x01
000019ea 713b 0111000100111011 ldrb r3, [r7, #4]
000019ec 2300 0010001100000000 movs r3, #0  ; 0x00
000019ee 72fb 0111001011111011 strb r3, [r7, #11]
000019f0 9b03 1001101100000011 ldr r3, [sp, #12]
000019f2 003c 0000000000111100 movs r4, r7
000019f4 2b00 0010101100000000 cmp r3, #0  ; 0x00
000019f6 d108 1101000100001000 bne.n 1a0a ; PC + 20

000019f8 0021 0000000000100001 movs r1, r4
000019fa 4f4f 0100111101001111 ldr  r7, [pc, #316] ; 0x013c
000019fc 4a4f 0100101001001111 ldr  r2, [pc, #316] ; 0x013c
000019fe 0038 0000000000111000 movs r0, r7
00001a00 3109 0011000100001001 adds r1, #9  ; 0x09
00001a02 f7fe 1111011111111110 (32-bit)
00001a04 fd91 1111110110010001 bl   528

00001a06 4b4e 0100101101001110 ldr  r3, [pc, #312] ; 0x0138
00001a08 607b 0110000001111011 str  r3, [r7, #4] ; 0x4
00001a0a 07ab 0000011110101011 lsls  r3, r5, #30
00001a0c d40f 1101010000001111 bmi.n 1a2e ; PC + 34

00001a0e 2117 0010000100010111 movs r1, #23  ; 0x17
00001a10 4371 0100001101110001 muls  r1, r6
00001a12 4e4c 0100111001001100 ldr  r6, [pc, #304] ; 0x0130
00001a14 3109 0011000100001001 adds r1, #9  ; 0x09
00001a16 4a4c 0100101001001100 ldr  r2, [pc, #304] ; 0x0130
00001a18 0030 0000000000110000 movs r0, r6
00001a1a 1861 0001100001100001 adds r1, r4, r1
00001a1c f7fe 1111011111111110 (32-bit)
00001a1e fd84 1111110110000100 bl   528

00001a20 4b4a 0100101101001010 ldr  r3, [pc, #296] ; 0x0128
00001a22 4a4b 0100101001001011 ldr  r2, [pc, #300] ; 0x012c
00001a24 601a 0110000000011010 str  r2, [r3, #0] ; 0x0
00001a26 4a4b 0100101001001011 ldr  r2, [pc, #300] ; 0x012c
00001a28 6053 0110000001010011 str  r3, [r2, #4] ; 0x4
00001a2a 4b4b 0100101101001011 ldr  r3, [pc, #300] ; 0x012c
00001a2c 6073 0110000001110011 str  r3, [r6, #4] ; 0x4
00001a2e 4b4b 0100101101001011 ldr  r3, [pc, #300] ; 0x012c
00001a30 2d01 0010110100000001 cmp r5, #1  ; 0x01
00001a32 d100 1101000100000000 bne.n 1a36 ; PC + 4

00001a34 3304 0011001100000100 adds r3, #4  ; 0x04
00001a36 4d4a 0100110101001010 ldr  r5, [pc, #296] ; 0x0128
00001a38 4a4a 0100101001001010 ldr  r2, [pc, #296] ; 0x0128
00001a3a 60ec 0110000011101100 str  r4, [r5, #12] ; 0xc
00001a3c 2400 0010010000000000 movs r4, #0  ; 0x00
00001a3e 4f4a 0100111101001010 ldr  r7, [pc, #296] ; 0x0128
00001a40 612b 0110000100101011 str  r3, [r5, #16] ; 0x10
00001a42 4b4a 0100101101001010 ldr  r3, [pc, #296] ; 0x0128
00001a44 0021 0000000000100001 movs r1, r4
00001a46 602a 0110000000101010 str  r2, [r5, #0] ; 0x0
00001a48 60ab 0110000010101011 str  r3, [r5, #8] ; 0x8
00001a4a 2201 0010001000000001 movs r2, #1  ; 0x01
00001a4c 2340 0010001101000000 movs r3, #64  ; 0x40
00001a4e 9400 1001010000000000 str r4, [sp, #0]
00001a50 0038 0000000000111000 movs r0, r7
00001a52 f7fe 1111011111111110 (32-bit)
00001a54 fd55 1111110101010101 bl   500

00001a56 4e46 0100111001000110 ldr  r6, [pc, #280] ; 0x0118
00001a58 0022 0000000000100010 movs r2, r4
00001a5a 0021 0000000000100001 movs r1, r4
00001a5c 2340 0010001101000000 movs r3, #64  ; 0x40
00001a5e 9400 1001010000000000 str r4, [sp, #0]
00001a60 0030 0000000000110000 movs r0, r6
00001a62 f7fe 1111011111111110 (32-bit)
00001a64 fd4d 1111110101001101 bl   500

00001a66 2380 0010001110000000 movs r3, #128  ; 0x80
00001a68 0021 0000000000100001 movs r1, r4
00001a6a 005b 0000000001011011 lsls  r3, r3, #1
00001a6c 0038 0000000000111000 movs r0, r7
00001a6e 832b 1000001100101011 strh r3, [r5, #24]
00001a70 f7fe 1111011111111110 (32-bit)
00001a72 fd12 1111110100010010 bl   498

00001a74 2380 0010001110000000 movs r3, #128  ; 0x80
00001a76 0021 0000000000100001 movs r1, r4
00001a78 005b 0000000001011011 lsls  r3, r3, #1
00001a7a 0030 0000000000110000 movs r0, r6
00001a7c 832b 1000001100101011 strh r3, [r5, #24]
00001a7e f7fe 1111011111111110 (32-bit)
00001a80 fd0b 1111110100001011 bl   498

00001a82 23c0 0010001111000000 movs r3, #192  ; 0xc0
00001a84 005b 0000000001011011 lsls  r3, r3, #1
00001a86 832b 1000001100101011 strh r3, [r5, #24]
00001a88 3401 0011010000000001 adds r4, #1  ; 0x01
00001a8a 4b3a 0100101100111010 ldr  r3, [pc, #232] ; 0x00e8
00001a8c 00a2 0000000010100010 lsls  r2, r4, #2
00001a8e 58d0 0101100011010000 ldr r0, [r2, r3]
00001a90 2800 0010100000000000 cmp r0, #0  ; 0x00
00001a92 d002 1101000000000010 beq.n 1a9a ; PC + 8

00001a94 2100 0010000100000000 movs r1, #0  ; 0x00
00001a96 f7fe 1111011111111110 (32-bit)
00001a98 fcff 1111110011111111 bl   498

00001a9a 3401 0011010000000001 adds r4, #1  ; 0x01
00001a9c 2c05 0010110000000101 cmp r4, #5  ; 0x05
00001a9e d1f4 1101000111110100 bne.n 1a8a ; PC + -20

00001aa0 4b35 0100101100110101 ldr  r3, [pc, #212] ; 0x00d4
00001aa2 2000 0010000000000000 movs r0, #0  ; 0x00
00001aa4 606b 0110000001101011 str  r3, [r5, #4] ; 0x4
00001aa6 4b35 0100101100110101 ldr  r3, [pc, #212] ; 0x00d4
00001aa8 4a35 0100101000110101 ldr  r2, [pc, #212] ; 0x00d4
00001aaa 001c 0000000000011100 movs r4, r3
00001aac 0019 0000000000011001 movs r1, r3
00001aae 3304 0011001100000100 adds r3, #4  ; 0x04
00001ab0 6008 0110000000001000 str  r0, [r1, #0] ; 0x0
00001ab2 4293 0100001010010011 cmp  r3, r2
00001ab4 d1fa 1101000111111010 bne.n 1aac ; PC + -8

00001ab6 2309 0010001100001001 movs r3, #9  ; 0x09
00001ab8 6763 0110011101100011 str  r3, [r4, #116] ; 0x74
00001aba 3303 0011001100000011 adds r3, #3  ; 0x03
00001abc 67a3 0110011110100011 str  r3, [r4, #120] ; 0x78
00001abe 3b0b 0011101100001011 subs r3, #11  ; 0x0b
00001ac0 6423 0110010000100011 str  r3, [r4, #64] ; 0x40
00001ac2 f7ff 1111011111111111 (32-bit)
00001ac4 fa03 1111101000000011 bl   ecc

00001ac6 4b2f 0100101100101111 ldr  r3, [pc, #188] ; 0x00bc
00001ac8 4a2f 0100101000101111 ldr  r2, [pc, #188] ; 0x00bc
00001aca 64e3 0110010011100011 str  r3, [r4, #76] ; 0x4c
00001acc 4b2f 0100101100101111 ldr  r3, [pc, #188] ; 0x00bc
00001ace 601a 0110000000011010 str  r2, [r3, #0] ; 0x0
00001ad0 2320 0010001100100000 movs r3, #32  ; 0x20
00001ad2 4a2f 0100101000101111 ldr  r2, [pc, #188] ; 0x00bc
00001ad4 6013 0110000000010011 str  r3, [r2, #0] ; 0x0
00001ad6 4a2f 0100101000101111 ldr  r2, [pc, #188] ; 0x00bc
00001ad8 6013 0110000000010011 str  r3, [r2, #0] ; 0x0
00001ada f7fe 1111011111111110 (32-bit)
00001adc fbe5 1111101111100101 bl   2a8

00001ade 46c0 0100011011000000 nop  ; (mov  r8, r8)

00001ae0 .word 4000e000
00001ae4 .word 4006c000
00001ae8 .word 40060000
00001aec .word 00fab000
00001af0 .word 40008000
00001af4 .word 4000b030
00001af8 .word 000001ff
00001afc .word 4000b03c
00001b00 .word 40024000
00001b04 .word 40028000
00001b08 .word 4002b004
00001b0c .word 4000a03c
00001b10 .word 40058000
00001b14 .word 4005a02c
00001b18 .word 14003000
00001b1c .word 50100000
00001b20 .word 50100f64
00001b24 .word 50100eb5
00001b28 .word 40000040
00001b2c .word 00000050
00001b30 .word 00003e19
00001b34 .word 50100d1c
00001b38 .word 50100e18
00001b3c .word 00003ddc
00001b40 .word 00000fb5
00001b44 .word 50100e50
00001b48 .word 00003f38
00001b4c .word 50100aa4
00001b50 .word 00003dec
00001b54 .word 50100e58
00001b58 .word 00001729
00001b5c .word 00003e64
00001b60 .word 501009ec
00001b64 .word 00003e50
00001b68 .word 50100f68
00001b6c .word 00000b75
00001b70 .word 50100f94
00001b74 .word 50100a08
00001b78 .word 0000170d
00001b7c .word 50110000
00001b80 .word 50110084
00001b84 .word 20010000
00001b88 .word 000113f0
00001b8c .word 50110090
00001b90 .word e000e280
00001b94 .word e000e100

00001b98 4b02 0100101100000010 ldr  r3, [pc, #8] ; 0x0008
00001b9a b510 1011010100010000 push {r4, lr}
00001b9c 68d8 0110100011011000 ldr  r0, [r3, #12] ; 0xc
00001b9e 6919 0110100100011001 ldr  r1, [r3, #16] ; 0x10
00001ba0 f7ff 1111011111111111 (32-bit)
00001ba2 fe98 1111111010011000 bl   18d4

00001ba4 .word 40058000

00001ba8 4b24 0100101100100100 ldr  r3, [pc, #144] ; 0x0090
00001baa b5f7 1011010111110111 push {r0, r1, r2, r4, r5, r6, r7, lr}
00001bac 681a 0110100000011010 ldr  r2, [r3, #0] ; 0x0
00001bae 4b24 0100101100100100 ldr  r3, [pc, #144] ; 0x0090
00001bb0 6884 0110100010000100 ldr  r4, [r0, #8] ; 0x8
00001bb2 601a 0110000000011010 str  r2, [r3, #0] ; 0x0
00001bb4 0002 0000000000000010 movs r2, r0
00001bb6 69e5 0110100111100101 ldr  r5, [r4, #28] ; 0x1c
00001bb8 3229 0011001000101001 adds r2, #41  ; 0x29
00001bba 6963 0110100101100011 ldr  r3, [r4, #20] ; 0x14
00001bbc 7812 0111100000010010 ldrb r2, [r2, #0]
00001bbe 1e6e 0001111001101110 subs  r6, r5, #1   ;0x1
00001bc0 401e 0100000000011110 ands  r6, r3
00001bc2 9201 1001001000000001 str r1, [sp, #8]
00001bc4 2a00 0010101000000000 cmp r2, #0  ; 0x00
00001bc6 d015 1101000000010101 beq.n 1bf4 ; PC + 46

00001bc8 2e00 0010111000000000 cmp r6, #0  ; 0x00
00001bca d003 1101000000000011 beq.n 1bd4 ; PC + 10

00001bcc 0020 0000000000100000 movs r0, r4
00001bce f7ff 1111011111111111 (32-bit)
00001bd0 f90d 1111100100001101 bl   dec

00001bd2 bdf7 1011110111110111 pop {r0, r1, r2, r4, r5, r6, r7, pc}
00001bd4 69a2 0110100110100010 ldr  r2, [r4, #24] ; 0x18
00001bd6 1959 0001100101011001 adds r1, r3, r5
00001bd8 4291 0100001010010001 cmp  r1, r2
00001bda d900 1101100100000000 bls.n 1bde ; PC + 4

00001bdc 1ad5 0001101011010101 sub r5, r2, r3
00001bde 2d00 0010110100000000 cmp r5, #0  ; 0x00
00001be0 d0f4 1101000011110100 beq.n 1bcc ; PC + -20

00001be2 6aa3 0110101010100011 ldr  r3, [r4, #40] ; 0x28
00001be4 4a17 0100101000010111 ldr  r2, [pc, #92] ; 0x005c
00001be6 791b 0111100100011011 ldrb r3, [r3, #4]
00001be8 0028 0000000000101000 movs r0, r5
00001bea 5ad3 0101101011010011 ldrh r3, [r2, r3]
00001bec 4798 0100011110011000 blx  r3

00001bee 2800 0010100000000000 cmp r0, #0  ; 0x00
00001bf0 d0ec 1101000011101100 beq.n 1bcc ; PC + -36

00001bf2 e7ee 1110011111101110 b.n  1bd2

00001bf4 f7fe 1111011111111110 (32-bit)
00001bf6 fcd2 1111110011010010 bl   59c

00001bf8 6961 0110100101100001 ldr  r1, [r4, #20] ; 0x14
00001bfa 69a2 0110100110100010 ldr  r2, [r4, #24] ; 0x18
00001bfc 3140 0011000101000000 adds r1, #64  ; 0x40
00001bfe 0007 0000000000000111 movs r7, r0
00001c00 69e3 0110100111100011 ldr  r3, [r4, #28] ; 0x1c
00001c02 4291 0100001010010001 cmp  r1, r2
00001c04 d312 1101001100010010 bcc.n 1c2c ; PC + 40

00001c06 0015 0000000000010101 movs r5, r2
00001c08 1e59 0001111001011001 subs  r1, r3, #1   ;0x1
00001c0a 400d 0100000000001101 ands  r5, r1
00001c0c 420a 0100001000001010 tst  r2, r1
00001c0e d100 1101000100000000 bne.n 1c12 ; PC + 4

00001c10 001d 0000000000011101 movs r5, r3
00001c12 2e00 0010111000000000 cmp r6, #0  ; 0x00
00001c14 d103 1101000100000011 bne.n 1c1e ; PC + 10

00001c16 69e1 0110100111100001 ldr  r1, [r4, #28] ; 0x1c
00001c18 6a20 0110101000100000 ldr  r0, [r4, #32] ; 0x20
00001c1a f7ff 1111011111111111 (32-bit)
00001c1c f993 1111100110010011 bl   f44

00001c1e 6a23 0110101000100011 ldr  r3, [r4, #32] ; 0x20
00001c20 793a 0111100100111010 ldrb r2, [r7, #4]
00001c22 6839 0110100000111001 ldr  r1, [r7, #0] ; 0x0
00001c24 1998 0001100110011000 adds r0, r3, r6
00001c26 f000 1111000000000000 (32-bit)
00001c28 fd0b 1111110100001011 bl   2640

00001c2a e7d8 1110011111011000 b.n  1bde

00001c2c 001d 0000000000011101 movs r5, r3
00001c2e 0033 0000000000110011 movs r3, r6
00001c30 3340 0011001101000000 adds r3, #64  ; 0x40
00001c32 42ab 0100001010101011 cmp  r3, r5
00001c34 d2ed 1101001011101101 bcs.n 1c12 ; PC + -34

00001c36 9d01 1001110100000001 ldr r5, [sp, #4]
00001c38 e7eb 1110011111101011 b.n  1c12

00001c3a 46c0 0100011011000000 nop  ; (mov  r8, r8)

00001c3c .word 50100f64
00001c40 .word d0000014
00001c44 .word 0000043c

00001c48 b5f8 1011010111111000 push {r3, r4, r5, r6, r7, lr}
00001c4a 0006 0000000000000110 movs r6, r0
00001c4c f7fe 1111011111111110 (32-bit)
00001c4e fca6 1111110010100110 bl   59c

00001c50 7903 0111100100000011 ldrb r3, [r0, #4]
00001c52 2b1f 0010101100011111 cmp r3, #31  ; 0x1f
00001c54 d000 1101000000000000 beq.n 1c58 ; PC + 4

00001c56 e0a0 1110000010100000 b.n  1d9a

00001c58 6805 0110100000000101 ldr  r5, [r0, #0] ; 0x0
00001c5a 4b55 0100101101010101 ldr  r3, [pc, #340] ; 0x0154
00001c5c 682a 0110100000101010 ldr  r2, [r5, #0] ; 0x0
00001c5e 429a 0100001010011010 cmp  r2, r3
00001c60 d000 1101000000000000 beq.n 1c64 ; PC + 4

00001c62 e09a 1110000010011010 b.n  1d9a

00001c64 7b6b 0111101101101011 strb r3, [r5, #13]
00001c66 2b00 0010101100000000 cmp r3, #0  ; 0x00
00001c68 d000 1101000000000000 beq.n 1c6c ; PC + 4

00001c6a e096 1110000010010110 b.n  1d9a

00001c6c 7b29 0111101100101001 strb r1, [r5, #12]
00001c6e 337f 0011001101111111 adds r3, #127  ; 0x7f
00001c70 000a 0000000000001010 movs r2, r1
00001c72 401a 0100000000011010 ands  r2, r3
00001c74 4219 0100001000011001 tst  r1, r3
00001c76 d000 1101000000000000 beq.n 1c7a ; PC + 4

00001c78 e08f 1110000010001111 b.n  1d9a

00001c7a 7bab 0111101110101011 strb r3, [r5, #14]
00001c7c 3b01 0011101100000001 subs r3, #1  ; 0x01
00001c7e 2b0f 0010101100001111 cmp r3, #15  ; 0x0f
00001c80 d900 1101100100000000 bls.n 1c84 ; PC + 4

00001c82 e08a 1110000010001010 b.n  1d9a

00001c84 4c4b 0100110001001011 ldr  r4, [pc, #300] ; 0x012c
00001c86 4b4c 0100101101001100 ldr  r3, [pc, #304] ; 0x0130
00001c88 6023 0110000000100011 str  r3, [r4, #0] ; 0x0
00001c8a 686b 0110100001101011 ldr  r3, [r5, #4] ; 0x4
00001c8c 6063 0110000001100011 str  r3, [r4, #4] ; 0x4
00001c8e 68ab 0110100010101011 ldr  r3, [r5, #8] ; 0x8
00001c90 60a3 0110000010100011 str  r3, [r4, #8] ; 0x8
00001c92 7beb 0111101111101011 strb r3, [r5, #15]
00001c94 2b03 0010101100000011 cmp r3, #3  ; 0x03
00001c96 d002 1101000000000010 beq.n 1c9e ; PC + 8

00001c98 73e2 0111001111100010 strb r2, [r4, #15]
00001c9a 7662 0111011001100010 strb r2, [r4, #25]
00001c9c 76a2 0111011010100010 strb r2, [r4, #26]
00001c9e 2700 0010011100000000 movs r7, #0  ; 0x00
00001ca0 7327 0111001100100111 strb r7, [r4, #12]
00001ca2 2b23 0010101100100011 cmp r3, #35  ; 0x23
00001ca4 d047 1101000001000111 beq.n 1c36 ; PC + -110

00001ca6 d818 1101100000011000 bhi.n 1cda ; PC + 52

00001ca8 2b1a 0010101100011010 cmp r3, #26  ; 0x1a
00001caa d03b 1101000000111011 beq.n 1d24 ; PC + 122

00001cac d80d 1101100000001101 bhi.n 1cca ; PC + 30

00001cae 2b03 0010101100000011 cmp r3, #3  ; 0x03
00001cb0 d051 1101000001010001 beq.n 1c56 ; PC + -90

00001cb2 2b12 0010101100010010 cmp r3, #18  ; 0x12
00001cb4 d025 1101000000100101 beq.n 1d02 ; PC + 78

00001cb6 42bb 0100001010111011 cmp  r3, r7
00001cb8 d05a 1101000001011010 beq.n 1c70 ; PC + -72

00001cba 2301 0010001100000001 movs r3, #1  ; 0x01
00001cbc 7323 0111001100100011 strb r3, [r4, #12]
00001cbe 3304 0011001100000100 adds r3, #4  ; 0x04
00001cc0 73e3 0111001111100011 strb r3, [r4, #15]
00001cc2 331b 0011001100011011 adds r3, #27  ; 0x1b
00001cc4 7663 0111011001100011 strb r3, [r4, #25]
00001cc6 2300 0010001100000000 movs r3, #0  ; 0x00
00001cc8 e05c 1110000001011100 b.n  1d84

00001cca 2b1b 0010101100011011 cmp r3, #27  ; 0x1b
00001ccc d05c 1101000001011100 beq.n 1c88 ; PC + -68

00001cce 2b1e 0010101100011110 cmp r3, #30  ; 0x1e
00001cd0 d1f3 1101000111110011 bne.n 1cba ; PC + -22

00001cd2 0028 0000000000101000 movs r0, r5
00001cd4 f7ff 1111011111111111 (32-bit)
00001cd6 fc98 1111110010011000 bl   1608

00001cd8 e00a 1110000000001010 b.n  1cf0

00001cda 2b2a 0010101100101010 cmp r3, #42  ; 0x2a
00001cdc d029 1101000000101001 beq.n 1d32 ; PC + 86

00001cde d80b 1101100000001011 bhi.n 1cf8 ; PC + 26

00001ce0 2b25 0010101100100101 cmp r3, #37  ; 0x25
00001ce2 d031 1101000000110001 beq.n 1d48 ; PC + 102

00001ce4 2101 0010000100000001 movs r1, #1  ; 0x01
00001ce6 2b28 0010101100101000 cmp r3, #40  ; 0x28
00001ce8 d1e7 1101000111100111 bne.n 1cba ; PC + -46

00001cea 0028 0000000000101000 movs r0, r5
00001cec f7ff 1111011111111111 (32-bit)
00001cee fc08 1111110000001000 bl   1500

00001cf0 0030 0000000000110000 movs r0, r6
00001cf2 f7fe 1111011111111110 (32-bit)
00001cf4 fdd5 1111110111010101 bl   8a0

00001cf6 bdf8 1011110111111000 pop {r3, r4, r5, r6, r7, pc}
00001cf8 2b2f 0010101100101111 cmp r3, #47  ; 0x2f
00001cfa d0ea 1101000011101010 beq.n 1cd2 ; PC + -40

00001cfc 2b35 0010101100110101 cmp r3, #53  ; 0x35
00001cfe d0e8 1101000011101000 beq.n 1cd2 ; PC + -44

00001d00 e7db 1110011111011011 b.n  1cba

00001d02 2124 0010000100100100 movs r1, #36  ; 0x24
00001d04 482d 0100100000101101 ldr  r0, [pc, #180] ; 0x00b4
00001d06 f7ff 1111011111111111 (32-bit)
00001d08 fb7d 1111101101111101 bl   1404

00001d0a 2119 0010000100011001 movs r1, #25  ; 0x19
00001d0c 0004 0000000000000100 movs r4, r0
00001d0e 482c 0100100000101100 ldr  r0, [pc, #176] ; 0x00b0
00001d10 0022 0000000000100010 movs r2, r4
00001d12 1840 0001100001000000 adds r0, r0, r1
00001d14 f000 1111000000000000 (32-bit)
00001d16 fc75 1111110001110101 bl   2602

00001d18 2380 0010001110000000 movs r3, #128  ; 0x80
00001d1a 7063 0111000001100011 ldrb r3, [r4, #1]
00001d1c 0028 0000000000101000 movs r0, r5
00001d1e f7ff 1111011111111111 (32-bit)
00001d20 fc51 1111110001010001 bl   15c4

00001d22 e7e5 1110011111100101 b.n  1cf0

00001d24 2104 0010000100000100 movs r1, #4  ; 0x04
00001d26 4825 0100100000100101 ldr  r0, [pc, #148] ; 0x0094
00001d28 f7ff 1111011111111111 (32-bit)
00001d2a fb6c 1111101101101100 bl   1404

00001d2c 2303 0010001100000011 movs r3, #3  ; 0x03
00001d2e 6003 0110000000000011 str  r3, [r0, #0] ; 0x0
00001d30 e7f4 1110011111110100 b.n  1d1c

00001d32 2102 0010000100000010 movs r1, #2  ; 0x02
00001d34 e7d9 1110011111011001 b.n  1cea

00001d36 210c 0010000100001100 movs r1, #12  ; 0x0c
00001d38 4820 0100100000100000 ldr  r0, [pc, #128] ; 0x0080
00001d3a f7ff 1111011111111111 (32-bit)
00001d3c fb63 1111101101100011 bl   1404

00001d3e 220c 0010001000001100 movs r2, #12  ; 0x0c
00001d40 4920 0100100100100000 ldr  r1, [pc, #128] ; 0x0080
00001d42 f000 1111000000000000 (32-bit)
00001d44 fc7d 1111110001111101 bl   2640

00001d46 e7e9 1110011111101001 b.n  1d1c

00001d48 2108 0010000100001000 movs r1, #8  ; 0x08
00001d4a 481c 0100100000011100 ldr  r0, [pc, #112] ; 0x0070
00001d4c f7ff 1111011111111111 (32-bit)
00001d4e fb5a 1111101101011010 bl   1404

00001d50 2208 0010001000001000 movs r2, #8  ; 0x08
00001d52 491d 0100100100011101 ldr  r1, [pc, #116] ; 0x0074
00001d54 e7f5 1110011111110101 b.n  1d42

00001d56 2112 0010000100010010 movs r1, #18  ; 0x12
00001d58 4818 0100100000011000 ldr  r0, [pc, #96] ; 0x0060
00001d5a f7ff 1111011111111111 (32-bit)
00001d5c fb53 1111101101010011 bl   1404

00001d5e 0021 0000000000100001 movs r1, r4
00001d60 2212 0010001000010010 movs r2, #18  ; 0x12
00001d62 310d 0011000100001101 adds r1, #13  ; 0x0d
00001d64 f000 1111000000000000 (32-bit)
00001d66 fc6c 1111110001101100 bl   2640

00001d68 73e7 0111001111100111 strb r7, [r4, #15]
00001d6a 7667 0111011001100111 strb r7, [r4, #25]
00001d6c 76a7 0111011010100111 strb r7, [r4, #26]
00001d6e e7d5 1110011111010101 b.n  1d1c

00001d70 1de2 0001110111100010 adds r2, r4, #7   ;0x7
00001d72 7fd2 0111111111010010 strb r2, [r2, #31]
00001d74 2a00 0010101000000000 cmp r2, #0  ; 0x00
00001d76 d0ac 1101000010101100 beq.n 1dd2 ; PC + 92

00001d78 2201 0010001000000001 movs r2, #1  ; 0x01
00001d7a 7322 0111001100100010 strb r2, [r4, #12]
00001d7c 1892 0001100010010010 adds r2, r2, r2
00001d7e 73e2 0111001111100010 strb r2, [r4, #15]
00001d80 3238 0011001000111000 adds r2, #56  ; 0x38
00001d82 7662 0111011001100010 strb r2, [r4, #25]
00001d84 76a3 0111011010100011 strb r3, [r4, #26]
00001d86 e7a4 1110011110100100 b.n  1cd2

00001d88 2203 0010001000000011 movs r2, #3  ; 0x03
00001d8a 7ceb 0111110011101011 ldrb r3, [r5, #19]
00001d8c 4013 0100000000010011 ands  r3, r2
00001d8e 2b02 0010101100000010 cmp r3, #2  ; 0x02
00001d90 d19f 1101000110011111 bne.n 1dd2 ; PC + 66

00001d92 3407 0011010000000111 adds r4, #7  ; 0x07
00001d94 3b01 0011101100000001 subs r3, #1  ; 0x01
00001d96 77e3 0111011111100011 strb r3, [r4, #31]
00001d98 e79b 1110011110011011 b.n  1cd2

00001d9a 4c08 0100110000001000 ldr  r4, [pc, #32] ; 0x0020
00001d9c 2103 0010000100000011 movs r1, #3  ; 0x03
00001d9e 0020 0000000000100000 movs r0, r4
00001da0 f7fe 1111011111111110 (32-bit)
00001da2 fd1c 1111110100011100 bl   7dc

00001da4 0020 0000000000100000 movs r0, r4
00001da6 2103 0010000100000011 movs r1, #3  ; 0x03
00001da8 302c 0011000000101100 adds r0, #44  ; 0x2c
00001daa f7fe 1111011111111110 (32-bit)
00001dac fd17 1111110100010111 bl   7dc

00001dae e79f 1110011110011111 b.n  1cf0

00001db0 .word 43425355
00001db4 .word 50100a7c
00001db8 .word 53425355
00001dbc .word 50100dc0
00001dc0 .word 00003f40
00001dc4 .word 00003e0b
00001dc8 .word 00003e03

00001dce 4b09 0100101100001001 ldr  r3, [pc, #36] ; 0x0024
00001dd0 4c09 0100110000001001 ldr  r4, [pc, #36] ; 0x0024
00001dd2 6a5a 0110101001011010 ldr  r2, [r3, #36] ; 0x24
00001dd4 3229 0011001000101001 adds r2, #41  ; 0x29
00001dd6 7812 0111100000010010 ldrb r2, [r2, #0]
00001dd8 2a00 0010101000000000 cmp r2, #0  ; 0x00
00001dda d100 1101000100000000 bne.n 1dde ; PC + 4

00001ddc 4c07 0100110000000111 ldr  r4, [pc, #28] ; 0x001c
00001dde 4a08 0100101000001000 ldr  r2, [pc, #32] ; 0x0020
00001de0 6811 0110100000010001 ldr  r1, [r2, #0] ; 0x0
00001de2 1c48 0001110001001000 adds r0, r1, #1   ;0x1
00001de4 6ad9 0110101011011001 ldr  r1, [r3, #44] ; 0x2c
00001de6 6010 0110000000010000 str  r0, [r2, #0] ; 0x0
00001de8 1c4a 0001110001001010 adds r2, r1, #1   ;0x1
00001dea 62da 0110001011011010 str  r2, [r3, #44] ; 0x2c imm5
00001dec 4a05 0100101000000101 ldr  r2, [pc, #20] ; 0x0014
00001dee 47a0 0100011110100000 blx  r4

00001df0 bd10 1011110100010000 pop {r4, pc}
00001df2 46c0 0100011011000000 nop  ; (mov  r8, r8)

00001df4 .word 50100a4c
00001df8 .word 00001031
00001dfc .word 000011b9
00001e00 .word 50100a20
00001e04 .word 50100b1c

00001e08 b5f7 1011010111110111 push {r0, r1, r2, r4, r5, r6, r7, lr}
00001e0a 4baa 0100101110101010 ldr  r3, [pc, #680] ; 0x02a8
00001e0c 681b 0110100000011011 ldr  r3, [r3, #0] ; 0x0
00001e0e 9301 1001001100000001 str r1, [sp, #12]
00001e10 03db 0000001111011011 lsls  r3, r3, #15
00001e12 d400 1101010000000000 bmi.n 1e16 ; PC + 4

00001e14 e088 1110000010001000 b.n  1f28

00001e16 f3bf 1111001110111111 (32-bit)
00001e18 8f5f 1000111101011111 To be implemented

00001e1a 4fa7 0100111110100111 ldr  r7, [pc, #668] ; 0x029c
00001e1c 2100 0010000100000000 movs r1, #0  ; 0x00
00001e1e 0038 0000000000111000 movs r0, r7
00001e20 2401 0010010000000001 movs r4, #1  ; 0x01
00001e22 f7fe 1111011111111110 (32-bit)
00001e24 fdc3 1111110111000011 bl   9ac

00001e26 4ea5 0100111010100101 ldr  r6, [pc, #660] ; 0x0294
00001e28 2100 0010000100000000 movs r1, #0  ; 0x00
00001e2a 0030 0000000000110000 movs r0, r6
00001e2c f7fe 1111011111111110 (32-bit)
00001e2e fdbe 1111110110111110 bl   9ac

00001e30 211f 0010000100011111 movs r1, #31  ; 0x1f
00001e32 1cb3 0001110010110011 adds r3, r6, #2   ;0x2
00001e34 77dc 0111011111011100 strb r4, [r3, #31]
00001e36 4aa2 0100101010100010 ldr  r2, [pc, #648] ; 0x0288
00001e38 1cbb 0001110010111011 adds r3, r7, #2   ;0x2
00001e3a 77dc 0111011111011100 strb r4, [r3, #31]
00001e3c 7813 0111100000010011 ldrb r3, [r2, #0]
00001e3e 0015 0000000000010101 movs r5, r2
00001e40 4019 0100000000011001 ands  r1, r3
00001e42 42a1 0100001010100001 cmp  r1, r4
00001e44 d100 1101000100000000 bne.n 1e48 ; PC + 4

00001e46 e0a2 1110000010100010 b.n  1f8e

00001e48 2902 0010100100000010 cmp r1, #2  ; 0x02
00001e4a d100 1101000100000000 bne.n 1e4e ; PC + 4

00001e4c e0ca 1110000011001010 b.n  1fe4

00001e4e 2900 0010100100000000 cmp r1, #0  ; 0x00
00001e50 d157 1101000101010111 bne.n 1e02 ; PC + -78

00001e52 3160 0011000101100000 adds r1, #96  ; 0x60
00001e54 420b 0100001000001011 tst  r3, r1
00001e56 d154 1101000101010100 bne.n 1e02 ; PC + -84

00001e58 b25b 1011001001011011 sxtb
00001e5a 2b00 0010101100000000 cmp r3, #0  ; 0x00
00001e5c da4c 1101101001001100 bge.n 1df8 ; PC + -100

00001e5e 0038 0000000000111000 movs r0, r7
00001e60 f7fe 1111011111111110 (32-bit)
00001e62 fb9c 1111101110011100 bl   59c

00001e64 786b 0111100001101011 ldrb r3, [r5, #1]
00001e66 0007 0000000000000111 movs r7, r0
00001e68 6806 0110100000000110 ldr  r6, [r0, #0] ; 0x0
00001e6a 2b06 0010101100000110 cmp r3, #6  ; 0x06
00001e6c d00d 1101000000001101 beq.n 1e8a ; PC + 30

00001e6e 2b08 0010101100001000 cmp r3, #8  ; 0x08
00001e70 d03e 1101000000111110 beq.n 1ef0 ; PC + 128

00001e72 2b00 0010101100000000 cmp r3, #0  ; 0x00
00001e74 d145 1101000101000101 bne.n 1e02 ; PC + -114

00001e76 8033 1000000000110011 strh r3, [r6, #0]
00001e78 1924 0001100100100100 adds r4, r4, r4
00001e7a 88eb 1000100011101011 ldrh r3, [r5, #6] ; 0x6
00001e7c 42a3 0100001010100011 cmp  r3, r4
00001e7e dd00 1101110100000000 ble.n 1e82 ; PC + 4

00001e80 0023 0000000000100011 movs r3, r4
00001e82 713b 0111000100111011 ldrb r3, [r7, #4]
00001e84 f7fe 1111011111111110 (32-bit)
00001e86 fc76 1111110001110110 bl   774

00001e88 e04a 1110000001001010 b.n  1f20

00001e8a 8868 1000100001101000 ldrh r0, [r5, #2] ; 0x2
00001e8c 0a03 0000101000000011 lsrs  r3, r0, #8
00001e8e 2b02 0010101100000010 cmp r3, #2  ; 0x02
00001e90 d00d 1101000000001101 beq.n 1eae ; PC + 30

00001e92 2b03 0010101100000011 cmp r3, #3  ; 0x03
00001e94 d016 1101000000010110 beq.n 1ec4 ; PC + 48

00001e96 2b01 0010101100000001 cmp r3, #1  ; 0x01
00001e98 d133 1101000100110011 bne.n 1f02 ; PC + 106

00001e9a 4b8a 0100101110001010 ldr  r3, [pc, #552] ; 0x0228
00001e9c 2412 0010010000010010 movs r4, #18  ; 0x12
00001e9e 6819 0110100000011001 ldr  r1, [r3, #0] ; 0x0
00001ea0 2900 0010100100000000 cmp r1, #0  ; 0x00
00001ea2 d0ea 1101000011101010 beq.n 1e7a ; PC + -40

00001ea4 0022 0000000000100010 movs r2, r4
00001ea6 0030 0000000000110000 movs r0, r6
00001ea8 f000 1111000000000000 (32-bit)
00001eaa fbca 1111101111001010 bl   2640

00001eac e7e5 1110011111100101 b.n  1e7a

00001eae b2c0 1011001011000000 uxtb
00001eb0 2800 0010100000000000 cmp r0, #0  ; 0x00
00001eb2 d126 1101000100100110 bne.n 1f02 ; PC + 80

00001eb4 4b83 0100101110000011 ldr  r3, [pc, #524] ; 0x020c
00001eb6 68d9 0110100011011001 ldr  r1, [r3, #12] ; 0xc
00001eb8 78cc 0111100011001100 ldrb r4, [r1, #3]
00001eba 788b 0111100010001011 ldrb r3, [r1, #2]
00001ebc 0224 0000001000100100 lsls  r4, r4, #8
00001ebe 431c 0100001100011100 orrs  r4, r3
00001ec0 d0db 1101000011011011 beq.n 1e7a ; PC + -70

00001ec2 e7ef 1110011111101111 b.n  1ea4

00001ec4 b2c0 1011001011000000 uxtb
00001ec6 2800 0010100000000000 cmp r0, #0  ; 0x00
00001ec8 d00f 1101000000001111 beq.n 1eea ; PC + 34

00001eca 4b7e 0100101101111110 ldr  r3, [pc, #504] ; 0x01f8
00001ecc 2402 0010010000000010 movs r4, #2  ; 0x02
00001ece 689b 0110100010011011 ldr  r3, [r3, #8] ; 0x8
00001ed0 4798 0100011110011000 blx  r3

00001ed2 3001 0011000000000001 adds r0, #1  ; 0x01
00001ed4 1e43 0001111001000011 subs  r3, r0, #1   ;0x1
00001ed6 781b 0111100000011011 ldrb r3, [r3, #0]
00001ed8 2b00 0010101100000000 cmp r3, #0  ; 0x00
00001eda d103 1101000100000011 bne.n 1ee4 ; PC + 10

00001edc 3303 0011001100000011 adds r3, #3  ; 0x03
00001ede 7034 0111000000110100 ldrb r4, [r6, #0]
00001ee0 7073 0111000001110011 ldrb r3, [r6, #1]
00001ee2 e7ca 1110011111001010 b.n  1e7a

00001ee4 5333 0101001100110011 strh r3, [r6, r4]
00001ee6 3402 0011010000000010 adds r4, #2  ; 0x02
00001ee8 e7f3 1110011111110011 b.n  1ed2

00001eea 2404 0010010000000100 movs r4, #4  ; 0x04
00001eec 4976 0100100101110110 ldr  r1, [pc, #472] ; 0x01d8
00001eee e7d9 1110011111011001 b.n  1ea4

00001ef0 4b74 0100101101110100 ldr  r3, [pc, #464] ; 0x01d0
00001ef2 7d5b 0111110101011011 ldrb r3, [r3, #21]
00001ef4 7033 0111000000110011 ldrb r3, [r6, #0]
00001ef6 e7c0 1110011111000000 b.n  1e7a

00001ef8 7853 0111100001010011 ldrb r3, [r2, #1]
00001efa 2b05 0010101100000101 cmp r3, #5  ; 0x05
00001efc d004 1101000000000100 beq.n 1f08 ; PC + 12

00001efe 2b09 0010101100001001 cmp r3, #9  ; 0x09
00001f00 d038 1101000000111000 beq.n 1f74 ; PC + 116

00001f02 f7fe 1111011111111110 (32-bit)
00001f04 fd3d 1111110100111101 bl   980

00001f06 e00b 1110000000001011 b.n  1f20

00001f08 2302 0010001100000010 movs r3, #2  ; 0x02
00001f0a 56d3 0101011011010011 ldrsb r3, [r2, r3]
00001f0c 8851 1000100001010001 ldrh r1, [r2, #2] ; 0x2
00001f0e 2b00 0010101100000000 cmp r3, #0  ; 0x00
00001f10 ddf7 1101110111110111 ble.n 1f02 ; PC + -14

00001f12 4b6c 0100101101101100 ldr  r3, [pc, #432] ; 0x01b0
00001f14 0038 0000000000111000 movs r0, r7
00001f16 7599 0111010110011001 ldrb r1, [r3, #22]
00001f18 4a6c 0100101001101100 ldr  r2, [pc, #432] ; 0x01b0
00001f1a 496d 0100100101101101 ldr  r1, [pc, #436] ; 0x01b4
00001f1c f7fe 1111011111111110 (32-bit)
00001f1e fbfc 1111101111111100 bl   718

00001f20 2280 0010001010000000 movs r2, #128  ; 0x80
00001f22 4b6c 0100101101101100 ldr  r3, [pc, #432] ; 0x01b0
00001f24 0292 0000001010010010 lsls  r2, r2, #10
00001f26 651a 0110010100011010 str  r2, [r3, #80] ; 0x50
00001f28 9b01 1001101100000001 ldr r3, [sp, #4]
00001f2a 06db 0000011011011011 lsls  r3, r3, #27
00001f2c d50a 1101010100001010 bpl.n 1f44 ; PC + 24

00001f2e 2600 0010011000000000 movs r6, #0  ; 0x00
00001f30 2401 0010010000000001 movs r4, #1  ; 0x01
00001f32 4f69 0100111101101001 ldr  r7, [pc, #420] ; 0x01a4
00001f34 6dbd 0110110110111101 ldr  r5, [r7, #88] ; 0x58
00001f36 2d00 0010110100000000 cmp r5, #0  ; 0x00
00001f38 d004 1101000000000100 beq.n 1f44 ; PC + 12

00001f3a 2e0a 0010111000001010 cmp r6, #10  ; 0x0a
00001f3c d000 1101000000000000 beq.n 1f40 ; PC + 4

00001f3e e082 1110000010000010 b.n  2046

00001f40 4b64 0100101101100100 ldr  r3, [pc, #400] ; 0x0190
00001f42 659d 0110010110011101 str  r5, [r3, #88] ; 0x58
00001f44 9b01 1001101100000001 ldr r3, [sp, #4]
00001f46 04db 0000010011011011 lsls  r3, r3, #19
00001f48 d505 1101010100000101 bpl.n 1f56 ; PC + 14

00001f4a f7fe 1111011111111110 (32-bit)
00001f4c ffbf 1111111110111111 bl   ecc

00001f4e 2280 0010001010000000 movs r2, #128  ; 0x80
00001f50 4b60 0100101101100000 ldr  r3, [pc, #384] ; 0x0180
00001f52 0312 0000001100010010 lsls  r2, r2, #12
00001f54 651a 0110010100011010 str  r2, [r3, #80] ; 0x50
00001f56 23f8 0010001111111000 movs r3, #248  ; 0xf8
00001f58 9a01 1001101000000001 ldr r2, [sp, #4]
00001f5a 009b 0000000010011011 lsls  r3, r3, #2
00001f5c 421a 0100001000011010 tst  r2, r3
00001f5e d008 1101000000001000 beq.n 1f72 ; PC + 20

00001f60 4b5d 0100101101011101 ldr  r3, [pc, #372] ; 0x0174
00001f62 6d1b 0110110100011011 ldr  r3, [r3, #80] ; 0x50
00001f64 2b00 0010101100000000 cmp r3, #0  ; 0x00
00001f66 db00 1101101100000000 blt.n 1f6a ; PC + 4

00001f68 e07e 1110000001111110 b.n  2068

00001f6a 2280 0010001010000000 movs r2, #128  ; 0x80
00001f6c 4b59 0100101101011001 ldr  r3, [pc, #356] ; 0x0164
00001f6e 0612 0000011000010010 lsls  r2, r2, #24
00001f70 651a 0110010100011010 str  r2, [r3, #80] ; 0x50
00001f72 bdf7 1011110111110111 pop {r0, r1, r2, r4, r5, r6, r7, pc}
00001f74 7890 0111100010010000 ldrb r0, [r2, #2]
00001f76 2800 0010100000000000 cmp r0, #0  ; 0x00
00001f78 d004 1101000000000100 beq.n 1f84 ; PC + 12

00001f7a 4b52 0100101101010010 ldr  r3, [pc, #328] ; 0x0148
00001f7c 68db 0110100011011011 ldr  r3, [r3, #12] ; 0xc
00001f7e 795b 0111100101011011 ldrb r3, [r3, #5]
00001f80 4283 0100001010000011 cmp  r3, r0
00001f82 d1be 1101000110111110 bne.n 2002 ; PC + 128

00001f84 f7fe 1111011111111110 (32-bit)
00001f86 ff86 1111111110000110 bl   e94

00001f88 f7fe 1111011111111110 (32-bit)
00001f8a fbdc 1111101111011100 bl   744

00001f8c e7c8 1110011111001000 b.n  1f20

00001f8e 8893 1000100010010011 ldrh r3, [r2, #4] ; 0x4
00001f90 4a4c 0100101001001100 ldr  r2, [pc, #304] ; 0x0130
00001f92 7d51 0111110101010001 ldrb r1, [r2, #21]
00001f94 2900 0010100100000000 cmp r1, #0  ; 0x00
00001f96 d0b4 1101000010110100 beq.n 2002 ; PC + 108

00001f98 21fe 0010000111111110 movs r1, #254  ; 0xfe
00001f9a 420b 0100001000001011 tst  r3, r1
00001f9c d1b1 1101000110110001 bne.n 2002 ; PC + 102

00001f9e 6912 0110100100010010 ldr  r2, [r2, #16] ; 0x10
00001fa0 b2db 1011001011011011 uxtb
00001fa2 009b 0000000010011011 lsls  r3, r3, #2
00001fa4 5898 0101100010011000 ldr r0, [r3, r2]
00001fa6 2800 0010100000000000 cmp r0, #0  ; 0x00
00001fa8 d0ab 1101000010101011 beq.n 2002 ; PC + 90

00001faa 6843 0110100001000011 ldr  r3, [r0, #4] ; 0x4
00001fac 2b00 0010101100000000 cmp r3, #0  ; 0x00
00001fae d114 1101000100010100 bne.n 1fda ; PC + 44

00001fb0 2260 0010001001100000 movs r2, #96  ; 0x60
00001fb2 782b 0111100000101011 ldrb r3, [r5, #0]
00001fb4 4213 0100001000010011 tst  r3, r2
00001fb6 d1a4 1101000110100100 bne.n 2002 ; PC + 76

00001fb8 88aa 1000100010101010 ldrh r2, [r5, #4] ; 0x4
00001fba 0a12 0000101000010010 lsrs  r2, r2, #8
00001fbc d1a1 1101000110100001 bne.n 2002 ; PC + 70

00001fbe b25b 1011001001011011 sxtb
00001fc0 2b00 0010101100000000 cmp r3, #0  ; 0x00
00001fc2 da9e 1101101010011110 bge.n 2002 ; PC + 64

00001fc4 786c 0111100001101100 ldrb r4, [r5, #1]
00001fc6 2c00 0010110000000000 cmp r4, #0  ; 0x00
00001fc8 d19b 1101000110011011 bne.n 2002 ; PC + 58

00001fca 0038 0000000000111000 movs r0, r7
00001fcc f7fe 1111011111111110 (32-bit)
00001fce fae6 1111101011100110 bl   59c

00001fd0 6803 0110100000000011 ldr  r3, [r0, #0] ; 0x0
00001fd2 601c 0110000000011100 str  r4, [r3, #0] ; 0x0
00001fd4 2302 0010001100000010 movs r3, #2  ; 0x02
00001fd6 7103 0111000100000011 ldrb r3, [r0, #4]
00001fd8 e754 1110011101010100 b.n  1e84

00001fda 0029 0000000000101001 movs r1, r5
00001fdc 4798 0100011110011000 blx  r3

00001fde 2800 0010100000000000 cmp r0, #0  ; 0x00
00001fe0 d19e 1101000110011110 bne.n 2020 ; PC + 64

00001fe2 e7e5 1110011111100101 b.n  1fb0

00001fe4 8892 1000100010010010 ldrh r2, [r2, #4] ; 0x4
00001fe6 2a00 0010101000000000 cmp r2, #0  ; 0x00
00001fe8 d041 1101000001000001 beq.n 1f6e ; PC + -122

00001fea 2a80 0010101010000000 cmp r2, #128  ; 0x80
00001fec d060 1101000001100000 beq.n 1fb0 ; PC + -60

00001fee 4935 0100100100110101 ldr  r1, [pc, #212] ; 0x00d4
00001ff0 7d49 0111110101001001 ldrb r1, [r1, #21]
00001ff2 2900 0010100100000000 cmp r1, #0  ; 0x00
00001ff4 d100 1101000100000000 bne.n 1ff8 ; PC + 4

00001ff6 e784 1110011110000100 b.n  1f02

00001ff8 4938 0100100100111000 ldr  r1, [pc, #224] ; 0x00e0
00001ffa 00a0 0000000010100000 lsls  r0, r4, #2
00001ffc 5840 0101100001000000 ldr r0, [r0, r1]
00001ffe 6806 0110100000000110 ldr  r6, [r0, #0] ; 0x0
00002000 78b6 0111100010110110 ldrb r6, [r6, #2]
00002002 42b2 0100001010110010 cmp  r2, r6
00002004 d034 1101000000110100 beq.n 2070 ; PC + 108

00002006 3401 0011010000000001 adds r4, #1  ; 0x01
00002008 2c05 0010110000000101 cmp r4, #5  ; 0x05
0000200a d1f6 1101000111110110 bne.n 1ffa ; PC + -16

0000200c e779 1110011101111001 b.n  1f02

0000200e 7869 0111100001101001 ldrb r1, [r5, #1]
00002010 2901 0010100100000001 cmp r1, #1  ; 0x01
00002012 d00a 1101000000001010 beq.n 202a ; PC + 24

00002014 2903 0010100100000011 cmp r1, #3  ; 0x03
00002016 d000 1101000000000000 beq.n 201a ; PC + 4

00002018 e773 1110011101110011 b.n  1f02

0000201a 886b 1000100001101011 ldrh r3, [r5, #2] ; 0x2
0000201c 2b00 0010101100000000 cmp r3, #0  ; 0x00
0000201e d000 1101000000000000 beq.n 2022 ; PC + 4

00002020 e76f 1110011101101111 b.n  1f02

00002022 2102 0010000100000010 movs r1, #2  ; 0x02
00002024 f7fe 1111011111111110 (32-bit)
00002026 fbda 1111101111011010 bl   7dc

00002028 e7ae 1110011110101110 b.n  1f88

0000202a 886b 1000100001101011 ldrh r3, [r5, #2] ; 0x2
0000202c 2b00 0010101100000000 cmp r3, #0  ; 0x00
0000202e d000 1101000000000000 beq.n 2032 ; PC + 4

00002030 e767 1110011101100111 b.n  1f02

00002032 1dc2 0001110111000010 adds r2, r0, #7   ;0x7
00002034 7fd2 0111111111010010 strb r2, [r2, #31]
00002036 2a02 0010101000000010 cmp r2, #2  ; 0x02
00002038 d802 1101100000000010 bhi.n 2040 ; PC + 8

0000203a f7fe 1111011111111110 (32-bit)
0000203c fcb7 1111110010110111 bl   9ac

0000203e e7a3 1110011110100011 b.n  1f88

00002040 3002 0011000000000010 adds r0, #2  ; 0x02
00002042 77c3 0111011111000011 strb r3, [r0, #31]
00002044 e7a0 1110011110100000 b.n  1f88

00002046 422c 0100001000101100 tst  r4, r5
00002048 d00b 1101000000001011 beq.n 2062 ; PC + 26

0000204a 2101 0010000100000001 movs r1, #1  ; 0x01
0000204c 6dfa 0110110111111010 ldr  r2, [r7, #92] ; 0x5c
0000204e 4b21 0100101100100001 ldr  r3, [pc, #132] ; 0x0084
00002050 4022 0100000000100010 ands  r2, r4
00002052 659c 0110010110011100 str  r4, [r3, #88] ; 0x58
00002054 0870 0000100001110000 lsrs  r0, r6, #1
00002056 1e53 0001111001010011 subs  r3, r2, #1   ;0x1
00002058 419a 0100000110011010 sbc  r2, r3
0000205a 43b1 0100001110110001 bics  r1, r6

0000205c f7fe 1111011111111110 (32-bit)
0000205e fbe6 1111101111100110 bl   82c

00002060 43a5 0100001110100101 bics  r5, r4

00002062 0064 0000000001100100 lsls  r4, r4, #1
00002064 3601 0011011000000001 adds r6, #1  ; 0x01
00002066 e766 1110011101100110 b.n  1f36

00002068 f7fe 1111011111111110 (32-bit)
0000206a ff30 1111111100110000 bl   ecc

0000206c e781 1110011110000001 b.n  1f72

0000206e 0030 0000000000110000 movs r0, r6
00002070 2260 0010001001100000 movs r2, #96  ; 0x60
00002072 4213 0100001000010011 tst  r3, r2
00002074 d000 1101000000000000 beq.n 2078 ; PC + 4

00002076 e744 1110011101000100 b.n  1f02

00002078 b25b 1011001001011011 sxtb
0000207a 2b00 0010101100000000 cmp r3, #0  ; 0x00
0000207c dac7 1101101011000111 bge.n 200e ; PC + -110

0000207e 786b 0111100001101011 ldrb r3, [r5, #1]
00002080 2b00 0010101100000000 cmp r3, #0  ; 0x00
00002082 d000 1101000000000000 beq.n 2086 ; PC + 4

00002084 e73d 1110011100111101 b.n  1f02

00002086 886b 1000100001101011 ldrh r3, [r5, #2] ; 0x2
00002088 2b00 0010101100000000 cmp r3, #0  ; 0x00
0000208a d000 1101000000000000 beq.n 208e ; PC + 4

0000208c e739 1110011100111001 b.n  1f02

0000208e 88ec 1000100011101100 ldrh r4, [r5, #6] ; 0x6
00002090 2c02 0010110000000010 cmp r4, #2  ; 0x02
00002092 d000 1101000000000000 beq.n 2096 ; PC + 4

00002094 e735 1110011100110101 b.n  1f02

00002096 2501 0010010100000001 movs r5, #1  ; 0x01
00002098 3007 0011000000000111 adds r0, #7  ; 0x07
0000209a 7fc3 0111111111000011 strb r3, [r0, #31]
0000209c 0038 0000000000111000 movs r0, r7
0000209e 429d 0100001010011101 cmp  r5, r3
000020a0 41ad 0100000110101101 sbc  r5, r5
000020a2 f7fe 1111011111111110 (32-bit)
000020a4 fa7b 1111101001111011 bl   59c

000020a6 6803 0110100000000011 ldr  r3, [r0, #0] ; 0x0
000020a8 426d 0100001001101101 rsb  r5, r5
000020aa 601d 0110000000011101 str  r5, [r3, #0] ; 0x0
000020ac 7104 0111000100000100 ldrb r4, [r0, #4]
000020ae e6e9 1110011011101001 b.n  1e84

000020b0 0038 0000000000111000 movs r0, r7
000020b2 e7dd 1110011111011101 b.n  2070

000020b4 .word 50110098
000020b8 .word 50100f68
000020bc .word 50100f94
000020c0 .word 50100000
000020c4 .word 501009ec
000020c8 .word 00003f32
000020cc .word 0000045d
000020d0 .word 501009c4
000020d4 .word 50113000
000020d8 .word 50110000
000020dc .word 50100a08

000020e0 b510 1011010100010000 push {r4, lr}
000020e2 f7fe 1111011111111110 (32-bit)
000020e4 fbdd 1111101111011101 bl   8a0

000020e6 bd10 1011110100010000 pop {r4, pc}
000020e8 b5f8 1011010111111000 push {r3, r4, r5, r6, r7, lr}
000020ea 4a1a 0100101000011010 ldr  r2, [pc, #104] ; 0x0068
000020ec 4b1a 0100101100011010 ldr  r3, [pc, #104] ; 0x0068
000020ee 601a 0110000000011010 str  r2, [r3, #0] ; 0x0
000020f0 f3ef 1111001111101111 (32-bit)
000020f2 8510 1000010100010000 To be implemented

000020f4 b672 1011011001110010 cps
000020f6 f3bf 1111001110111111 (32-bit)
000020f8 8f5f 1000111101011111 To be implemented

000020fa 4c18 0100110000011000 ldr  r4, [pc, #96] ; 0x0060
000020fc 0027 0000000000100111 movs r7, r4
000020fe 3728 0011011100101000 adds r7, #40  ; 0x28
00002100 783b 0111100000111011 ldrb r3, [r7, #0]
00002102 b2de 1011001011011110 uxtb
00002104 2b00 0010101100000000 cmp r3, #0  ; 0x00
00002106 d113 1101000100010011 bne.n 2130 ; PC + 42

00002108 f385 1111001110000101 (32-bit)
0000210a 8810 1000100000010000 msr ASPR, r5

0000210c f3ef 1111001111101111 (32-bit)
0000210e 8510 1000010100010000 To be implemented

00002110 b672 1011011001110010 cps
00002112 f3bf 1111001110111111 (32-bit)
00002114 8f5f 1000111101011111 To be implemented

00002116 4c12 0100110000010010 ldr  r4, [pc, #72] ; 0x0048
00002118 0027 0000000000100111 movs r7, r4
0000211a 3728 0011011100101000 adds r7, #40  ; 0x28
0000211c 783b 0111100000111011 ldrb r3, [r7, #0]
0000211e 2b00 0010101100000000 cmp r3, #0  ; 0x00
00002120 d013 1101000000010011 beq.n 214a ; PC + 42

00002122 2228 0010001000101000 movs r2, #40  ; 0x28
00002124 0021 0000000000100001 movs r1, r4
00002126 480f 0100100000001111 ldr  r0, [pc, #60] ; 0x003c
00002128 f000 1111000000000000 (32-bit)
0000212a fa8a 1111101010001010 bl   2640

0000212c 703e 0111000000111110 ldrb r6, [r7, #0]
0000212e e006 1110000000000110 b.n  213e

00002130 2228 0010001000101000 movs r2, #40  ; 0x28
00002132 0021 0000000000100001 movs r1, r4
00002134 480b 0100100000001011 ldr  r0, [pc, #44] ; 0x002c
00002136 f000 1111000000000000 (32-bit)
00002138 fa83 1111101010000011 bl   2640

0000213a 2300 0010001100000000 movs r3, #0  ; 0x00
0000213c 703b 0111000000111011 ldrb r3, [r7, #0]
0000213e f385 1111001110000101 (32-bit)
00002140 8810 1000100000010000 msr ASPR, r5

00002142 0020 0000000000100000 movs r0, r4
00002144 f7fe 1111011111111110 (32-bit)
00002146 fd4a 1111110101001010 bl   bdc

00002148 e7d2 1110011111010010 b.n  20f0

0000214a f385 1111001110000101 (32-bit)
0000214c 8810 1000100000010000 msr ASPR, r5

0000214e bf20 1011111100100000 wfe
00002150 e7ce 1110011111001110 b.n  20f0

00002152 46c0 0100011011000000 nop  ; (mov  r8, r8)

00002154 .word 00003ecc
00002158 .word 50100dbc
0000215c .word 50100fc0
00002160 .word 50100e84
00002164 .word 50100d8c

00002168 b5f7 1011010111110111 push {r0, r1, r2, r4, r5, r6, r7, lr}
0000216a 9001 1001000000000001 str r0, [sp, #4]
0000216c f7fe 1111011111111110 (32-bit)
0000216e fa16 1111101000010110 bl   59c

00002170 7903 0111100100000011 ldrb r3, [r0, #4]
00002172 2b20 0010101100100000 cmp r3, #32  ; 0x20
00002174 d000 1101000000000000 beq.n 2178 ; PC + 4

00002176 e09e 1110000010011110 b.n  22b6

00002178 6806 0110100000000110 ldr  r6, [r0, #0] ; 0x0
0000217a 4b53 0100101101010011 ldr  r3, [pc, #332] ; 0x014c
0000217c 6832 0110100000110010 ldr  r2, [r6, #0] ; 0x0
0000217e 429a 0100001010011010 cmp  r2, r3
00002180 d000 1101000000000000 beq.n 2184 ; PC + 4

00002182 e098 1110000010011000 b.n  22b6

00002184 4c51 0100110001010001 ldr  r4, [pc, #324] ; 0x0144
00002186 2128 0010000100101000 movs r1, #40  ; 0x28
00002188 0020 0000000000100000 movs r0, r4
0000218a 302c 0011000000101100 adds r0, #44  ; 0x2c
0000218c f7fe 1111011111111110 (32-bit)
0000218e feda 1111111011011010 bl   f44

00002190 4a4f 0100101001001111 ldr  r2, [pc, #316] ; 0x013c
00002192 6813 0110100000010011 ldr  r3, [r2, #0] ; 0x0
00002194 3b01 0011101100000001 subs r3, #1  ; 0x01
00002196 6013 0110000000010011 str  r3, [r2, #0] ; 0x0
00002198 6872 0110100001110010 ldr  r2, [r6, #4] ; 0x4
0000219a 62e3 0110001011100011 str  r3, [r4, #44] ; 0x2c imm5
0000219c 64e2 0110010011100010 str  r2, [r4, #76] ; 0x4c
0000219e 7a33 0111101000110011 strb r3, [r6, #8]
000021a0 9300 1001001100000000 str r0, [sp, #12]
000021a2 4b4c 0100101101001100 ldr  r3, [pc, #304] ; 0x0130
000021a4 9900 1001100100000000 ldr r1, [sp, #0]
000021a6 601a 0110000000011010 str  r2, [r3, #0] ; 0x0
000021a8 2200 0010001000000000 movs r2, #0  ; 0x00
000021aa 725a 0111001001011010 strb r2, [r3, #9]
000021ac 3201 0011001000000001 adds r2, #1  ; 0x01
000021ae 605a 0110000001011010 str  r2, [r3, #4] ; 0x4
000021b0 6932 0110100100110010 ldr  r2, [r6, #16] ; 0x10
000021b2 7219 0111001000011001 strb r1, [r3, #8]
000021b4 63e2 0110001111100010 str  r2, [r4, #60] ; 0x3c imm5
000021b6 63a2 0110001110100010 str  r2, [r4, #56] ; 0x38 imm5
000021b8 4694 0100011010010100 mov  ip, r2
000021ba 0022 0000000000100010 movs r2, r4
000021bc 6971 0110100101110001 ldr  r1, [r6, #20] ; 0x14
000021be 3251 0011001001010001 adds r2, #81  ; 0x51
000021c0 6421 0110010000100001 str  r1, [r4, #64] ; 0x40
000021c2 7c30 0111110000110000 ldrb r0, [r6, #16]
000021c4 7010 0111000000010000 ldrb r0, [r2, #0]
000021c6 227f 0010001001111111 movs r2, #127  ; 0x7f
000021c8 9800 1001100000000000 ldr r0, [sp, #0]
000021ca 4002 0100000000000010 ands  r2, r0
000021cc 1e50 0001111001010000 subs  r0, r2, #1   ;0x1
000021ce 2808 0010100000001000 cmp r0, #8  ; 0x08
000021d0 d900 1101100100000000 bls.n 21d4 ; PC + 4

000021d2 e070 1110000001110000 b.n  22b6

000021d4 2003 0010000000000011 movs r0, #3  ; 0x03
000021d6 4342 0100001101000010 muls  r2, r0
000021d8 483f 0100100000111111 ldr  r0, [pc, #252] ; 0x00fc
000021da 7a77 0111101001110111 strb r7, [r6, #9]
000021dc 5c85 0101110010000101 ldrb r5, [r0, r2]
000021de 42af 0100001010101111 cmp  r7, r5
000021e0 d161 1101000101100001 bne.n 21a6 ; PC + -58

000021e2 2500 0010010100000000 movs r5, #0  ; 0x00
000021e4 1880 0001100010000000 adds r0, r0, r2
000021e6 605d 0110000001011101 str  r5, [r3, #4] ; 0x4
000021e8 7843 0111100001000011 ldrb r3, [r0, #1]
000021ea 7840 0111100001000000 ldrb r0, [r0, #1]
000021ec 000d 0000000000001101 movs r5, r1
000021ee b240 1011001001000000 sxtb
000021f0 2800 0010100000000000 cmp r0, #0  ; 0x00
000021f2 db00 1101101100000000 blt.n 21f6 ; PC + 4

000021f4 001d 0000000000011101 movs r5, r3
000021f6 68f3 0110100011110011 ldr  r3, [r6, #12] ; 0xc
000021f8 42ab 0100001010101011 cmp  r3, r5
000021fa d156 1101000101010110 bne.n 21aa ; PC + -80

000021fc 4b36 0100101100110110 ldr  r3, [pc, #216] ; 0x00d8
000021fe 189a 0001100010011010 adds r2, r3, r2
00002200 9b00 1001101100000000 ldr r3, [sp, #0]
00002202 7897 0111100010010111 ldrb r7, [r2, #2]
00002204 2b02 0010101100000010 cmp r3, #2  ; 0x02
00002206 d109 1101000100001001 bne.n 221c ; PC + 22

00002208 4660 0100011001100000 mov  r0, ip
0000220a 69b2 0110100110110010 ldr  r2, [r6, #24] ; 0x18
0000220c f7fe 1111011111111110 (32-bit)
0000220e fbf6 1111101111110110 bl   9fc

00002210 f7fe 1111011111111110 (32-bit)
00002212 fc80 1111110010000000 bl   b14

00002214 9801 1001100000000001 ldr r0, [sp, #4]
00002216 f7fe 1111011111111110 (32-bit)
00002218 fb43 1111101101000011 bl   8a0

0000221a bdf7 1011110111110111 pop {r0, r1, r2, r4, r5, r6, r7, pc}
0000221c 2f00 0010111100000000 cmp r7, #0  ; 0x00
0000221e d047 1101000001000111 beq.n 21b0 ; PC + -110

00002220 0023 0000000000100011 movs r3, r4
00002222 3350 0011001101010000 adds r3, #80  ; 0x50
00002224 701f 0111000000011111 ldrb r7, [r3, #0]
00002226 0023 0000000000100011 movs r3, r4
00002228 2202 0010001000000010 movs r2, #2  ; 0x02
0000222a 2601 0010011000000001 movs r6, #1  ; 0x01
0000222c 3352 0011001101010010 adds r3, #82  ; 0x52
0000222e 701a 0111000000011010 ldrb r2, [r3, #0]
00002230 4b28 0100101100101000 ldr  r3, [pc, #160] ; 0x00a0
00002232 725e 0111001001011110 strb r6, [r3, #9]
00002234 2d00 0010110100000000 cmp r5, #0  ; 0x00
00002236 d028 1101000000101000 beq.n 228a ; PC + 84

00002238 4b28 0100101100101000 ldr  r3, [pc, #160] ; 0x00a0
0000223a 4a29 0100101000101001 ldr  r2, [pc, #164] ; 0x00a4
0000223c 6463 0110010001100011 str  r3, [r4, #68] ; 0x44
0000223e 6223 0110001000100011 str  r3, [r4, #32] ; 0x20 imm5
00002240 2380 0010001110000000 movs r3, #128  ; 0x80
00002242 005b 0000000001011011 lsls  r3, r3, #1
00002244 61e3 0110000111100011 str  r3, [r4, #28] ; 0x1c
00002246 2300 0010001100000000 movs r3, #0  ; 0x00
00002248 62a2 0110001010100010 str  r2, [r4, #40] ; 0x28 imm5
0000224a 6163 0110000101100011 str  r3, [r4, #20] ; 0x14
0000224c 4a25 0100101000100101 ldr  r2, [pc, #148] ; 0x0094
0000224e 61a5 0110000110100101 str  r5, [r4, #24] ; 0x18
00002250 0020 0000000000100000 movs r0, r4
00002252 4925 0100100100100101 ldr  r1, [pc, #148] ; 0x0094
00002254 f7fe 1111011111111110 (32-bit)
00002256 f90c 1111100100001100 bl   470

00002258 353f 0011010100111111 adds r5, #63  ; 0x3f
0000225a 68a3 0110100010100011 ldr  r3, [r4, #8] ; 0x8
0000225c 09ad 0000100110101101 lsrs  r5, r5, #6
0000225e 195b 0001100101011011 adds r3, r3, r5
00002260 60a3 0110000010100011 str  r3, [r4, #8] ; 0x8
00002262 68e3 0110100011100011 ldr  r3, [r4, #12] ; 0xc
00002264 003a 0000000000111010 movs r2, r7
00002266 195d 0001100101011101 adds r5, r3, r5
00002268 2308 0010001100001000 movs r3, #8  ; 0x08
0000226a 60e5 0110000011100101 str  r5, [r4, #12] ; 0xc
0000226c 401a 0100000000011010 ands  r2, r3
0000226e 421f 0100001000011111 tst  r7, r3
00002270 d003 1101000000000011 beq.n 227a ; PC + 10

00002272 4b1e 0100101100011110 ldr  r3, [pc, #120] ; 0x0078
00002274 6263 0110001001100011 str  r3, [r4, #36] ; 0x24 imm5
00002276 60dc 0110000011011100 str  r4, [r3, #12] ; 0xc
00002278 e7cc 1110011111001100 b.n  2214

0000227a 481d 0100100000011101 ldr  r0, [pc, #116] ; 0x0074
0000227c 74a6 0111010010100110 ldrb r6, [r4, #18]
0000227e 6260 0110001001100000 str  r0, [r4, #36] ; 0x24 imm5
00002280 6084 0110000010000100 str  r4, [r0, #8] ; 0x8
00002282 60c2 0110000011000010 str  r2, [r0, #12] ; 0xc
00002284 f7fe 1111011111111110 (32-bit)
00002286 f9f4 1111100111110100 bl   670

00002288 e7c4 1110011111000100 b.n  2214

0000228a 481a 0100100000011010 ldr  r0, [pc, #104] ; 0x0068
0000228c 0021 0000000000100001 movs r1, r4
0000228e 0005 0000000000000101 movs r5, r0
00002290 4b19 0100101100011001 ldr  r3, [pc, #100] ; 0x0064
00002292 3528 0011010100101000 adds r5, #40  ; 0x28
00002294 6363 0110001101100011 str  r3, [r4, #52] ; 0x34 imm5
00002296 2228 0010001000101000 movs r2, #40  ; 0x28
00002298 312c 0011000100101100 adds r1, #44  ; 0x2c
0000229a 782b 0111100000101011 ldrb r3, [r5, #0]
0000229c f000 1111000000000000 (32-bit)
0000229e f9d0 1111100111010000 bl   2640

000022a0 702e 0111000000101110 ldrb r6, [r5, #0]
000022a2 bf40 1011111101000000 sev
000022a4 e7b6 1110011110110110 b.n  2214

000022a6 2202 0010001000000010 movs r2, #2  ; 0x02
000022a8 e004 1110000000000100 b.n  22b4

000022aa 9b00 1001101100000000 ldr r3, [sp, #0]
000022ac 2b02 0010101100000010 cmp r3, #2  ; 0x02
000022ae d0ab 1101000010101011 beq.n 2308 ; PC + 90

000022b0 2203 0010001000000011 movs r2, #3  ; 0x03
000022b2 4b08 0100101100001000 ldr  r3, [pc, #32] ; 0x0020
000022b4 605a 0110000001011010 str  r2, [r3, #4] ; 0x4
000022b6 2102 0010000100000010 movs r1, #2  ; 0x02
000022b8 480d 0100100000001101 ldr  r0, [pc, #52] ; 0x0034
000022ba f7fe 1111011111111110 (32-bit)
000022bc fa8f 1111101010001111 bl   7dc

000022be 2102 0010000100000010 movs r1, #2  ; 0x02
000022c0 480a 0100100000001010 ldr  r0, [pc, #40] ; 0x0028
000022c2 f7fe 1111011111111110 (32-bit)
000022c4 fa8b 1111101010001011 bl   7dc

000022c6 e7a5 1110011110100101 b.n  2214

000022c8 .word 431fd10b
000022cc .word 50100ac8
000022d0 .word 50100eb0
000022d4 .word 50100ab8
000022d8 .word 00003eac
000022dc .word 501008c4
000022e0 .word 00003df0
000022e4 .word 00000b15
000022e8 .word 00003e17
000022ec .word 50100e58
000022f0 .word 50100e24
000022f4 .word 50100e84
000022f8 .word 00000b45

000022fc b570 1011010101110000 push {r4, r5, r6, lr}
000022fe 4c09 0100110000001001 ldr  r4, [pc, #36] ; 0x0024
00002300 4b09 0100101100001001 ldr  r3, [pc, #36] ; 0x0024
00002302 64a0 0110010010100000 str  r0, [r4, #72] ; 0x48
00002304 4809 0100100000001001 ldr  r0, [pc, #36] ; 0x0024
00002306 0021 0000000000100001 movs r1, r4
00002308 0005 0000000000000101 movs r5, r0
0000230a 6363 0110001101100011 str  r3, [r4, #52] ; 0x34 imm5
0000230c 3528 0011010100101000 adds r5, #40  ; 0x28
0000230e 2228 0010001000101000 movs r2, #40  ; 0x28
00002310 312c 0011000100101100 adds r1, #44  ; 0x2c
00002312 782b 0111100000101011 ldrb r3, [r5, #0]
00002314 f000 1111000000000000 (32-bit)
00002316 f994 1111100110010100 bl   2640

00002318 2001 0010000000000001 movs r0, #1  ; 0x01
0000231a 7028 0111000000101000 ldrb r0, [r5, #0]
0000231c bf40 1011111101000000 sev
0000231e 3453 0011010001010011 adds r4, #83  ; 0x53
00002320 7020 0111000000100000 ldrb r0, [r4, #0]
00002322 bd70 1011110101110000 pop {r4, r5, r6, pc}
00002324 .word 50100ac8
00002328 .word 00000e59
0000232c .word 50100e84

00002330 23c0 0010001111000000 movs r3, #192  ; 0xc0
00002332 2200 0010001000000000 movs r2, #0  ; 0x00
00002334 055b 0000010101011011 lsls  r3, r3, #21
00002336 609a 0110000010011010 str  r2, [r3, #8] ; 0x8
00002338 4a04 0100101000000100 ldr  r2, [pc, #16] ; 0x0010
0000233a 4905 0100100100000101 ldr  r1, [pc, #20] ; 0x0014
0000233c 601a 0110000000011010 str  r2, [r3, #0] ; 0x0
0000233e 001a 0000000000011010 movs r2, r3
00002340 32f4 0011001011110100 adds r2, #244  ; 0xf4
00002342 6011 0110000000010001 str  r1, [r2, #0] ; 0x0
00002344 2201 0010001000000001 movs r2, #1  ; 0x01
00002346 609a 0110000010011010 str  r2, [r3, #8] ; 0x8
00002348 4770 0100011101110000 bx lr

0000234a 46c0 0100011011000000 nop  ; (mov  r8, r8)

0000234c 0300 0000001100000000 lsls  r0, r0, #12
0000234e 001f 0000000000011111 movs r7, r3
00002350 0218 0000001000011000 lsls  r0, r3, #8
00002352 0300 0000001100000000 lsls  r0, r0, #12
00002354 b510 1011010100010000 push {r4, lr}
00002356 f7ff 1111011111111111 (32-bit)
00002358 ffeb 1111111111101011 bl   2330

0000235a 2000 0010000000000000 movs r0, #0  ; 0x00
0000235c bd10 1011110100010000 pop {r4, pc}
0000235e be00 1011111000000000 bkpt 0x0000

00002360 22a0 0010001010100000 movs r2, #160  ; 0xa0
00002362 2301 0010001100000001 movs r3, #1  ; 0x01
00002364 b510 1011010100010000 push {r4, lr}
00002366 0552 0000010101010010 lsls  r2, r2, #21
00002368 6053 0110000001010011 str  r3, [r2, #4] ; 0x4
0000236a 6852 0110100001010010 ldr  r2, [r2, #4] ; 0x4
0000236c 4a02 0100101000000010 ldr  r2, [pc, #8] ; 0x0008
0000236e 2000 0010000000000000 movs r0, #0  ; 0x00
00002370 6013 0110000000010011 str  r3, [r2, #0] ; 0x0
00002372 f7fe 1111011111111110 (32-bit)
00002374 fc0d 1111110000001101 bl   b90

00002376 bd10 1011110100010000 pop {r4, pc}
00002378 .word 14002000

0000237c b5f8 1011010111111000 push {r3, r4, r5, r6, r7, lr}
0000237e 0004 0000000000000100 movs r4, r0
00002380 0015 0000000000010101 movs r5, r2
00002382 001f 0000000000011111 movs r7, r3
00002384 1846 0001100001000110 adds r6, r0, r1
00002386 42b4 0100001010110100 cmp  r4, r6
00002388 d205 1101001000000101 bcs.n 2396 ; PC + 14

0000238a 22c0 0010001011000000 movs r2, #192  ; 0xc0
0000238c 4b0c 0100101100001100 ldr  r3, [pc, #48] ; 0x0030
0000238e 0292 0000001010010010 lsls  r2, r2, #10
00002390 681b 0110100000011011 ldr  r3, [r3, #0] ; 0x0
00002392 4213 0100001000010011 tst  r3, r2
00002394 d000 1101000000000000 beq.n 2398 ; PC + 4

00002396 bdf8 1011110111111000 pop {r3, r4, r5, r6, r7, pc}
00002398 1e6b 0001111001101011 subs  r3, r5, #1   ;0x1
0000239a 421c 0100001000011100 tst  r4, r3
0000239c d108 1101000100001000 bne.n 23b0 ; PC + 20

0000239e 1b33 0001101100110011 sub r3, r6, r4
000023a0 42ab 0100001010101011 cmp  r3, r5
000023a2 d305 1101001100000101 bcc.n 23b0 ; PC + 14

000023a4 0020 0000000000100000 movs r0, r4
000023a6 0039 0000000000111001 movs r1, r7
000023a8 f7ff 1111011111111111 (32-bit)
000023aa fa5e 1111101001011110 bl   1868

000023ac 1964 0001100101100100 adds r4, r4, r5
000023ae e7ea 1110011111101010 b.n  2386

000023b0 0020 0000000000100000 movs r0, r4
000023b2 2120 0010000100100000 movs r1, #32  ; 0x20
000023b4 f7ff 1111011111111111 (32-bit)
000023b6 fa58 1111101001011000 bl   1868

000023b8 2380 0010001110000000 movs r3, #128  ; 0x80
000023ba 015b 0000000101011011 lsls  r3, r3, #5
000023bc 18e4 0001100011100100 adds r4, r4, r3
000023be e7e2 1110011111100010 b.n  2386

000023c0 .word 4001801c

000023c4 b5f8 1011010111111000 push {r3, r4, r5, r6, r7, lr}
000023c6 0005 0000000000000101 movs r5, r0
000023c8 000f 0000000000001111 movs r7, r1
000023ca 0004 0000000000000100 movs r4, r0
000023cc 1886 0001100010000110 adds r6, r0, r2
000023ce 1b79 0001101101111001 sub r1, r7, r5
000023d0 1909 0001100100001001 adds r1, r1, r4
000023d2 42b4 0100001010110100 cmp  r4, r6
000023d4 d205 1101001000000101 bcs.n 23e2 ; PC + 14

000023d6 22c0 0010001011000000 movs r2, #192  ; 0xc0
000023d8 4b05 0100101100000101 ldr  r3, [pc, #20] ; 0x0014
000023da 0292 0000001010010010 lsls  r2, r2, #10
000023dc 681b 0110100000011011 ldr  r3, [r3, #0] ; 0x0
000023de 4213 0100001000010011 tst  r3, r2
000023e0 d000 1101000000000000 beq.n 23e4 ; PC + 4

000023e2 bdf8 1011110111111000 pop {r3, r4, r5, r6, r7, pc}
000023e4 0020 0000000000100000 movs r0, r4
000023e6 3401 0011010000000001 adds r4, #1  ; 0x01
000023e8 f7ff 1111011111111111 (32-bit)
000023ea fa59 1111101001011001 bl   189e

000023ec 34ff 0011010011111111 adds r4, #255  ; 0xff
000023ee e7ee 1110011111101110 b.n  23ce

000023f0 .word 4001801c

000023f4 2301 0010001100000001 movs r3, #1  ; 0x01
000023f6 b5f0 1011010111110000 push {r4, r5, r6, r7, lr}
000023f8 b085 1011000010000101 sub r0, sp, #532
000023fa 425b 0100001001011011 rsb  r3, r3
000023fc af03 1010111100000011 add r7, sp, #12 ; #c
000023fe 803b 1000000000111011 strh r3, [r7, #0]
00002400 23c0 0010001111000000 movs r3, #192  ; 0xc0
00002402 2200 0010001000000000 movs r2, #0  ; 0x00
00002404 055b 0000010101011011 lsls  r3, r3, #21
00002406 609a 0110000010011010 str  r2, [r3, #8] ; 0x8
00002408 6a9a 0110101010011010 ldr  r2, [r3, #40] ; 0x28
0000240a 6c9a 0110110010011010 ldr  r2, [r3, #72] ; 0x48
0000240c 2206 0010001000000110 movs r2, #6  ; 0x06
0000240e 615a 0110000101011010 str  r2, [r3, #20] ; 0x14
00002410 22e0 0010001011100000 movs r2, #224  ; 0xe0
00002412 02d2 0000001011010010 lsls  r2, r2, #11
00002414 601a 0110000000011010 str  r2, [r3, #0] ; 0x0
00002416 2201 0010001000000001 movs r2, #1  ; 0x01
00002418 4c1f 0100110000011111 ldr  r4, [pc, #124] ; 0x007c
0000241a 611a 0110000100011010 str  r2, [r3, #16] ; 0x10
0000241c 609a 0110000010011010 str  r2, [r3, #8] ; 0x8
0000241e 6826 0110100000100110 ldr  r6, [r4, #0] ; 0x0
00002420 238c 0010001110001100 movs r3, #140  ; 0x8c
00002422 0032 0000000000110010 movs r2, r6
00002424 2584 0010010110000100 movs r5, #132  ; 0x84
00002426 439a 0100001110011010 bics  r2, r3

00002428 2003 0010000000000011 movs r0, #3  ; 0x03
0000242a 4315 0100001100010101 orrs  r5, r2
0000242c f7fe 1111011111111110 (32-bit)
0000242e fbb0 1111101110110000 bl   b90

00002430 2302 0010001100000010 movs r3, #2  ; 0x02
00002432 9301 1001001100000001 str r1, [sp, #12]
00002434 2380 0010001110000000 movs r3, #128  ; 0x80
00002436 6025 0110000000100101 str  r5, [r4, #0] ; 0x0
00002438 011b 0000000100011011 lsls  r3, r3, #4
0000243a 6065 0110000001100101 str  r5, [r4, #4] ; 0x4
0000243c 60a5 0110000010100101 str  r5, [r4, #8] ; 0x8
0000243e 60e5 0110000011100101 str  r5, [r4, #12] ; 0xc
00002440 3b01 0011101100000001 subs r3, #1  ; 0x01
00002442 d1fd 1101000111111101 bne.n 2440 ; PC + -2

00002444 2300 0010001100000000 movs r3, #0  ; 0x00
00002446 2204 0010001000000100 movs r2, #4  ; 0x04
00002448 0019 0000000000011001 movs r1, r3
0000244a 0018 0000000000011000 movs r0, r3
0000244c f7ff 1111011111111111 (32-bit)
0000244e f994 1111100110010100 bl   1778

00002450 230c 0010001100001100 movs r3, #12  ; 0x0c
00002452 2108 0010000100001000 movs r1, #8  ; 0x08
00002454 439d 0100001110011101 bics  r5, r3

00002456 2002 0010000000000010 movs r0, #2  ; 0x02
00002458 430d 0100001100001101 orrs  r5, r1
0000245a f7fe 1111011111111110 (32-bit)
0000245c fb99 1111101110011001 bl   b90

0000245e 9901 1001100100000001 ldr r1, [sp, #4]
00002460 2901 0010100100000001 cmp r1, #1  ; 0x01
00002462 d116 1101000100010110 bne.n 2492 ; PC + 48

00002464 220c 0010001000001100 movs r2, #12  ; 0x0c
00002466 6026 0110000000100110 str  r6, [r4, #0] ; 0x0
00002468 6066 0110000001100110 str  r6, [r4, #4] ; 0x4
0000246a 4396 0100001110010110 bics  r6, r2

0000246c 0033 0000000000110011 movs r3, r6
0000246e 2608 0010011000001000 movs r6, #8  ; 0x08
00002470 431e 0100001100011110 orrs  r6, r3
00002472 60a6 0110000010100110 str  r6, [r4, #8] ; 0x8
00002474 2002 0010000000000010 movs r0, #2  ; 0x02
00002476 60e6 0110000011100110 str  r6, [r4, #12] ; 0xc
00002478 f7fe 1111011111111110 (32-bit)
0000247a fb8a 1111101110001010 bl   b90

0000247c 2300 0010001100000000 movs r3, #0  ; 0x00
0000247e 2202 0010001000000010 movs r2, #2  ; 0x02
00002480 0019 0000000000011001 movs r1, r3
00002482 0038 0000000000111000 movs r0, r7
00002484 f7ff 1111011111111111 (32-bit)
00002486 f978 1111100101111000 bl   1778

00002488 2200 0010001000000000 movs r2, #0  ; 0x00
0000248a 4b04 0100101100000100 ldr  r3, [pc, #16] ; 0x0010
0000248c 601a 0110000000011010 str  r2, [r3, #0] ; 0x0
0000248e b005 1011000000000101 add r0, sp, #20
00002490 bdf0 1011110111110000 pop {r4, r5, r6, r7, pc}
00002492 2301 0010001100000001 movs r3, #1  ; 0x01
00002494 e7cd 1110011111001101 b.n  2432

00002496 46c0 0100011011000000 nop  ; (mov  r8, r8)

00002498 .word 40020008
0000249c .word 4001800c

000024a0 2090 0010000010010000 movs r0, #144  ; 0x90
000024a2 4b07 0100101100000111 ldr  r3, [pc, #28] ; 0x001c
000024a4 0080 0000000010000000 lsls  r0, r0, #2
000024a6 b510 1011010100010000 push {r4, lr}
000024a8 6018 0110000000011000 str  r0, [r3, #0] ; 0x0
000024aa f7fe 1111011111111110 (32-bit)
000024ac fb8b 1111101110001011 bl   bc4

000024ae 2200 0010001000000000 movs r2, #0  ; 0x00
000024b0 4b04 0100101100000100 ldr  r3, [pc, #16] ; 0x0010
000024b2 605a 0110000001011010 str  r2, [r3, #4] ; 0x4
000024b4 60da 0110000011011010 str  r2, [r3, #12] ; 0xc
000024b6 615a 0110000101011010 str  r2, [r3, #20] ; 0x14
000024b8 61da 0110000111011010 str  r2, [r3, #28] ; 0x1c
000024ba 625a 0110001001011010 str  r2, [r3, #36] ; 0x24 imm5
000024bc 62da 0110001011011010 str  r2, [r3, #44] ; 0x2c imm5
000024be bd10 1011110100010000 pop {r4, pc}
000024c0 .word 4000e000
000024c4 .word 40018000

000024c8 b510 1011010100010000 push {r4, lr}
000024ca f7ff 1111011111111111 (32-bit)
000024cc ffe9 1111111111101001 bl   24a0

000024ce f7ff 1111011111111111 (32-bit)
000024d0 ff91 1111111110010001 bl   23f4

000024d2 4b04 0100101100000100 ldr  r3, [pc, #16] ; 0x0010
000024d4 681b 0110100000011011 ldr  r3, [r3, #0] ; 0x0
000024d6 2b00 0010101100000000 cmp r3, #0  ; 0x00
000024d8 d001 1101000000000001 beq.n 24de ; PC + 6

000024da f7fe 1111011111111110 (32-bit)
000024dc fd0d 1111110100001101 bl   ef8

000024de 2000 0010000000000000 movs r0, #0  ; 0x00
000024e0 bd10 1011110100010000 pop {r4, pc}
000024e2 46c0 0100011011000000 nop  ; (mov  r8, r8)

000024e4 .word 50100f64

000024e8 b5f8 1011010111111000 push {r3, r4, r5, r6, r7, lr}
000024ea 4a2b 0100101000101011 ldr  r2, [pc, #172] ; 0x00ac
000024ec 4b2b 0100101100101011 ldr  r3, [pc, #172] ; 0x00ac
000024ee 6013 0110000000010011 str  r3, [r2, #0] ; 0x0
000024f0 4a2b 0100101000101011 ldr  r2, [pc, #172] ; 0x00ac
000024f2 6013 0110000000010011 str  r3, [r2, #0] ; 0x0
000024f4 2202 0010001000000010 movs r2, #2  ; 0x02
000024f6 4b2b 0100101100101011 ldr  r3, [pc, #172] ; 0x00ac
000024f8 681b 0110100000011011 ldr  r3, [r3, #0] ; 0x0
000024fa 4213 0100001000010011 tst  r3, r2
000024fc d008 1101000000001000 beq.n 2510 ; PC + 20

000024fe 2105 0010000100000101 movs r1, #5  ; 0x05
00002500 4b29 0100101100101001 ldr  r3, [pc, #164] ; 0x00a4
00002502 6019 0110000000011001 str  r1, [r3, #0] ; 0x0
00002504 23d0 0010001111010000 movs r3, #208  ; 0xd0
00002506 061b 0000011000011011 lsls  r3, r3, #24
00002508 631a 0110001100011010 str  r2, [r3, #48] ; 0x30 imm5
0000250a 641a 0110010000011010 str  r2, [r3, #64] ; 0x40
0000250c 2200 0010001000000000 movs r2, #0  ; 0x00
0000250e 641a 0110010000011010 str  r2, [r3, #64] ; 0x40
00002510 23c8 0010001111001000 movs r3, #200  ; 0xc8
00002512 005b 0000000001011011 lsls  r3, r3, #1
00002514 3b01 0011101100000001 subs r3, #1  ; 0x01
00002516 d1fd 1101000111111101 bne.n 2514 ; PC + -2

00002518 20d0 0010000011010000 movs r0, #208  ; 0xd0
0000251a 2409 0010010000001001 movs r4, #9  ; 0x09
0000251c 2200 0010001000000000 movs r2, #0  ; 0x00
0000251e 2504 0010010100000100 movs r5, #4  ; 0x04
00002520 2101 0010000100000001 movs r1, #1  ; 0x01
00002522 0600 0000011000000000 lsls  r0, r0, #24
00002524 002b 0000000000101011 movs r3, r5
00002526 3b01 0011101100000001 subs r3, #1  ; 0x01
00002528 d1fd 1101000111111101 bne.n 2526 ; PC + -2

0000252a 6883 0110100010000011 ldr  r3, [r0, #8] ; 0x8
0000252c 3c01 0011110000000001 subs r4, #1  ; 0x01
0000252e 085b 0000100001011011 lsrs  r3, r3, #1
00002530 400b 0100000000001011 ands  r3, r1
00002532 18d2 0001100011010010 adds r2, r2, r3
00002534 2c00 0010110000000000 cmp r4, #0  ; 0x00
00002536 d1f5 1101000111110101 bne.n 2524 ; PC + -18

00002538 2a04 0010101000000100 cmp r2, #4  ; 0x04
0000253a d923 1101100100100011 bls.n 2584 ; PC + 74

0000253c 26c0 0010011011000000 movs r6, #192  ; 0xc0
0000253e f7ff 1111011111111111 (32-bit)
00002540 ffaf 1111111110101111 bl   24a0

00002542 f7ff 1111011111111111 (32-bit)
00002544 ff57 1111111101010111 bl   23f4

00002546 0576 0000010101110110 lsls  r6, r6, #21
00002548 2700 0010011100000000 movs r7, #0  ; 0x00
0000254a 22c0 0010001011000000 movs r2, #192  ; 0xc0
0000254c 60b7 0110000010110111 str  r7, [r6, #8] ; 0x8
0000254e 6833 0110100000110011 ldr  r3, [r6, #0] ; 0x0
00002550 4d16 0100110100010110 ldr  r5, [pc, #88] ; 0x0058
00002552 4393 0100001110010011 bics  r3, r2

00002554 b2e2 1011001011100010 uxtb
00002556 4313 0100001100010011 orrs  r3, r2
00002558 6033 0110000000110011 str  r3, [r6, #0] ; 0x0
0000255a 2301 0010001100000001 movs r3, #1  ; 0x01
0000255c 0029 0000000000101001 movs r1, r5
0000255e 60b3 0110000010110011 str  r3, [r6, #8] ; 0x8
00002560 0038 0000000000111000 movs r0, r7
00002562 f7ff 1111011111111111 (32-bit)
00002564 f93d 1111100100111101 bl   17e0

00002566 2201 0010001000000001 movs r2, #1  ; 0x01
00002568 21fc 0010000111111100 movs r1, #252  ; 0xfc
0000256a 0028 0000000000101000 movs r0, r5
0000256c 4252 0100001001010010 rsb  r2, r2
0000256e f000 1111000000000000 (32-bit)
00002570 f833 1111100000110011 bl   25d8

00002572 4b0f 0100101100001111 ldr  r3, [pc, #60] ; 0x003c
00002574 681b 0110100000011011 ldr  r3, [r3, #0] ; 0x0
00002576 4298 0100001010011000 cmp  r0, r3
00002578 d008 1101000000001000 beq.n 258c ; PC + 20

0000257a 2380 0010001110000000 movs r3, #128  ; 0x80
0000257c 3440 0011010001000000 adds r4, #64  ; 0x40
0000257e 019b 0000000110011011 lsls  r3, r3, #6
00002580 429c 0100001010011100 cmp  r4, r3
00002582 d1e1 1101000111100001 bne.n 2548 ; PC + -58

00002584 2100 0010000100000000 movs r1, #0  ; 0x00
00002586 0008 0000000000001000 movs r0, r1
00002588 f7ff 1111011111111111 (32-bit)
0000258a f9a4 1111100110100100 bl   18d4

0000258c f7ff 1111011111111111 (32-bit)
0000258e fee8 1111111011101000 bl   2360

00002590 3501 0011010100000001 adds r5, #1  ; 0x01
00002592 46be 0100011010111110 mov  lr, r7
00002594 4728 0100011100101000 bx r5

00002596 46c0 0100011011000000 nop  ; (mov  r8, r8)

00002598 .word 4000e000
0000259c .word 00200240
000025a0 .word 4000f000
000025a4 .word 4006c000
000025a8 .word 4001800c
000025ac .word 20041f00
000025b0 .word 20041ffc

000025b4 4b05 0100101100000101 ldr  r3, [pc, #20] ; 0x0014
000025b6 b510 1011010100010000 push {r4, lr}
000025b8 220a 0010001000001010 movs r2, #10  ; 0x0a
000025ba 60d8 0110000011011000 str  r0, [r3, #12] ; 0xc
000025bc 6119 0110000100011001 str  r1, [r3, #16] ; 0x10
000025be 4804 0100100000000100 ldr  r0, [pc, #16] ; 0x0010
000025c0 4904 0100100100000100 ldr  r1, [pc, #16] ; 0x0010
000025c2 f7fe 1111011111111110 (32-bit)
000025c4 fa1b 1111101000011011 bl   9fc

000025c6 bf30 1011111100110000 wfi
000025c8 e7fd 1110011111111101 b.n  25c6

000025ca 46c0 0100011011000000 nop  ; (mov  r8, r8)

000025cc .word 40058000
000025d0 .word 00001b99
000025d4 .word 20042000

000025d8 b530 1011010100110000 push {r4, r5, lr}
000025da 1809 0001100000001001 adds r1, r1, r0
000025dc 4d5d 0100110101011101 ldr  r5, [pc, #372] ; 0x0174
000025de e00c 1110000000001100 b.n  25fa

000025e0 7804 0111100000000100 ldrb r4, [r0, #0]
000025e2 ba13 1011101000010011 rev r3, r2
000025e4 405c 0100000001011100 eors  r4, r3
000025e6 0624 0000011000100100 lsls  r4, r4, #24
000025e8 2308 0010001100001000 movs r3, #8  ; 0x08
000025ea 0064 0000000001100100 lsls  r4, r4, #1
000025ec d300 1101001100000000 bcc.n 25f0 ; PC + 4

000025ee 406c 0100000001101100 eors  r4, r5
000025f0 3b01 0011101100000001 subs r3, #1  ; 0x01
000025f2 d1fa 1101000111111010 bne.n 25ea ; PC + -8

000025f4 0212 0000001000010010 lsls  r2, r2, #8
000025f6 4062 0100000001100010 eors  r2, r4
000025f8 3001 0011000000000001 adds r0, #1  ; 0x01
000025fa 4288 0100001010001000 cmp  r0, r1
000025fc dbf0 1101101111110000 blt.n 25e0 ; PC + -28

000025fe 1c10 0001110000010000 adds r0, r2, #0   ;0x0
00002600 bd30 1011110100110000 pop {r4, r5, pc}
00002602 b530 1011010100110000 push {r4, r5, lr}
00002604 4249 0100001001001001 rsb  r1, r1
00002606 5c43 0101110001000011 ldrb r3, [r0, r1]
00002608 3201 0011001000000001 adds r2, #1  ; 0x01
0000260a 0a1c 0000101000011100 lsrs  r4, r3, #8
0000260c 41ad 0100000110101101 sbc  r5, r5
0000260e d105 1101000100000101 bne.n 261c ; PC + 14

00002610 b25d 1011001001011101 sxtb
00002612 3101 0011000100000001 adds r1, #1  ; 0x01
00002614 5c44 0101110001000100 ldrb r4, [r0, r1]
00002616 41aa 0100000110101010 sbc  r2, r5
00002618 1b14 0001101100010100 sub r4, r2, r4
0000261a 5d63 0101110101100011 ldrb r3, [r4, r5]
0000261c 5553 0101010101010011 strb r3, [r2, r5]
0000261e 3501 0011010100000001 adds r5, #1  ; 0x01
00002620 d1fb 1101000111111011 bne.n 261a ; PC + -6

00002622 3101 0011000100000001 adds r1, #1  ; 0x01
00002624 d1ef 1101000111101111 bne.n 2606 ; PC + -30

00002626 bd30 1011110100110000 pop {r4, r5, pc}
00002628 4684 0100011010000100 mov  ip, r0
0000262a 2a08 0010101000001000 cmp r2, #8  ; 0x08
0000262c d33a 1101001100111010 bcc.n 26a4 ; PC + 120

0000262e b470 1011010001110000 push {r4, r5, r6}
00002630 e01c 1110000000011100 b.n  266c

00002632 3a01 0011101000000001 subs r2, #1  ; 0x01
00002634 5c8b 0101110010001011 ldrb r3, [r1, r2]
00002636 5483 0101010010000011 strb r3, [r0, r2]
00002638 d1fb 1101000111111011 bne.n 2632 ; PC + -6

0000263a 4660 0100011001100000 mov  r0, ip
0000263c 4770 0100011101110000 bx lr

0000263e 46c0 0100011011000000 nop  ; (mov  r8, r8)

00002640 4684 0100011010000100 mov  ip, r0
00002642 2a08 0010101000001000 cmp r2, #8  ; 0x08
00002644 d32e 1101001100101110 bcc.n 26a4 ; PC + 96

00002646 1a43 0001101001000011 sub r3, r0, r1
00002648 079b 0000011110011011 lsls  r3, r3, #30
0000264a d1f2 1101000111110010 bne.n 2632 ; PC + -24

0000264c b470 1011010001110000 push {r4, r5, r6}
0000264e 1a09 0001101000001001 sub r1, r1, r0
00002650 1c05 0001110000000101 adds r5, r0, #0   ;0x0
00002652 0843 0000100001000011 lsrs  r3, r0, #1
00002654 d302 1101001100000010 bcc.n 265c ; PC + 8

00002656 5c44 0101110001000100 ldrb r4, [r0, r1]
00002658 7004 0111000000000100 ldrb r4, [r0, #0]
0000265a 3001 0011000000000001 adds r0, #1  ; 0x01
0000265c 0883 0000100010000011 lsrs  r3, r0, #2
0000265e d302 1101001100000010 bcc.n 2666 ; PC + 8

00002660 5a44 0101101001000100 ldrh r4, [r0, r1]
00002662 8004 1000000000000100 strh r4, [r0, #0]
00002664 3002 0011000000000010 adds r0, #2  ; 0x02
00002666 1809 0001100000001001 adds r1, r1, r0
00002668 1a2d 0001101000101101 sub r5, r5, r0
0000266a 1952 0001100101010010 adds r2, r2, r5
0000266c 3a10 0011101000010000 subs r2, #16  ; 0x10
0000266e d303 1101001100000011 bcc.n 2678 ; PC + 10

00002670 c978 1100100101111000 ldmia r1!, {r3, r4, r5, r6}
00002672 c078 1100000001111000 stmia r0!, {r3, r4, r5, r6}
00002674 3a10 0011101000010000 subs r2, #16  ; 0x10
00002676 d2fb 1101001011111011 bcs.n 2670 ; PC + -6

00002678 0752 0000011101010010 lsls  r2, r2, #29
0000267a d301 1101001100000001 bcc.n 2680 ; PC + 6

0000267c c918 1100100100011000 ldmia r1!, {r3, r4}
0000267e c018 1100000000011000 stmia r0!, {r3, r4}
00002680 0052 0000000001010010 lsls  r2, r2, #1
00002682 d301 1101001100000001 bcc.n 2688 ; PC + 6

00002684 c908 1100100100001000 ldmia r1!, {r3}
00002686 c008 1100000000001000 stmia r0!, {r3}
00002688 d009 1101000000001001 beq.n 269e ; PC + 22

0000268a 0052 0000000001010010 lsls  r2, r2, #1
0000268c d304 1101001100000100 bcc.n 2698 ; PC + 12

0000268e 880b 1000100000001011 ldrh r3, [r1, #0] ; 0x0
00002690 8003 1000000000000011 strh r3, [r0, #0]
00002692 d004 1101000000000100 beq.n 269e ; PC + 12

00002694 3102 0011000100000010 adds r1, #2  ; 0x02
00002696 3002 0011000000000010 adds r0, #2  ; 0x02
00002698 d001 1101000000000001 beq.n 269e ; PC + 6

0000269a 780b 0111100000001011 ldrb r3, [r1, #0]
0000269c 7003 0111000000000011 ldrb r3, [r0, #0]
0000269e bc70 1011110001110000 pop {r4, r5, r6}
000026a0 4660 0100011001100000 mov  r0, ip
000026a2 4770 0100011101110000 bx lr

000026a4 a309 1010001100001001 add r3, pc, #36
000026a6 0092 0000000010010010 lsls  r2, r2, #2
000026a8 1a9b 0001101010011011 sub r3, r3, r2
000026aa 3301 0011001100000001 adds r3, #1  ; 0x01
000026ac 4718 0100011100011000 bx r3

000026ae 46c0 0100011011000000 nop  ; (mov  r8, r8)

000026b0 798b 0111100110001011 ldrb r3, [r1, #6]
000026b2 7183 0111000110000011 ldrb r3, [r0, #6]
000026b4 794b 0111100101001011 ldrb r3, [r1, #5]
000026b6 7143 0111000101000011 ldrb r3, [r0, #5]
000026b8 790b 0111100100001011 ldrb r3, [r1, #4]
000026ba 7103 0111000100000011 ldrb r3, [r0, #4]
000026bc 78cb 0111100011001011 ldrb r3, [r1, #3]
000026be 70c3 0111000011000011 ldrb r3, [r0, #3]
000026c0 788b 0111100010001011 ldrb r3, [r1, #2]
000026c2 7083 0111000010000011 ldrb r3, [r0, #2]
000026c4 784b 0111100001001011 ldrb r3, [r1, #1]
000026c6 7043 0111000001000011 ldrb r3, [r0, #1]
000026c8 780b 0111100000001011 ldrb r3, [r1, #0]
000026ca 7003 0111000000000011 ldrb r3, [r0, #0]
000026cc 4660 0100011001100000 mov  r0, ip
000026ce 4770 0100011101110000 bx lr

000026d0 4684 0100011010000100 mov  ip, r0
000026d2 b2c9 1011001011001001 uxtb
000026d4 020b 0000001000001011 lsls  r3, r1, #8
000026d6 4319 0100001100011001 orrs  r1, r3
000026d8 e011 1110000000010001 b.n  26fe

000026da 46c0 0100011011000000 nop  ; (mov  r8, r8)

000026dc 4684 0100011010000100 mov  ip, r0
000026de 2a08 0010101000001000 cmp r2, #8  ; 0x08
000026e0 d32a 1101001100101010 bcc.n 2738 ; PC + 88

000026e2 0843 0000100001000011 lsrs  r3, r0, #1
000026e4 d301 1101001100000001 bcc.n 26ea ; PC + 6

000026e6 7001 0111000000000001 ldrb r1, [r0, #0]
000026e8 3001 0011000000000001 adds r0, #1  ; 0x01
000026ea b2c9 1011001011001001 uxtb
000026ec 020b 0000001000001011 lsls  r3, r1, #8
000026ee 4319 0100001100011001 orrs  r1, r3
000026f0 0883 0000100010000011 lsrs  r3, r0, #2
000026f2 d301 1101001100000001 bcc.n 26f8 ; PC + 6

000026f4 8001 1000000000000001 strh r1, [r0, #0]
000026f6 3002 0011000000000010 adds r0, #2  ; 0x02
000026f8 4663 0100011001100011 mov  r3, ip
000026fa 1a1b 0001101000011011 sub r3, r3, r0
000026fc 18d2 0001100011010010 adds r2, r2, r3
000026fe ba0b 1011101000001011 rev r3, r1
00002700 4319 0100001100011001 orrs  r1, r3
00002702 1c0b 0001110000001011 adds r3, r1, #0   ;0x0
00002704 3a10 0011101000010000 subs r2, #16  ; 0x10
00002706 d307 1101001100000111 bcc.n 2718 ; PC + 18

00002708 b430 1011010000110000 push {r4, r5}
0000270a 1c0c 0001110000001100 adds r4, r1, #0   ;0x0
0000270c 1c0d 0001110000001101 adds r5, r1, #0   ;0x0
0000270e 46c0 0100011011000000 nop  ; (mov  r8, r8)

00002710 c03a 1100000000111010 stmia r0!, {r1, r3, r4, r5}
00002712 3a10 0011101000010000 subs r2, #16  ; 0x10
00002714 d2fc 1101001011111100 bcs.n 2710 ; PC + -4

00002716 bc30 1011110000110000 pop {r4, r5}
00002718 0752 0000011101010010 lsls  r2, r2, #29
0000271a d300 1101001100000000 bcc.n 271e ; PC + 4

0000271c c00a 1100000000001010 stmia r0!, {r1, r3}
0000271e 0052 0000000001010010 lsls  r2, r2, #1
00002720 d300 1101001100000000 bcc.n 2724 ; PC + 4

00002722 c002 1100000000000010 stmia r0!, {r1}
00002724 d006 1101000000000110 beq.n 2734 ; PC + 16

00002726 0052 0000000001010010 lsls  r2, r2, #1
00002728 d302 1101001100000010 bcc.n 2730 ; PC + 8

0000272a 8001 1000000000000001 strh r1, [r0, #0]
0000272c d002 1101000000000010 beq.n 2734 ; PC + 8

0000272e 3002 0011000000000010 adds r0, #2  ; 0x02
00002730 d000 1101000000000000 beq.n 2734 ; PC + 4

00002732 7001 0111000000000001 ldrb r1, [r0, #0]
00002734 4660 0100011001100000 mov  r0, ip
00002736 4770 0100011101110000 bx lr

00002738 a305 1010001100000101 add r3, pc, #20
0000273a 1a9b 0001101010011011 sub r3, r3, r2
0000273c 1a9b 0001101010011011 sub r3, r3, r2
0000273e 3301 0011001100000001 adds r3, #1  ; 0x01
00002740 4718 0100011100011000 bx r3

00002742 7181 0111000110000001 ldrb r1, [r0, #6]
00002744 7141 0111000101000001 ldrb r1, [r0, #5]
00002746 7101 0111000100000001 ldrb r1, [r0, #4]
00002748 70c1 0111000011000001 ldrb r1, [r0, #3]
0000274a 7081 0111000010000001 ldrb r1, [r0, #2]
0000274c 7041 0111000001000001 ldrb r1, [r0, #1]
0000274e 7001 0111000000000001 ldrb r1, [r0, #0]
00002750 4660 0100011001100000 mov  r0, ip
00002752 4770 0100011101110000 bx lr

00002754 .word 04c11db7

00002758 b505 1011010100000101 push {r0, r2, lr}
0000275a 4608 0100011000001000 mov  r0, r1
0000275c 461a 0100011000011010 mov  r2, r3
0000275e bd0a 1011110100001010 pop {r1, r3, pc}
00002760 0dc2 0000110111000010 lsrs  r2, r0, #23
00002762 0240 0000001001000000 lsls  r0, r0, #9
00002764 0a40 0000101001000000 lsrs  r0, r0, #9
00002766 2401 0010010000000001 movs r4, #1  ; 0x01
00002768 05e4 0000010111100100 lsls  r4, r4, #23
0000276a 4320 0100001100100000 orrs  r0, r4
0000276c 2aff 0010101011111111 cmp r2, #255  ; 0xff
0000276e b2d2 1011001011010010 uxtb
00002770 d900 1101100100000000 bls.n 2774 ; PC + 4

00002772 4240 0100001001000000 rsb  r0, r0
00002774 3a01 0011101000000001 subs r2, #1  ; 0x01
00002776 2afe 0010101011111110 cmp r2, #254  ; 0xfe
00002778 d201 1101001000000001 bcs.n 277e ; PC + 6

0000277a 3a7e 0011101001111110 subs r2, #126  ; 0x7e
0000277c 4770 0100011101110000 bx lr

0000277e 2800 0010100000000000 cmp r0, #0  ; 0x00
00002780 4620 0100011000100000 mov  r0, r4
00002782 d500 1101010100000000 bpl.n 2786 ; PC + 4

00002784 4240 0100001001000000 rsb  r0, r0
00002786 3a7e 0011101001111110 subs r2, #126  ; 0x7e
00002788 0092 0000000010010010 lsls  r2, r2, #2
0000278a 3280 0011001010000000 adds r2, #128  ; 0x80
0000278c 4770 0100011101110000 bx lr

0000278e 0fc4 0000111111000100 lsrs  r4, r0, #31
00002790 07e4 0000011111100100 lsls  r4, r4, #31
00002792 d504 1101010100000100 bpl.n 279e ; PC + 12

00002794 2d00 0010110100000000 cmp r5, #0  ; 0x00
00002796 d000 1101000000000000 beq.n 279a ; PC + 4

00002798 3001 0011000000000001 adds r0, #1  ; 0x01
0000279a 4240 0100001001000000 rsb  r0, r0
0000279c d403 1101010000000011 bmi.n 27a6 ; PC + 10

0000279e 3a01 0011101000000001 subs r2, #1  ; 0x01
000027a0 1800 0001100000000000 adds r0, r0, r0
000027a2 d012 1101000000010010 beq.n 27ca ; PC + 40

000027a4 d5fb 1101010111111011 bpl.n 279e ; PC + -6

000027a6 3281 0011001010000001 adds r2, #129  ; 0x81
000027a8 d101 1101000100000001 bne.n 27ae ; PC + 6

000027aa 3080 0011000010000000 adds r0, #128  ; 0x80
000027ac d205 1101001000000101 bcs.n 27ba ; PC + 14

000027ae 3080 0011000010000000 adds r0, #128  ; 0x80
000027b0 d203 1101001000000011 bcs.n 27ba ; PC + 10

000027b2 2d00 0010110100000000 cmp r5, #0  ; 0x00
000027b4 d00f 1101000000001111 beq.n 27d6 ; PC + 34

000027b6 0040 0000000001000000 lsls  r0, r0, #1
000027b8 3a01 0011101000000001 subs r2, #1  ; 0x01
000027ba 2afe 0010101011111110 cmp r2, #254  ; 0xfe
000027bc da06 1101101000000110 bge.n 27cc ; PC + 16

000027be 3201 0011001000000001 adds r2, #1  ; 0x01
000027c0 dd07 1101110100000111 ble.n 27d2 ; PC + 18

000027c2 0a40 0000101001000000 lsrs  r0, r0, #9
000027c4 05d2 0000010111010010 lsls  r2, r2, #23
000027c6 4310 0100001100010000 orrs  r0, r2
000027c8 4320 0100001100100000 orrs  r0, r4
000027ca 4770 0100011101110000 bx lr

000027cc 20ff 0010000011111111 movs r0, #255  ; 0xff
000027ce 05c0 0000010111000000 lsls  r0, r0, #23
000027d0 e7fa 1110011111111010 b.n  27c8

000027d2 2000 0010000000000000 movs r0, #0  ; 0x00
000027d4 4770 0100011101110000 bx lr

000027d6 0605 0000011000000101 lsls  r5, r0, #24
000027d8 d1ed 1101000111101101 bne.n 27b6 ; PC + -34

000027da 0a40 0000101001000000 lsrs  r0, r0, #9
000027dc 0280 0000001010000000 lsls  r0, r0, #10
000027de e7eb 1110011111101011 b.n  27b8

000027e0 b283 1011001010000011 uxth
000027e2 140c 0001010000001100 asr   r4, r1, #80
000027e4 4363 0100001101100011 muls  r3, r4
000027e6 1404 0001010000000100 asr   r4, r0, #80
000027e8 b28d 1011001010001101 uxth
000027ea 436c 0100001101101100 muls  r4, r5
000027ec 191b 0001100100011011 adds r3, r3, r4
000027ee b284 1011001010000100 uxth
000027f0 436c 0100001101101100 muls  r4, r5
000027f2 0425 0000010000100101 lsls  r5, r4, #16
000027f4 0c24 0000110000100100 lsrs  r4, r4, #16
000027f6 191b 0001100100011011 adds r3, r3, r4
000027f8 1400 0001010000000000 asr   r0, r0, #80
000027fa 1409 0001010000001001 asr   r1, r1, #80
000027fc 4348 0100001101001000 muls  r0, r1
000027fe 02c0 0000001011000000 lsls  r0, r0, #11
00002800 06d9 0000011011011001 lsls  r1, r3, #27
00002802 430d 0100001100001101 orrs  r5, r1
00002804 1159 0001000101011001 asr   r1, r3, #69
00002806 1840 0001100001000000 adds r0, r0, r1
00002808 4770 0100011101110000 bx lr

0000280a 0042 0000000001000010 lsls  r2, r0, #1
0000280c 0e12 0000111000010010 lsrs  r2, r2, #24
0000280e d001 1101000000000001 beq.n 2814 ; PC + 6

00002810 2aff 0010101011111111 cmp r2, #255  ; 0xff
00002812 d101 1101000100000001 bne.n 2818 ; PC + 6

00002814 0dc0 0000110111000000 lsrs  r0, r0, #23
00002816 05c0 0000010111000000 lsls  r0, r0, #23
00002818 004a 0000000001001010 lsls  r2, r1, #1
0000281a 0e12 0000111000010010 lsrs  r2, r2, #24
0000281c d001 1101000000000001 beq.n 2822 ; PC + 6

0000281e 2aff 0010101011111111 cmp r2, #255  ; 0xff
00002820 d101 1101000100000001 bne.n 2826 ; PC + 6

00002822 0dc9 0000110111001001 lsrs  r1, r1, #23
00002824 05c9 0000010111001001 lsls  r1, r1, #23
00002826 2201 0010001000000001 movs r2, #1  ; 0x01
00002828 4041 0100000001000001 eors  r1, r0
0000282a d409 1101010000001001 bmi.n 2840 ; PC + 22

0000282c 4041 0100000001000001 eors  r1, r0
0000282e d500 1101010100000000 bpl.n 2832 ; PC + 4

00002830 4252 0100001001010010 rsb  r2, r2
00002832 4288 0100001010001000 cmp  r0, r1
00002834 dc02 1101110000000010 bgt.n 283c ; PC + 8

00002836 db00 1101101100000000 blt.n 283a ; PC + 4

00002838 2200 0010001000000000 movs r2, #0  ; 0x00
0000283a 4252 0100001001010010 rsb  r2, r2
0000283c 1e10 0001111000010000 subs  r0, r2, #0   ;0x0
0000283e 4770 0100011101110000 bx lr

00002840 4301 0100001100000001 orrs  r1, r0
00002842 1849 0001100001001001 adds r1, r1, r1
00002844 d0f8 1101000011111000 beq.n 2838 ; PC + -12

00002846 2800 0010100000000000 cmp r0, #0  ; 0x00
00002848 daf8 1101101011111000 bge.n 283c ; PC + -12

0000284a e7f6 1110011111110110 b.n  283a

0000284c 2100 0010000100000000 movs r1, #0  ; 0x00
0000284e b510 1011010100010000 push {r4, lr}
00002850 f7ff 1111011111111111 (32-bit)
00002852 ff86 1111111110000110 bl   2760

00002854 0013 0000000000010011 movs r3, r2
00002856 3382 0011001110000010 adds r3, #130  ; 0x82
00002858 d410 1101010000010000 bmi.n 287c ; PC + 36

0000285a 440a 0100010000001010 adds r2, r1
0000285c 3a17 0011101000010111 subs r2, #23  ; 0x17
0000285e db07 1101101100000111 blt.n 2870 ; PC + 18

00002860 2a07 0010101000000111 cmp r2, #7  ; 0x07
00002862 dd19 1101110100011001 ble.n 2898 ; PC + 54

00002864 17c1 0001011111000001 asr   r1, r0, #95
00002866 43c9 0100001111001001 mvns  r1, r1
00002868 2001 0010000000000001 movs r0, #1  ; 0x01
0000286a 07c0 0000011111000000 lsls  r0, r0, #31
0000286c 4048 0100000001001000 eors  r0, r1
0000286e bd10 1011110100010000 pop {r4, pc}
00002870 4252 0100001001010010 rsb  r2, r2
00002872 2a20 0010101000100000 cmp r2, #32  ; 0x20
00002874 db00 1101101100000000 blt.n 2878 ; PC + 4

00002876 2220 0010001000100000 movs r2, #32  ; 0x20
00002878 4110 0100000100010000 ars  r0, r2
0000287a bd10 1011110100010000 pop {r4, pc}
0000287c 2000 0010000000000000 movs r0, #0  ; 0x00
0000287e bd10 1011110100010000 pop {r4, pc}
00002880 2100 0010000100000000 movs r1, #0  ; 0x00
00002882 b510 1011010100010000 push {r4, lr}
00002884 f7ff 1111011111111111 (32-bit)
00002886 ff6c 1111111101101100 bl   2760

00002888 440a 0100010000001010 adds r2, r1
0000288a 0001 0000000000000001 movs r1, r0
0000288c d4ee 1101010011101110 bmi.n 286c ; PC + -32

0000288e 3a17 0011101000010111 subs r2, #23  ; 0x17
00002890 dbee 1101101111101110 blt.n 2870 ; PC + -32

00002892 43c1 0100001111000001 mvns  r1, r0
00002894 2a08 0010101000001000 cmp r2, #8  ; 0x08
00002896 dce9 1101110011101001 bgt.n 286c ; PC + -42

00002898 4090 0100000010010000 lsl  r0, r2
0000289a bd10 1011110100010000 pop {r4, pc}
0000289c 2200 0010001000000000 movs r2, #0  ; 0x00
0000289e b530 1011010100110000 push {r4, r5, lr}
000028a0 2900 0010100100000000 cmp r1, #0  ; 0x00
000028a2 d506 1101010100000110 bpl.n 28b2 ; PC + 16

000028a4 07cd 0000011111001101 lsls  r5, r1, #31
000028a6 4305 0100001100000101 orrs  r5, r0
000028a8 0848 0000100001001000 lsrs  r0, r1, #1
000028aa 3a01 0011101000000001 subs r2, #1  ; 0x01
000028ac e010 1110000000010000 b.n  28d0

000028ae 2200 0010001000000000 movs r2, #0  ; 0x00
000028b0 b530 1011010100110000 push {r4, r5, lr}
000028b2 0005 0000000000000101 movs r5, r0
000028b4 430d 0100001100001101 orrs  r5, r1
000028b6 d015 1101000000010101 beq.n 28e4 ; PC + 46

000028b8 17cd 0001011111001101 asr   r5, r1, #95
000028ba 160c 0001011000001100 asr   r4, r1, #88
000028bc 42ac 0100001010101100 cmp  r4, r5
000028be d105 1101000100000101 bne.n 28cc ; PC + 14

000028c0 01c9 0000000111001001 lsls  r1, r1, #7
000028c2 0e44 0000111001000100 lsrs  r4, r0, #25
000028c4 4321 0100001100100001 orrs  r1, r4
000028c6 01c0 0000000111000000 lsls  r0, r0, #7
000028c8 3207 0011001000000111 adds r2, #7  ; 0x07
000028ca e7f6 1110011111110110 b.n  28ba

000028cc 0005 0000000000000101 movs r5, r0
000028ce 0008 0000000000001000 movs r0, r1
000028d0 4252 0100001001010010 rsb  r2, r2
000028d2 323d 0011001000111101 adds r2, #61  ; 0x3d
000028d4 e004 1110000000000100 b.n  28e0

000028d6 2100 0010000100000000 movs r1, #0  ; 0x00
000028d8 b530 1011010100110000 push {r4, r5, lr}
000028da 221d 0010001000011101 movs r2, #29  ; 0x1d
000028dc 1a52 0001101001010010 sub r2, r2, r1
000028de 2500 0010010100000000 movs r5, #0  ; 0x00
000028e0 f7ff 1111011111111111 (32-bit)
000028e2 ff55 1111111101010101 bl   278e

000028e4 bd30 1011110100110000 pop {r4, r5, pc}
000028e6 2100 0010000100000000 movs r1, #0  ; 0x00
000028e8 b530 1011010100110000 push {r4, r5, lr}
000028ea 2800 0010100000000000 cmp r0, #0  ; 0x00
000028ec daf5 1101101011110101 bge.n 28da ; PC + -18

000028ee 221e 0010001000011110 movs r2, #30  ; 0x1e
000028f0 1a52 0001101001010010 sub r2, r2, r1
000028f2 07c5 0000011111000101 lsls  r5, r0, #31
000028f4 0840 0000100001000000 lsrs  r0, r0, #1
000028f6 e7f3 1110011111110011 b.n  28e0

000028f8 2500 0010010100000000 movs r5, #0  ; 0x00
000028fa 46a4 0100011010100100 mov  ip, r4
000028fc e00d 1110000000001101 b.n  291a

000028fe 2900 0010100100000000 cmp r1, #0  ; 0x00
00002900 dc02 1101110000000010 bgt.n 2908 ; PC + 8

00002902 e005 1110000000000101 b.n  2910

00002904 2a00 0010101000000000 cmp r2, #0  ; 0x00
00002906 da03 1101101000000011 bge.n 2910 ; PC + 10

00002908 1b89 0001101110001001 sub r1, r1, r6
0000290a 427f 0100001001111111 rsb  r7, r7
0000290c 1912 0001100100010010 adds r2, r2, r4
0000290e e001 1110000000000001 b.n  2914

00002910 1989 0001100110001001 adds r1, r1, r6
00002912 1b12 0001101100010010 sub r2, r2, r4
00002914 4664 0100011001100100 mov  r4, ip
00002916 4367 0100001101100111 muls  r7, r4
00002918 1bc0 0001101111000000 sub r0, r0, r7
0000291a cb10 1100101100010000 ldmia r3!, {r4}
0000291c 0864 0000100001100100 lsrs  r4, r4, #1
0000291e d200 1101001000000000 bcs.n 2922 ; PC + 4

00002920 3501 0011010100000001 adds r5, #1  ; 0x01
00002922 4606 0100011000000110 mov  r6, r0
00002924 412e 0100000100101110 ars  r6, r5
00002926 460f 0100011000001111 mov  r7, r1
00002928 412f 0100000100101111 ars  r7, r5
0000292a 0864 0000100001100100 lsrs  r4, r4, #1
0000292c 4770 0100011101110000 bx lr

0000292e b5c0 1011010111000000 push {r6, r7, lr}
00002930 f7ff 1111011111111111 (32-bit)
00002932 ffe2 1111111111100010 bl   28f8

00002934 f7ff 1111011111111111 (32-bit)
00002936 ffe6 1111111111100110 bl   2904

00002938 d3fc 1101001111111100 bcc.n 2934 ; PC + -4

0000293a 1386 0001001110000110 asr   r6, r0, #78
0000293c 138f 0001001110001111 asr   r7, r1, #78
0000293e 10d2 0001000011010010 asr   r2, r2, #67
00002940 4356 0100001101010110 muls  r6, r2
00002942 4357 0100001101010111 muls  r7, r2
00002944 4664 0100011001100100 mov  r4, ip
00002946 4367 0100001101100111 muls  r7, r4
00002948 1336 0001001100110110 asr   r6, r6, #76
0000294a 133f 0001001100111111 asr   r7, r7, #76
0000294c 1bc0 0001101111000000 sub r0, r0, r7
0000294e 1989 0001100110001001 adds r1, r1, r6
00002950 bdc0 1011110111000000 pop {r6, r7, pc}
00002952 b5c0 1011010111000000 push {r6, r7, lr}
00002954 f7ff 1111011111111111 (32-bit)
00002956 ffd0 1111111111010000 bl   28f8

00002958 f7ff 1111011111111111 (32-bit)
0000295a ffd1 1111111111010001 bl   28fe

0000295c d3fc 1101001111111100 bcc.n 2958 ; PC + -4

0000295e 2900 0010100100000000 cmp r1, #0  ; 0x00
00002960 dc02 1101110000000010 bgt.n 2968 ; PC + 8

00002962 1989 0001100110001001 adds r1, r1, r6
00002964 1b12 0001101100010010 sub r2, r2, r4
00002966 e001 1110000000000001 b.n  296c

00002968 1b89 0001101110001001 sub r1, r1, r6
0000296a 1912 0001100100010010 adds r2, r2, r4
0000296c 1076 0001000001110110 asr   r6, r6, #65
0000296e 1064 0001000001100100 asr   r4, r4, #65
00002970 d1f5 1101000111110101 bne.n 295e ; PC + -18

00002972 e7ed 1110011111101101 b.n  2950

00002974 b530 1011010100110000 push {r4, r5, lr}
00002976 2118 0010000100011000 movs r1, #24  ; 0x18
00002978 f7ff 1111011111111111 (32-bit)
0000297a ff69 1111111101101001 bl   284e

0000297c 4c5d 0100110001011101 ldr  r4, [pc, #372] ; 0x0174
0000297e 0924 0000100100100100 lsrs  r4, r4, #4
00002980 1b00 0001101100000000 sub r0, r0, r4
00002982 dafd 1101101011111101 bge.n 2980 ; PC + -2

00002984 1900 0001100100000000 adds r0, r0, r4
00002986 d4fd 1101010011111101 bmi.n 2984 ; PC + -2

00002988 0082 0000000010000010 lsls  r2, r0, #2
0000298a 0065 0000000001100101 lsls  r5, r4, #1
0000298c 4853 0100100001010011 ldr  r0, [pc, #332] ; 0x014c
0000298e 2100 0010000100000000 movs r1, #0  ; 0x00
00002990 42a2 0100001010100010 cmp  r2, r4
00002992 db02 1101101100000010 blt.n 299a ; PC + 8

00002994 1b52 0001101101010010 sub r2, r2, r5
00002996 4240 0100001001000000 rsb  r0, r0
00002998 e7fa 1110011111111010 b.n  2990

0000299a 00d2 0000000011010010 lsls  r2, r2, #3
0000299c a355 1010001101010101 add r3, pc, #340
0000299e 2401 0010010000000001 movs r4, #1  ; 0x01
000029a0 f7ff 1111011111111111 (32-bit)
000029a2 ffc5 1111111111000101 bl   292e

000029a4 3109 0011000100001001 adds r1, #9  ; 0x09
000029a6 2200 0010001000000000 movs r2, #0  ; 0x00
000029a8 2300 0010001100000000 movs r3, #0  ; 0x00
000029aa 2500 0010010100000000 movs r5, #0  ; 0x00
000029ac f000 1111000000000000 (32-bit)
000029ae f80c 1111100000001100 bl   29c8

000029b0 f7ff 1111011111111111 (32-bit)
000029b2 feed 1111111011101101 bl   278e

000029b4 f7ff 1111011111111111 (32-bit)
000029b6 fed0 1111111011010000 bl   2758

000029b8 f000 1111000000000000 (32-bit)
000029ba f806 1111100000000110 bl   29c8

000029bc e78f 1110011110001111 b.n  28de

000029be b500 1011010100000000 push {lr}
000029c0 f7ff 1111011111111111 (32-bit)
000029c2 ffd8 1111111111011000 bl   2974

000029c4 4608 0100011000001000 mov  r0, r1
000029c6 bd00 1011110100000000 pop {pc}
000029c8 2401 0010010000000001 movs r4, #1  ; 0x01
000029ca 0764 0000011101100100 lsls  r4, r4, #29
000029cc 42a0 0100001010100000 cmp  r0, r4
000029ce dc03 1101110000000011 bgt.n 29d8 ; PC + 10

000029d0 4264 0100001001100100 rsb  r4, r4
000029d2 42a0 0100001010100000 cmp  r0, r4
000029d4 dd00 1101110100000000 ble.n 29d8 ; PC + 4

000029d6 4770 0100011101110000 bx lr

000029d8 0020 0000000000100000 movs r0, r4
000029da 4770 0100011101110000 bx lr

000029dc b570 1011010101110000 push {r4, r5, r6, lr}
000029de f7ff 1111011111111111 (32-bit)
000029e0 ffc9 1111111111001001 bl   2974

000029e2 e18c 1110000110001100 b.n  2cfe

000029e4 b530 1011010100110000 push {r4, r5, lr}
000029e6 2118 0010000100011000 movs r1, #24  ; 0x18
000029e8 f7ff 1111011111111111 (32-bit)
000029ea ff31 1111111100110001 bl   284e

000029ec 1401 0001010000000001 asr   r1, r0, #80
000029ee 4a3c 0100101000111100 ldr  r2, [pc, #240] ; 0x00f0
000029f0 4351 0100001101010001 muls  r1, r2
000029f2 14c9 0001010011001001 asr   r1, r1, #83
000029f4 3101 0011000100000001 adds r1, #1  ; 0x01
000029f6 1049 0001000001001001 asr   r1, r1, #65
000029f8 b402 1011010000000010 push {r1}
000029fa 0142 0000000101000010 lsls  r2, r0, #5
000029fc 4839 0100100000111001 ldr  r0, [pc, #228] ; 0x00e4
000029fe 4341 0100001101000001 muls  r1, r0
00002a00 1a52 0001101001010010 sub r2, r2, r1
00002a02 4839 0100100000111001 ldr  r0, [pc, #228] ; 0x00e4
00002a04 2100 0010000100000000 movs r1, #0  ; 0x00
00002a06 a348 1010001101001000 add r3, pc, #288
00002a08 43cc 0100001111001100 mvns  r4, r1
00002a0a f7ff 1111011111111111 (32-bit)
00002a0c ff90 1111111110010000 bl   292e

00002a0e 4408 0100010000001000 adds r0, r1
00002a10 bc04 1011110000000100 pop {r2}
00002a12 e764 1110011101100100 b.n  28de

00002a14 b530 1011010100110000 push {r4, r5, lr}
00002a16 f7ff 1111011111111111 (32-bit)
00002a18 fea3 1111111010100011 bl   2760

00002a1a 0001 0000000000000001 movs r1, r0
00002a1c d415 1101010000010101 bmi.n 2a4a ; PC + 46

00002a1e 4933 0100100100110011 ldr  r1, [pc, #204] ; 0x00cc
00002a20 f7ff 1111011111111111 (32-bit)
00002a22 fede 1111111011011110 bl   27e0

00002a24 1051 0001000001010001 asr   r1, r2, #65
00002a26 d301 1101001100000001 bcc.n 2a2c ; PC + 6

00002a28 3101 0011000100000001 adds r1, #1  ; 0x01
00002a2a 1040 0001000001000000 asr   r0, r0, #65
00002a2c b402 1011010000000010 push {r1}
00002a2e 4601 0100011000000001 mov  r1, r0
00002a30 4b2e 0100101100101110 ldr  r3, [pc, #184] ; 0x00b8
00002a32 009b 0000000010011011 lsls  r3, r3, #2
00002a34 18c0 0001100011000000 adds r0, r0, r3
00002a36 1ac9 0001101011001001 sub r1, r1, r3
00002a38 2200 0010001000000000 movs r2, #0  ; 0x00
00002a3a a33b 1010001100111011 add r3, pc, #236
00002a3c 43d4 0100001111010100 mvns  r4, r2
00002a3e f7ff 1111011111111111 (32-bit)
00002a40 ff88 1111111110001000 bl   2952

00002a42 4611 0100011000010001 mov  r1, r2
00002a44 bc04 1011110000000100 pop {r2}
00002a46 0013 0000000000010011 movs r3, r2
00002a48 e749 1110011101001001 b.n  28de

00002a4a 22ff 0010001011111111 movs r2, #255  ; 0xff
00002a4c e7fb 1110011111111011 b.n  2a46

00002a4e b530 1011010100110000 push {r4, r5, lr}
00002a50 f7ff 1111011111111111 (32-bit)
00002a52 ffe0 1111111111100000 bl   2a14

00002a54 2b46 0010101101000110 cmp r3, #70  ; 0x46
00002a56 dc0a 1101110000001010 bgt.n 2a6e ; PC + 24

00002a58 425b 0100001001011011 rsb  r3, r3
00002a5a 2b46 0010101101000110 cmp r3, #70  ; 0x46
00002a5c dc06 1101110000000110 bgt.n 2a6c ; PC + 16

00002a5e 4824 0100100000100100 ldr  r0, [pc, #144] ; 0x0090
00002a60 4358 0100001101011000 muls  r0, r3
00002a62 3108 0011000100001000 adds r1, #8  ; 0x08
00002a64 1109 0001000100001001 asr   r1, r1, #68
00002a66 1a08 0001101000001000 sub r0, r1, r0
00002a68 2205 0010001000000101 movs r2, #5  ; 0x05
00002a6a e738 1110011100111000 b.n  28de

00002a6c 43c0 0100001111000000 mvns  r0, r0
00002a6e 22ff 0010001011111111 movs r2, #255  ; 0xff
00002a70 e735 1110011100110101 b.n  28de

00002a72 b530 1011010100110000 push {r4, r5, lr}
00002a74 f7ff 1111011111111111 (32-bit)
00002a76 fe74 1111111001110100 bl   2760

00002a78 f7ff 1111011111111111 (32-bit)
00002a7a fe6e 1111111001101110 bl   2758

00002a7c f7ff 1111011111111111 (32-bit)
00002a7e fe70 1111111001110000 bl   2760

00002a80 0140 0000000101000000 lsls  r0, r0, #5
00002a82 0149 0000000101001001 lsls  r1, r1, #5
00002a84 18d4 0001100011010100 adds r4, r2, r3
00002a86 1264 0001001001100100 asr   r4, r4, #73
00002a88 3401 0011010000000001 adds r4, #1  ; 0x01
00002a8a d40a 1101010000001010 bmi.n 2aa2 ; PC + 24

00002a8c 1ad4 0001101011010100 sub r4, r2, r3
00002a8e da05 1101101000000101 bge.n 2a9c ; PC + 14

00002a90 4264 0100001001100100 rsb  r4, r4
00002a92 4120 0100000100100000 ars  r0, r4
00002a94 2c1c 0010110000011100 cmp r4, #28  ; 0x1c
00002a96 d30c 1101001100001100 bcc.n 2ab2 ; PC + 28

00002a98 17c0 0001011111000000 asr   r0, r0, #95
00002a9a e00a 1110000000001010 b.n  2ab2

00002a9c 4121 0100000100100001 ars  r1, r4
00002a9e 2c1c 0010110000011100 cmp r4, #28  ; 0x1c
00002aa0 d307 1101001100000111 bcc.n 2ab2 ; PC + 18

00002aa2 2800 0010100000000000 cmp r0, #0  ; 0x00
00002aa4 da03 1101101000000011 bge.n 2aae ; PC + 10

00002aa6 4813 0100100000010011 ldr  r0, [pc, #76] ; 0x004c
00002aa8 17c9 0001011111001001 asr   r1, r1, #95
00002aaa 4048 0100000001001000 eors  r0, r1
00002aac e013 1110000000010011 b.n  2ad6

00002aae 17c8 0001011111001000 asr   r0, r1, #95
00002ab0 e011 1110000000010001 b.n  2ad6

00002ab2 2200 0010001000000000 movs r2, #0  ; 0x00
00002ab4 2800 0010100000000000 cmp r0, #0  ; 0x00
00002ab6 da02 1101101000000010 bge.n 2abe ; PC + 8

00002ab8 4240 0100001001000000 rsb  r0, r0
00002aba 4249 0100001001001001 rsb  r1, r1
00002abc 4a0d 0100101000001101 ldr  r2, [pc, #52] ; 0x0034
00002abe a30d 1010001100001101 add r3, pc, #52
00002ac0 2401 0010010000000001 movs r4, #1  ; 0x01
00002ac2 f7ff 1111011111111111 (32-bit)
00002ac4 ff46 1111111101000110 bl   2952

00002ac6 4610 0100011000010000 mov  r0, r2
00002ac8 4a0a 0100101000001010 ldr  r2, [pc, #40] ; 0x0028
00002aca 1884 0001100010000100 adds r4, r0, r2
00002acc d202 1101001000000010 bcs.n 2ad4 ; PC + 8

00002ace 1a84 0001101010000100 sub r4, r0, r2
00002ad0 d400 1101010000000000 bmi.n 2ad4 ; PC + 4

00002ad2 1aa0 0001101010100000 sub r0, r4, r2
00002ad4 3801 0011100000000001 subs r0, #1  ; 0x01
00002ad6 2200 0010001000000000 movs r2, #0  ; 0x00
00002ad8 e701 1110011100000001 b.n  28de

00002ada 46c0 0100011011000000 nop  ; (mov  r8, r8)

00002adc .word 136e9db4
00002ae0 .word 00001715
00002ae4 .word 162e42ff
00002ae8 .word 2c9e15ca
00002aec .word 0593c2b9
00002af0 .word 0162e430
00002af4 .word 6487ed51
00002af8 .word 3b58ce0c
00002afc .word 1f5b75f8
00002b00 .word 0feadd4c
00002b04 .word 07fd56ec
00002b08 .word 03ffaab8
00002b0c .word 01fff554
00002b10 .word 00fffeac
00002b14 .word 007fffd4
00002b18 .word 003ffffc
00002b1c .word 001ffffc
00002b20 .word 00100000
00002b24 .word 00080002
00002b28 .word 464fa9ec
00002b2c .word 464fa9ed
00002b30 .word 20b15df4
00002b34 .word 1015891c
00002b38 .word 0802ac44
00002b3c .word 0802ac45
00002b40 .word 04005564
00002b44 .word 02000aac
00002b48 .word 01000154
00002b4c .word 0080002c
00002b50 .word 00400004
00002b54 .word 00200004
00002b58 .word 00100000
00002b5c .word 00080000
00002b60 .word 00080003

00002b64 4ab9 0100101010111001 ldr  r2, [pc, #740] ; 0x02e4
00002b66 4051 0100000001010001 eors  r1, r2
00002b68 b570 1011010101110000 push {r4, r5, r6, lr}
00002b6a 17c4 0001011111000100 asr   r4, r0, #95
00002b6c 0042 0000000001000010 lsls  r2, r0, #1
00002b6e 0e12 0000111000010010 lsrs  r2, r2, #24
00002b70 d051 1101000001010001 beq.n 2b16 ; PC + -90

00002b72 2aff 0010101011111111 cmp r2, #255  ; 0xff
00002b74 d052 1101000001010010 beq.n 2b1c ; PC + -88

00002b76 17cd 0001011111001101 asr   r5, r1, #95
00002b78 004b 0000000001001011 lsls  r3, r1, #1
00002b7a 0e1b 0000111000011011 lsrs  r3, r3, #24
00002b7c d051 1101000001010001 beq.n 2b22 ; PC + -90

00002b7e 2bff 0010101111111111 cmp r3, #255  ; 0xff
00002b80 d052 1101000001010010 beq.n 2b28 ; PC + -88

00002b82 4eb3 0100111010110011 ldr  r6, [pc, #716] ; 0x02cc
00002b84 4030 0100000000110000 ands  r0, r6
00002b86 4031 0100000000110001 ands  r1, r6
00002b88 3601 0011011000000001 adds r6, #1  ; 0x01
00002b8a 4330 0100001100110000 orrs  r0, r6
00002b8c 4331 0100001100110001 orrs  r1, r6
00002b8e 4060 0100000001100000 eors  r0, r4
00002b90 4069 0100000001101001 eors  r1, r5
00002b92 1b00 0001101100000000 sub r0, r0, r4
00002b94 1b49 0001101101001001 sub r1, r1, r5
00002b96 1a9d 0001101010011101 sub r5, r3, r2
00002b98 1ad4 0001101011010100 sub r4, r2, r3
00002b9a d40d 1101010000001101 bmi.n 2bb8 ; PC + 30

00002b9c 2c1e 0010110000011110 cmp r4, #30  ; 0x1e
00002b9e da08 1101101000001000 bge.n 2bb2 ; PC + 20

00002ba0 3520 0011010100100000 adds r5, #32  ; 0x20
00002ba2 0013 0000000000010011 movs r3, r2
00002ba4 000a 0000000000001010 movs r2, r1
00002ba6 40aa 0100000010101010 lsl  r2, r5
00002ba8 4121 0100000100100001 ars  r1, r4
00002baa e00b 1110000000001011 b.n  2bc4

00002bac 2200 0010001000000000 movs r2, #0  ; 0x00
00002bae 0008 0000000000001000 movs r0, r1
00002bb0 e00a 1110000000001010 b.n  2bc8

00002bb2 0013 0000000000010011 movs r3, r2
00002bb4 2200 0010001000000000 movs r2, #0  ; 0x00
00002bb6 e007 1110000000000111 b.n  2bc8

00002bb8 2d1e 0010110100011110 cmp r5, #30  ; 0x1e
00002bba daf7 1101101011110111 bge.n 2bac ; PC + -14

00002bbc 3420 0011010000100000 adds r4, #32  ; 0x20
00002bbe 0002 0000000000000010 movs r2, r0
00002bc0 40a2 0100000010100010 lsl  r2, r4
00002bc2 4128 0100000100101000 ars  r0, r5
00002bc4 1840 0001100001000000 adds r0, r0, r1
00002bc6 d019 1101000000011001 beq.n 2bfc ; PC + 54

00002bc8 0fc1 0000111111000001 lsrs  r1, r0, #31
00002bca d003 1101000000000011 beq.n 2bd4 ; PC + 10

00002bcc 43c0 0100001111000000 mvns  r0, r0
00002bce 4252 0100001001010010 rsb  r2, r2
00002bd0 d100 1101000100000000 bne.n 2bd4 ; PC + 4

00002bd2 3001 0011000000000001 adds r0, #1  ; 0x01
00002bd4 19b6 0001100110110110 adds r6, r6, r6
00002bd6 42b0 0100001010110000 cmp  r0, r6
00002bd8 d204 1101001000000100 bcs.n 2be4 ; PC + 12

00002bda 1892 0001100010010010 adds r2, r2, r2
00002bdc 4140 0100000101000000 adc  r0, r0
00002bde 3b01 0011101100000001 subs r3, #1  ; 0x01
00002be0 42b0 0100001010110000 cmp  r0, r6
00002be2 d3fa 1101001111111010 bcc.n 2bda ; PC + -8

00002be4 0840 0000100001000000 lsrs  r0, r0, #1
00002be6 d302 1101001100000010 bcc.n 2bee ; PC + 8

00002be8 3001 0011000000000001 adds r0, #1  ; 0x01
00002bea 2a00 0010101000000000 cmp r2, #0  ; 0x00
00002bec d009 1101000000001001 beq.n 2c02 ; PC + 22

00002bee 2bfe 0010101111111110 cmp r3, #254  ; 0xfe
00002bf0 d20a 1101001000001010 bcs.n 2c08 ; PC + 24

00002bf2 07c9 0000011111001001 lsls  r1, r1, #31
00002bf4 4408 0100010000001000 adds r0, r1
00002bf6 05db 0000010111011011 lsls  r3, r3, #23
00002bf8 4418 0100010000011000 adds r0, r3
00002bfa bd70 1011110101110000 pop {r4, r5, r6, pc}
00002bfc 2a00 0010101000000000 cmp r2, #0  ; 0x00
00002bfe d0fc 1101000011111100 beq.n 2bfa ; PC + -4

00002c00 e7e2 1110011111100010 b.n  2bc8

00002c02 0840 0000100001000000 lsrs  r0, r0, #1
00002c04 0040 0000000001000000 lsls  r0, r0, #1
00002c06 e7f2 1110011111110010 b.n  2bee

00002c08 da01 1101101000000001 bge.n 2c0e ; PC + 6

00002c0a 07c8 0000011111001000 lsls  r0, r1, #31
00002c0c bd70 1011110101110000 pop {r4, r5, r6, pc}
00002c0e 0208 0000001000001000 lsls  r0, r1, #8
00002c10 30ff 0011000011111111 adds r0, #255  ; 0xff
00002c12 05c0 0000010111000000 lsls  r0, r0, #23
00002c14 bd70 1011110101110000 pop {r4, r5, r6, pc}
00002c16 3a20 0011101000100000 subs r2, #32  ; 0x20
00002c18 1912 0001100100010010 adds r2, r2, r4
00002c1a e7ac 1110011110101100 b.n  2b76

00002c1c 0212 0000001000010010 lsls  r2, r2, #8
00002c1e 4422 0100010000100010 adds r2, r4
00002c20 e7a9 1110011110101001 b.n  2b76

00002c22 3b20 0011101100100000 subs r3, #32  ; 0x20
00002c24 195b 0001100101011011 adds r3, r3, r5
00002c26 e7ac 1110011110101100 b.n  2b82

00002c28 021b 0000001000011011 lsls  r3, r3, #8
00002c2a 442b 0100010000101011 adds r3, r5
00002c2c e7a9 1110011110101001 b.n  2b82

00002c2e 46c0 0100011011000000 nop  ; (mov  r8, r8)

00002c30 b580 1011010110000000 push {r7, lr}
00002c32 4602 0100011000000010 mov  r2, r0
00002c34 404a 0100000001001010 eors  r2, r1
00002c36 0fd2 0000111111010010 lsrs  r2, r2, #31
00002c38 07d2 0000011111010010 lsls  r2, r2, #31
00002c3a 4696 0100011010010110 mov  lr, r2
00002c3c 0040 0000000001000000 lsls  r0, r0, #1
00002c3e 0049 0000000001001001 lsls  r1, r1, #1
00002c40 0e02 0000111000000010 lsrs  r2, r0, #24
00002c42 d03d 1101000000111101 beq.n 2cc0 ; PC + 126

00002c44 2aff 0010101011111111 cmp r2, #255  ; 0xff
00002c46 d03c 1101000000111100 beq.n 2cc2 ; PC + 124

00002c48 0e0b 0000111000001011 lsrs  r3, r1, #24
00002c4a d03c 1101000000111100 beq.n 2cc6 ; PC + 124

00002c4c 2bff 0010101111111111 cmp r3, #255  ; 0xff
00002c4e d03b 1101000000111011 beq.n 2cc8 ; PC + 122

00002c50 18d7 0001100011010111 adds r7, r2, r3
00002c52 3f80 0011111110000000 subs r7, #128  ; 0x80
00002c54 0200 0000001000000000 lsls  r0, r0, #8
00002c56 0209 0000001000001001 lsls  r1, r1, #8
00002c58 0a40 0000101001000000 lsrs  r0, r0, #9
00002c5a 0a49 0000101001001001 lsrs  r1, r1, #9
00002c5c 1842 0001100001000010 adds r2, r0, r1
00002c5e 4694 0100011010010100 mov  ip, r2
00002c60 09c2 0000100111000010 lsrs  r2, r0, #7
00002c62 09cb 0000100111001011 lsrs  r3, r1, #7
00002c64 435a 0100001101011010 muls  r2, r3
00002c66 4348 0100001101001000 muls  r0, r1
00002c68 0c92 0000110010010010 lsrs  r2, r2, #18
00002c6a d302 1101001100000010 bcc.n 2c72 ; PC + 8

00002c6c 2800 0010100000000000 cmp r0, #0  ; 0x00
00002c6e d400 1101010000000000 bmi.n 2c72 ; PC + 4

00002c70 3201 0011001000000001 adds r2, #1  ; 0x01
00002c72 0243 0000001001000011 lsls  r3, r0, #9
00002c74 0dc0 0000110111000000 lsrs  r0, r0, #23
00002c76 0252 0000001001010010 lsls  r2, r2, #9
00002c78 1880 0001100010000000 adds r0, r0, r2
00002c7a 4460 0100010001100000 adds r0, r4
00002c7c 0dc1 0000110111000001 lsrs  r1, r0, #23
00002c7e d10e 1101000100001110 bne.n 2c9e ; PC + 32

00002c80 2ffe 0010111111111110 cmp r7, #254  ; 0xfe
00002c82 d22b 1101001000101011 bcs.n 2cdc ; PC + 90

00002c84 005b 0000000001011011 lsls  r3, r3, #1
00002c86 d301 1101001100000001 bcc.n 2c8c ; PC + 6

00002c88 d005 1101000000000101 beq.n 2c96 ; PC + 14

00002c8a 3001 0011000000000001 adds r0, #1  ; 0x01
00002c8c 3701 0011011100000001 adds r7, #1  ; 0x01
00002c8e 05ff 0000010111111111 lsls  r7, r7, #23
00002c90 4438 0100010000111000 adds r0, r7
00002c92 4470 0100010001110000 adds r0, r6
00002c94 bd80 1011110110000000 pop {r7, pc}
00002c96 3001 0011000000000001 adds r0, #1  ; 0x01
00002c98 0840 0000100001000000 lsrs  r0, r0, #1
00002c9a 0040 0000000001000000 lsls  r0, r0, #1
00002c9c e7f6 1110011111110110 b.n  2c8c

00002c9e 3701 0011011100000001 adds r7, #1  ; 0x01
00002ca0 2ffe 0010111111111110 cmp r7, #254  ; 0xfe
00002ca2 d213 1101001000010011 bcs.n 2ccc ; PC + 42

00002ca4 0840 0000100001000000 lsrs  r0, r0, #1
00002ca6 d302 1101001100000010 bcc.n 2cae ; PC + 8

00002ca8 3001 0011000000000001 adds r0, #1  ; 0x01
00002caa 2b00 0010101100000000 cmp r3, #0  ; 0x00
00002cac d005 1101000000000101 beq.n 2cba ; PC + 14

00002cae 19ff 0001100111111111 adds r7, r7, r7
00002cb0 3701 0011011100000001 adds r7, #1  ; 0x01
00002cb2 05bf 0000010110111111 lsls  r7, r7, #22
00002cb4 4438 0100010000111000 adds r0, r7
00002cb6 4470 0100010001110000 adds r0, r6
00002cb8 bd80 1011110110000000 pop {r7, pc}
00002cba 0840 0000100001000000 lsrs  r0, r0, #1
00002cbc 0040 0000000001000000 lsls  r0, r0, #1
00002cbe e7f6 1110011111110110 b.n  2cae

00002cc0 3a10 0011101000010000 subs r2, #16  ; 0x10
00002cc2 0212 0000001000010010 lsls  r2, r2, #8
00002cc4 e7c0 1110011111000000 b.n  2c48

00002cc6 3b10 0011101100010000 subs r3, #16  ; 0x10
00002cc8 021b 0000001000011011 lsls  r3, r3, #8
00002cca e7c1 1110011111000001 b.n  2c50

00002ccc da12 1101101000010010 bge.n 2cf4 ; PC + 40

00002cce 3701 0011011100000001 adds r7, #1  ; 0x01
00002cd0 d10e 1101000100001110 bne.n 2cf0 ; PC + 32

00002cd2 3002 0011000000000010 adds r0, #2  ; 0x02
00002cd4 0dc0 0000110111000000 lsrs  r0, r0, #23
00002cd6 2803 0010100000000011 cmp r0, #3  ; 0x03
00002cd8 d10a 1101000100001010 bne.n 2cf0 ; PC + 24

00002cda e005 1110000000000101 b.n  2ce8

00002cdc da0a 1101101000001010 bge.n 2cf4 ; PC + 24

00002cde 3701 0011011100000001 adds r7, #1  ; 0x01
00002ce0 d106 1101000100000110 bne.n 2cf0 ; PC + 16

00002ce2 3001 0011000000000001 adds r0, #1  ; 0x01
00002ce4 0dc0 0000110111000000 lsrs  r0, r0, #23
00002ce6 d003 1101000000000011 beq.n 2cf0 ; PC + 10

00002ce8 2001 0010000000000001 movs r0, #1  ; 0x01
00002cea 05c0 0000010111000000 lsls  r0, r0, #23
00002cec 4470 0100010001110000 adds r0, r6
00002cee bd80 1011110110000000 pop {r7, pc}
00002cf0 4670 0100011001110000 mov  r0, lr
00002cf2 bd80 1011110110000000 pop {r7, pc}
00002cf4 20ff 0010000011111111 movs r0, #255  ; 0xff
00002cf6 05c0 0000010111000000 lsls  r0, r0, #23
00002cf8 4470 0100010001110000 adds r0, r6
00002cfa bd80 1011110110000000 pop {r7, pc}
00002cfc b570 1011010101110000 push {r4, r5, r6, lr}
00002cfe 2401 0010010000000001 movs r4, #1  ; 0x01
00002d00 4266 0100001001100110 rsb  r6, r4
00002d02 05e4 0000010111100100 lsls  r4, r4, #23
00002d04 024a 0000001001001010 lsls  r2, r1, #9
00002d06 0a52 0000101001010010 lsrs  r2, r2, #9
00002d08 4322 0100001100100010 orrs  r2, r4
00002d0a 09d3 0000100111010011 lsrs  r3, r2, #7
00002d0c 25d0 0010010111010000 movs r5, #208  ; 0xd0
00002d0e 062d 0000011000101101 lsls  r5, r5, #24
00002d10 662e 0110011000101110 str  r6, [r5, #96] ; 0x60
00002d12 666b 0110011001101011 str  r3, [r5, #100] ; 0x64
00002d14 0dc6 0000110111000110 lsrs  r6, r0, #23
00002d16 b2f3 1011001011110011 uxtb
00002d18 0240 0000001001000000 lsls  r0, r0, #9
00002d1a 0a40 0000101001000000 lsrs  r0, r0, #9
00002d1c 4320 0100001100100000 orrs  r0, r4
00002d1e 0dc9 0000110111001001 lsrs  r1, r1, #23
00002d20 404e 0100000001001110 eors  r6, r1
00002d22 0a36 0000101000110110 lsrs  r6, r6, #8
00002d24 07f6 0000011111110110 lsls  r6, r6, #31
00002d26 6f2d 0110111100101101 ldr  r5, [r5, #112] ; 0x70
00002d28 b2c9 1011001011001001 uxtb
00002d2a 2900 0010100100000000 cmp r1, #0  ; 0x00
00002d2c d030 1101000000110000 beq.n 2d90 ; PC + 100

00002d2e 29ff 0010100111111111 cmp r1, #255  ; 0xff
00002d30 d02c 1101000000101100 beq.n 2d8c ; PC + 92

00002d32 2b00 0010101100000000 cmp r3, #0  ; 0x00
00002d34 d039 1101000000111001 beq.n 2daa ; PC + 118

00002d36 2bff 0010101111111111 cmp r3, #255  ; 0xff
00002d38 d02a 1101000000101010 beq.n 2d90 ; PC + 88

00002d3a 1a5b 0001101001011011 sub r3, r3, r1
00002d3c 337d 0011001101111101 adds r3, #125  ; 0x7d
00002d3e 0a01 0000101000000001 lsrs  r1, r0, #8
00002d40 4369 0100001101101001 muls  r1, r5
00002d42 0c09 0000110000001001 lsrs  r1, r1, #16
00002d44 03c0 0000001111000000 lsls  r0, r0, #15
00002d46 0014 0000000000010100 movs r4, r2
00002d48 434c 0100001101001100 muls  r4, r1
00002d4a 1b04 0001101100000100 sub r4, r0, r4
00002d4c 12a4 0001001010100100 asr   r4, r4, #74
00002d4e 436c 0100001101101100 muls  r4, r5
00002d50 1424 0001010000100100 asr   r4, r4, #80
00002d52 0349 0000001101001001 lsls  r1, r1, #13
00002d54 1909 0001100100001001 adds r1, r1, r4
00002d56 0f0c 0000111100001100 lsrs  r4, r1, #28
00002d58 d108 1101000100001000 bne.n 2d6c ; PC + 20

00002d5a 3105 0011000100000101 adds r1, #5  ; 0x05
00002d5c 090c 0000100100001100 lsrs  r4, r1, #4
00002d5e d30f 1101001100001111 bcc.n 2d80 ; PC + 34

00002d60 08c9 0000100011001001 lsrs  r1, r1, #3
00002d62 0280 0000001010000000 lsls  r0, r0, #10
00002d64 4351 0100001101010001 muls  r1, r2
00002d66 1a40 0001101001000000 sub r0, r0, r1
00002d68 d40a 1101010000001010 bmi.n 2d80 ; PC + 24

00002d6a e008 1110000000001000 b.n  2d7e

00002d6c 3301 0011001100000001 adds r3, #1  ; 0x01
00002d6e 3109 0011000100001001 adds r1, #9  ; 0x09
00002d70 094c 0000100101001100 lsrs  r4, r1, #5
00002d72 d305 1101001100000101 bcc.n 2d80 ; PC + 14

00002d74 0909 0000100100001001 lsrs  r1, r1, #4
00002d76 0240 0000001001000000 lsls  r0, r0, #9
00002d78 4351 0100001101010001 muls  r1, r2
00002d7a 1a40 0001101001000000 sub r0, r0, r1
00002d7c d400 1101010000000000 bmi.n 2d80 ; PC + 4

00002d7e 3401 0011010000000001 adds r4, #1  ; 0x01
00002d80 2bfe 0010101111111110 cmp r3, #254  ; 0xfe
00002d82 d209 1101001000001001 bcs.n 2d98 ; PC + 22

00002d84 05d9 0000010111011001 lsls  r1, r3, #23
00002d86 1860 0001100001100000 adds r0, r4, r1
00002d88 1980 0001100110000000 adds r0, r0, r6
00002d8a bd70 1011110101110000 pop {r4, r5, r6, pc}
00002d8c 2bff 0010101111111111 cmp r3, #255  ; 0xff
00002d8e d10c 1101000100001100 bne.n 2daa ; PC + 28

00002d90 20ff 0010000011111111 movs r0, #255  ; 0xff
00002d92 05c0 0000010111000000 lsls  r0, r0, #23
00002d94 4330 0100001100110000 orrs  r0, r6
00002d96 bd70 1011110101110000 pop {r4, r5, r6, pc}
00002d98 dafa 1101101011111010 bge.n 2d90 ; PC + -8

00002d9a 1c59 0001110001011001 adds r1, r3, #1   ;0x1
00002d9c d105 1101000100000101 bne.n 2daa ; PC + 14

00002d9e 0e61 0000111001100001 lsrs  r1, r4, #25
00002da0 d303 1101001100000011 bcc.n 2daa ; PC + 10

00002da2 2001 0010000000000001 movs r0, #1  ; 0x01
00002da4 05c0 0000010111000000 lsls  r0, r0, #23
00002da6 4330 0100001100110000 orrs  r0, r6
00002da8 bd70 1011110101110000 pop {r4, r5, r6, pc}
00002daa 0030 0000000000110000 movs r0, r6
00002dac bd70 1011110101110000 pop {r4, r5, r6, pc}
00002dae 46c0 0100011011000000 nop  ; (mov  r8, r8)

00002db0 b410 1011010000010000 push {r4}
00002db2 0041 0000000001000001 lsls  r1, r0, #1
00002db4 d23a 1101001000111010 bcs.n 2e2c ; PC + 120

00002db6 0209 0000001000001001 lsls  r1, r1, #8
00002db8 0a49 0000101001001001 lsrs  r1, r1, #9
00002dba 2201 0010001000000001 movs r2, #1  ; 0x01
00002dbc 05d2 0000010111010010 lsls  r2, r2, #23
00002dbe 1889 0001100010001001 adds r1, r1, r2
00002dc0 0dc2 0000110111000010 lsrs  r2, r0, #23
00002dc2 d03a 1101000000111010 beq.n 2e3a ; PC + 120

00002dc4 2aff 0010101011111111 cmp r2, #255  ; 0xff
00002dc6 d036 1101000000110110 beq.n 2e36 ; PC + 112

00002dc8 327d 0011001001111101 adds r2, #125  ; 0x7d
00002dca 1052 0001000001010010 asr   r2, r2, #65
00002dcc d300 1101001100000000 bcc.n 2dd0 ; PC + 4

00002dce 0049 0000000001001001 lsls  r1, r1, #1
00002dd0 a41a 1010010000011010 add r4, pc, #104
00002dd2 0d4b 0000110101001011 lsrs  r3, r1, #21
00002dd4 5ce4 0101110011100100 ldrb r4, [r4, r3]
00002dd6 09c8 0000100111001000 lsrs  r0, r1, #7
00002dd8 4360 0100001101100000 muls  r0, r4
00002dda 4360 0100001101100000 muls  r0, r4
00002ddc 1300 0001001100000000 asr   r0, r0, #76
00002dde 4360 0100001101100000 muls  r0, r4
00002de0 1340 0001001101000000 asr   r0, r0, #77
00002de2 0224 0000001000100100 lsls  r4, r4, #8
00002de4 1a24 0001101000100100 sub r4, r4, r0
00002de6 34aa 0011010010101010 adds r4, #170  ; 0xaa
00002de8 0020 0000000000100000 movs r0, r4
00002dea 4340 0100001101000000 muls  r0, r0
00002dec 0bc0 0000101111000000 lsrs  r0, r0, #15
00002dee 0a0b 0000101000001011 lsrs  r3, r1, #8
00002df0 4358 0100001101011000 muls  r0, r3
00002df2 1300 0001001100000000 asr   r0, r0, #76
00002df4 4360 0100001101100000 muls  r0, r4
00002df6 1540 0001010101000000 asr   r0, r0, #85
00002df8 1a24 0001101000100100 sub r4, r4, r0
00002dfa 4363 0100001101100011 muls  r3, r4
00002dfc 0bdb 0000101111011011 lsrs  r3, r3, #15
00002dfe 0018 0000000000011000 movs r0, r3
00002e00 4340 0100001101000000 muls  r0, r0
00002e02 0249 0000001001001001 lsls  r1, r1, #9
00002e04 1a08 0001101000001000 sub r0, r1, r0
00002e06 1140 0001000101000000 asr   r0, r0, #69
00002e08 4344 0100001101000100 muls  r4, r0
00002e0a 01db 0000000111011011 lsls  r3, r3, #7
00002e0c 13e0 0001001111100000 asr   r0, r4, #79
00002e0e 3010 0011000000010000 adds r0, #16  ; 0x10
00002e10 1180 0001000110000000 asr   r0, r0, #70
00002e12 4403 0100010000000011 adds r3, r0
00002e14 d306 1101001100000110 bcc.n 2e24 ; PC + 16

00002e16 461c 0100011000011100 mov  r4, r3
00002e18 4164 0100000101100100 adc  r4, r4
00002e1a 4364 0100001101100100 muls  r4, r4
00002e1c 0409 0000010000001001 lsls  r1, r1, #16
00002e1e 1b09 0001101100001001 sub r1, r1, r4
00002e20 d400 1101010000000000 bmi.n 2e24 ; PC + 4

00002e22 3301 0011001100000001 adds r3, #1  ; 0x01
00002e24 05d2 0000010111010010 lsls  r2, r2, #23
00002e26 18d0 0001100011010000 adds r0, r2, r3
00002e28 bc10 1011110000010000 pop {r4}
00002e2a 4770 0100011101110000 bx lr

00002e2c 0e09 0000111000001001 lsrs  r1, r1, #24
00002e2e d004 1101000000000100 beq.n 2e3a ; PC + 12

00002e30 17c0 0001011111000000 asr   r0, r0, #95
00002e32 05c0 0000010111000000 lsls  r0, r0, #23
00002e34 e7f8 1110011111111000 b.n  2e28

00002e36 0dc0 0000110111000000 lsrs  r0, r0, #23
00002e38 e7fb 1110011111111011 b.n  2e32

00002e3a 0fc0 0000111111000000 lsrs  r0, r0, #31
00002e3c 07c0 0000011111000000 lsls  r0, r0, #31
00002e3e e7f3 1110011111110011 b.n  2e28

00002e40 .word bbc9daf1
00002e44 .word 979ea6b0
00002e48 .word 82868b91
00002e4c .word 80000000
00002e50 .word 007fffff

00002e54 b5f0 1011010111110000 push {r4, r5, r6, r7, lr}
00002e56 2401 0010010000000001 movs r4, #1  ; 0x01
00002e58 07e4 0000011111100100 lsls  r4, r4, #31
00002e5a 4063 0100000001100011 eors  r3, r4
00002e5c e001 1110000000000001 b.n  2e62

00002e5e 46c0 0100011011000000 nop  ; (mov  r8, r8)

00002e60 b5f0 1011010111110000 push {r4, r5, r6, r7, lr}
00002e62 0d0c 0000110100001100 lsrs  r4, r1, #20
00002e64 0fcf 0000111111001111 lsrs  r7, r1, #31
00002e66 1e66 0001111001100110 subs  r6, r4, #1   ;0x1
00002e68 0536 0000010100110110 lsls  r6, r6, #20
00002e6a 1b89 0001101110001001 sub r1, r1, r6
00002e6c 0564 0000010101100100 lsls  r4, r4, #21
00002e6e d303 1101001100000011 bcc.n 2e78 ; PC + 10

00002e70 43c9 0100001111001001 mvns  r1, r1
00002e72 4240 0100001001000000 rsb  r0, r0
00002e74 d300 1101001100000000 bcc.n 2e78 ; PC + 4

00002e76 3101 0011000100000001 adds r1, #1  ; 0x01
00002e78 0d64 0000110101100100 lsrs  r4, r4, #21
00002e7a d003 1101000000000011 beq.n 2e84 ; PC + 10

00002e7c 1c66 0001110001100110 adds r6, r4, #1   ;0x1
00002e7e 0af6 0000101011110110 lsrs  r6, r6, #11
00002e80 d007 1101000000000111 beq.n 2e92 ; PC + 18

00002e82 1be4 0001101111100100 sub r4, r4, r7
00002e84 2000 0010000000000000 movs r0, #0  ; 0x00
00002e86 007f 0000000001111111 lsls  r7, r7, #1
00002e88 1c79 0001110001111001 adds r1, r7, #1   ;0x1
00002e8a 0789 0000011110001001 lsls  r1, r1, #30
00002e8c 1289 0001001010001001 asr   r1, r1, #74
00002e8e 3c80 0011110010000000 subs r4, #128  ; 0x80
00002e90 0324 0000001100100100 lsls  r4, r4, #12
00002e92 0d1d 0000110100011101 lsrs  r5, r3, #20
00002e94 0fdf 0000111111011111 lsrs  r7, r3, #31
00002e96 1e6e 0001111001101110 subs  r6, r5, #1   ;0x1
00002e98 0536 0000010100110110 lsls  r6, r6, #20
00002e9a 1b9b 0001101110011011 sub r3, r3, r6
00002e9c 056d 0000010101101101 lsls  r5, r5, #21
00002e9e d303 1101001100000011 bcc.n 2ea8 ; PC + 10

00002ea0 43db 0100001111011011 mvns  r3, r3
00002ea2 4252 0100001001010010 rsb  r2, r2
00002ea4 d300 1101001100000000 bcc.n 2ea8 ; PC + 4

00002ea6 3301 0011001100000001 adds r3, #1  ; 0x01
00002ea8 0d6d 0000110101101101 lsrs  r5, r5, #21
00002eaa d003 1101000000000011 beq.n 2eb4 ; PC + 10

00002eac 1c6e 0001110001101110 adds r6, r5, #1   ;0x1
00002eae 0af6 0000101011110110 lsrs  r6, r6, #11
00002eb0 d007 1101000000000111 beq.n 2ec2 ; PC + 18

00002eb2 1bed 0001101111101101 sub r5, r5, r7
00002eb4 2200 0010001000000000 movs r2, #0  ; 0x00
00002eb6 007f 0000000001111111 lsls  r7, r7, #1
00002eb8 1c7b 0001110001111011 adds r3, r7, #1   ;0x1
00002eba 079b 0000011110011011 lsls  r3, r3, #30
00002ebc 129b 0001001010011011 asr   r3, r3, #74
00002ebe 3d80 0011110110000000 subs r5, #128  ; 0x80
00002ec0 032d 0000001100101101 lsls  r5, r5, #12
00002ec2 1b2f 0001101100101111 sub r7, r5, r4
00002ec4 1b66 0001101101100110 sub r6, r4, r5
00002ec6 d458 1101010001011000 bmi.n 2e7a ; PC + -76

00002ec8 46a4 0100011010100100 mov  ip, r4
00002eca 2e20 0010111000100000 cmp r6, #32  ; 0x20
00002ecc da46 1101101001000110 bge.n 2e5c ; PC + -112

00002ece 3720 0011011100100000 adds r7, #32  ; 0x20
00002ed0 0014 0000000000010100 movs r4, r2
00002ed2 40bc 0100000010111100 lsl  r4, r7
00002ed4 001d 0000000000011101 movs r5, r3
00002ed6 40bd 0100000010111101 lsl  r5, r7
00002ed8 40f2 0100000011110010 lsr  r2, r6
00002eda 4133 0100000100110011 ars  r3, r6
00002edc 432a 0100001100101010 orrs  r2, r5
00002ede 1880 0001100010000000 adds r0, r0, r2
00002ee0 4159 0100000101011001 adc  r1, r3
00002ee2 0fcb 0000111111001011 lsrs  r3, r1, #31
00002ee4 d005 1101000000000101 beq.n 2ef2 ; PC + 14

00002ee6 43c9 0100001111001001 mvns  r1, r1
00002ee8 43c0 0100001111000000 mvns  r0, r0
00002eea 2200 0010001000000000 movs r2, #0  ; 0x00
00002eec 4264 0100001001100100 rsb  r4, r4
00002eee 4150 0100000101010000 adc  r0, r2
00002ef0 4151 0100000101010001 adc  r1, r2
00002ef2 4662 0100011001100010 mov  r2, ip
00002ef4 0d4d 0000110101001101 lsrs  r5, r1, #21
00002ef6 d128 1101000100101000 bne.n 2f4a ; PC + 84

00002ef8 0d0d 0000110100001101 lsrs  r5, r1, #20
00002efa d107 1101000100000111 bne.n 2f0c ; PC + 18

00002efc 2800 0010100000000000 cmp r0, #0  ; 0x00
00002efe d01f 1101000000011111 beq.n 2f40 ; PC + 66

00002f00 1924 0001100100100100 adds r4, r4, r4
00002f02 4140 0100000101000000 adc  r0, r0
00002f04 4149 0100000101001001 adc  r1, r1
00002f06 3a01 0011101000000001 subs r2, #1  ; 0x01
00002f08 0d0d 0000110100001101 lsrs  r5, r1, #20
00002f0a d0f9 1101000011111001 beq.n 2f00 ; PC + -10

00002f0c 0064 0000000001100100 lsls  r4, r4, #1
00002f0e d306 1101001100000110 bcc.n 2f1e ; PC + 16

00002f10 3001 0011000000000001 adds r0, #1  ; 0x01
00002f12 d300 1101001100000000 bcc.n 2f16 ; PC + 4

00002f14 3101 0011000100000001 adds r1, #1  ; 0x01
00002f16 2c00 0010110000000000 cmp r4, #0  ; 0x00
00002f18 d101 1101000100000001 bne.n 2f1e ; PC + 6

00002f1a 0840 0000100001000000 lsrs  r0, r0, #1
00002f1c 0040 0000000001000000 lsls  r0, r0, #1
00002f1e 3a01 0011101000000001 subs r2, #1  ; 0x01
00002f20 d40b 1101010000001011 bmi.n 2f3a ; PC + 26

00002f22 1c94 0001110010010100 adds r4, r2, #2   ;0x2
00002f24 0ae4 0000101011100100 lsrs  r4, r4, #11
00002f26 d104 1101000100000100 bne.n 2f32 ; PC + 12

00002f28 0512 0000010100010010 lsls  r2, r2, #20
00002f2a 4411 0100010000010001 adds r1, r2
00002f2c 07db 0000011111011011 lsls  r3, r3, #31
00002f2e 4419 0100010000011001 adds r1, r3
00002f30 bdf0 1011110111110000 pop {r4, r5, r6, r7, pc}
00002f32 07d9 0000011111011001 lsls  r1, r3, #31
00002f34 4b20 0100101100100000 ldr  r3, [pc, #128] ; 0x0080
00002f36 4319 0100001100011001 orrs  r1, r3
00002f38 e000 1110000000000000 b.n  2f3c

00002f3a 07d9 0000011111011001 lsls  r1, r3, #31
00002f3c 2000 0010000000000000 movs r0, #0  ; 0x00
00002f3e bdf0 1011110111110000 pop {r4, r5, r6, r7, pc}
00002f40 2900 0010100100000000 cmp r1, #0  ; 0x00
00002f42 d1dd 1101000111011101 bne.n 2f00 ; PC + -66

00002f44 2c00 0010110000000000 cmp r4, #0  ; 0x00
00002f46 d1db 1101000111011011 bne.n 2f00 ; PC + -70

00002f48 bdf0 1011110111110000 pop {r4, r5, r6, r7, pc}
00002f4a 3201 0011001000000001 adds r2, #1  ; 0x01
00002f4c 07c6 0000011111000110 lsls  r6, r0, #31
00002f4e 0840 0000100001000000 lsrs  r0, r0, #1
00002f50 07cd 0000011111001101 lsls  r5, r1, #31
00002f52 4328 0100001100101000 orrs  r0, r5
00002f54 0849 0000100001001001 lsrs  r1, r1, #1
00002f56 2e00 0010111000000000 cmp r6, #0  ; 0x00
00002f58 d0e1 1101000011100001 beq.n 2f1e ; PC + -58

00002f5a e7d9 1110011111011001 b.n  2f10

00002f5c 2e3c 0010111000111100 cmp r6, #60  ; 0x3c
00002f5e da29 1101101000101001 bge.n 2fb4 ; PC + 86

00002f60 3e20 0011111000100000 subs r6, #32  ; 0x20
00002f62 3740 0011011101000000 adds r7, #64  ; 0x40
00002f64 0014 0000000000010100 movs r4, r2
00002f66 40bc 0100000010111100 lsl  r4, r7
00002f68 d000 1101000000000000 beq.n 2f6c ; PC + 4

00002f6a 2401 0010010000000001 movs r4, #1  ; 0x01
00002f6c 40f2 0100000011110010 lsr  r2, r6
00002f6e 4314 0100001100010100 orrs  r4, r2
00002f70 001a 0000000000011010 movs r2, r3
00002f72 40bb 0100000010111011 lsl  r3, r7
00002f74 431c 0100001100011100 orrs  r4, r3
00002f76 17d3 0001011111010011 asr   r3, r2, #95
00002f78 e7ac 1110011110101100 b.n  2ed4

00002f7a 46ac 0100011010101100 mov  ip, r5
00002f7c 2f20 0010111100100000 cmp r7, #32  ; 0x20
00002f7e da08 1101101000001000 bge.n 2f92 ; PC + 20

00002f80 3620 0011011000100000 adds r6, #32  ; 0x20
00002f82 0004 0000000000000100 movs r4, r0
00002f84 40b4 0100000010110100 lsl  r4, r6
00002f86 000d 0000000000001101 movs r5, r1
00002f88 40b5 0100000010110101 lsl  r5, r6
00002f8a 40f8 0100000011111000 lsr  r0, r7
00002f8c 4139 0100000100111001 ars  r1, r7
00002f8e 4328 0100001100101000 orrs  r0, r5
00002f90 e7a5 1110011110100101 b.n  2ede

00002f92 2f3c 0010111100111100 cmp r7, #60  ; 0x3c
00002f94 da0c 1101101000001100 bge.n 2fb0 ; PC + 28

00002f96 3f20 0011111100100000 subs r7, #32  ; 0x20
00002f98 3640 0011011001000000 adds r6, #64  ; 0x40
00002f9a 0004 0000000000000100 movs r4, r0
00002f9c 40b4 0100000010110100 lsl  r4, r6
00002f9e d000 1101000000000000 beq.n 2fa2 ; PC + 4

00002fa0 2401 0010010000000001 movs r4, #1  ; 0x01
00002fa2 40f8 0100000011111000 lsr  r0, r7
00002fa4 4304 0100001100000100 orrs  r4, r0
00002fa6 0008 0000000000001000 movs r0, r1
00002fa8 40b1 0100000010110001 lsl  r1, r6
00002faa 430c 0100001100001100 orrs  r4, r1
00002fac 17c1 0001011111000001 asr   r1, r0, #95
00002fae e7ea 1110011111101010 b.n  2f86

00002fb0 0010 0000000000010000 movs r0, r2
00002fb2 0019 0000000000011001 movs r1, r3
00002fb4 2400 0010010000000000 movs r4, #0  ; 0x00
00002fb6 e794 1110011110010100 b.n  2ee2

00002fb8 .word 7ff00000

00002fbc b5f0 1011010111110000 push {r4, r5, r6, r7, lr}
00002fbe 0d0c 0000110100001100 lsrs  r4, r1, #20
00002fc0 1e66 0001111001100110 subs  r6, r4, #1   ;0x1
00002fc2 0536 0000010100110110 lsls  r6, r6, #20
00002fc4 1b89 0001101110001001 sub r1, r1, r6
00002fc6 0ae6 0000101011100110 lsrs  r6, r4, #11
00002fc8 0564 0000010101100100 lsls  r4, r4, #21
00002fca 0d64 0000110101100100 lsrs  r4, r4, #21
00002fcc d002 1101000000000010 beq.n 2fd4 ; PC + 8

00002fce 1c65 0001110001100101 adds r5, r4, #1   ;0x1
00002fd0 0aed 0000101011101101 lsrs  r5, r5, #11
00002fd2 d004 1101000000000100 beq.n 2fde ; PC + 12

00002fd4 2000 0010000000000000 movs r0, #0  ; 0x00
00002fd6 2101 0010000100000001 movs r1, #1  ; 0x01
00002fd8 0509 0000010100001001 lsls  r1, r1, #20
00002fda 3c80 0011110010000000 subs r4, #128  ; 0x80
00002fdc 0324 0000001100100100 lsls  r4, r4, #12
00002fde 46a4 0100011010100100 mov  ip, r4
00002fe0 0d1c 0000110100011100 lsrs  r4, r3, #20
00002fe2 1e67 0001111001100111 subs  r7, r4, #1   ;0x1
00002fe4 053f 0000010100111111 lsls  r7, r7, #20
00002fe6 1bdb 0001101111011011 sub r3, r3, r7
00002fe8 0ae7 0000101011100111 lsrs  r7, r4, #11
00002fea 0564 0000010101100100 lsls  r4, r4, #21
00002fec 0d64 0000110101100100 lsrs  r4, r4, #21
00002fee d002 1101000000000010 beq.n 2ff6 ; PC + 8

00002ff0 1c65 0001110001100101 adds r5, r4, #1   ;0x1
00002ff2 0aed 0000101011101101 lsrs  r5, r5, #11
00002ff4 d004 1101000000000100 beq.n 3000 ; PC + 12

00002ff6 2200 0010001000000000 movs r2, #0  ; 0x00
00002ff8 2301 0010001100000001 movs r3, #1  ; 0x01
00002ffa 051b 0000010100011011 lsls  r3, r3, #20
00002ffc 3c80 0011110010000000 subs r4, #128  ; 0x80
00002ffe 0324 0000001100100100 lsls  r4, r4, #12
00003000 4077 0100000001110111 eors  r7, r6
00003002 4464 0100010001100100 adds r4, r4
00003004 b497 1011010010010111 push {r0, r1, r2, r4, r7}
00003006 b284 1011001010000100 uxth
00003008 b296 1011001010010110 uxth
0000300a 4374 0100001101110100 muls  r4, r6
0000300c 0c07 0000110000000111 lsrs  r7, r0, #16
0000300e 437e 0100001101111110 muls  r6, r7
00003010 0c15 0000110000010101 lsrs  r5, r2, #16
00003012 436f 0100001101101111 muls  r7, r5
00003014 b280 1011001010000000 uxth
00003016 4368 0100001101101000 muls  r0, r5
00003018 1836 0001100000110110 adds r6, r6, r0
0000301a d302 1101001100000010 bcc.n 3022 ; PC + 8

0000301c 2001 0010000000000001 movs r0, #1  ; 0x01
0000301e 0400 0000010000000000 lsls  r0, r0, #16
00003020 183f 0001100000111111 adds r7, r7, r0
00003022 0430 0000010000110000 lsls  r0, r6, #16
00003024 0c35 0000110000110101 lsrs  r5, r6, #16
00003026 1900 0001100100000000 adds r0, r0, r4
00003028 417d 0100000101111101 adc  r5, r7
0000302a 4684 0100011010000100 mov  ip, r0
0000302c b288 1011001010001000 uxth
0000302e b29a 1011001010011010 uxth
00003030 4350 0100001101010000 muls  r0, r2
00003032 0c0c 0000110000001100 lsrs  r4, r1, #16
00003034 4362 0100001101100010 muls  r2, r4
00003036 0c1f 0000110000011111 lsrs  r7, r3, #16
00003038 437c 0100001101111100 muls  r4, r7
0000303a b28e 1011001010001110 uxth
0000303c 437e 0100001101111110 muls  r6, r7
0000303e 1992 0001100110010010 adds r2, r2, r6
00003040 d302 1101001100000010 bcc.n 3048 ; PC + 8

00003042 2601 0010011000000001 movs r6, #1  ; 0x01
00003044 0436 0000010000110110 lsls  r6, r6, #16
00003046 19a4 0001100110100100 adds r4, r4, r6
00003048 0416 0000010000010110 lsls  r6, r2, #16
0000304a 0c17 0000110000010111 lsrs  r7, r2, #16
0000304c 1836 0001100000110110 adds r6, r6, r0
0000304e 4167 0100000101100111 adc  r7, r4
00003050 bc01 1011110000000001 pop {r0}
00003052 b281 1011001010000001 uxth
00003054 b29a 1011001010011010 uxth
00003056 4351 0100001101010001 muls  r1, r2
00003058 0c04 0000110000000100 lsrs  r4, r0, #16
0000305a 4362 0100001101100010 muls  r2, r4
0000305c 0c1b 0000110000011011 lsrs  r3, r3, #16
0000305e 435c 0100001101011100 muls  r4, r3
00003060 b280 1011001010000000 uxth
00003062 4358 0100001101011000 muls  r0, r3
00003064 1812 0001100000010010 adds r2, r2, r0
00003066 d302 1101001100000010 bcc.n 306e ; PC + 8

00003068 2001 0010000000000001 movs r0, #1  ; 0x01
0000306a 0400 0000010000000000 lsls  r0, r0, #16
0000306c 1824 0001100000100100 adds r4, r4, r0
0000306e 0410 0000010000010000 lsls  r0, r2, #16
00003070 0c13 0000110000010011 lsrs  r3, r2, #16
00003072 1840 0001100001000000 adds r0, r0, r1
00003074 4163 0100000101100011 adc  r3, r4
00003076 182d 0001100000101101 adds r5, r5, r0
00003078 415e 0100000101011110 adc  r6, r3
0000307a 2000 0010000000000000 movs r0, #0  ; 0x00
0000307c 4147 0100000101000111 adc  r7, r0
0000307e bc06 1011110000000110 pop {r1, r2}
00003080 b288 1011001010001000 uxth
00003082 b293 1011001010010011 uxth
00003084 4358 0100001101011000 muls  r0, r3
00003086 0c0c 0000110000001100 lsrs  r4, r1, #16
00003088 4363 0100001101100011 muls  r3, r4
0000308a 0c12 0000110000010010 lsrs  r2, r2, #16
0000308c 4354 0100001101010100 muls  r4, r2
0000308e b289 1011001010001001 uxth
00003090 4351 0100001101010001 muls  r1, r2
00003092 185b 0001100001011011 adds r3, r3, r1
00003094 d302 1101001100000010 bcc.n 309c ; PC + 8

00003096 2101 0010000100000001 movs r1, #1  ; 0x01
00003098 0409 0000010000001001 lsls  r1, r1, #16
0000309a 1864 0001100001100100 adds r4, r4, r1
0000309c 0419 0000010000011001 lsls  r1, r3, #16
0000309e 0c1a 0000110000011010 lsrs  r2, r3, #16
000030a0 1809 0001100000001001 adds r1, r1, r0
000030a2 4162 0100000101100010 adc  r2, r4
000030a4 186d 0001100001101101 adds r5, r5, r1
000030a6 4156 0100000101010110 adc  r6, r2
000030a8 2000 0010000000000000 movs r0, #0  ; 0x00
000030aa 4147 0100000101000111 adc  r7, r0
000030ac bc18 1011110000011000 pop {r3, r4}
000030ae 02f9 0000001011111001 lsls  r1, r7, #11
000030b0 0d72 0000110101110010 lsrs  r2, r6, #21
000030b2 4311 0100001100010001 orrs  r1, r2
000030b4 02f0 0000001011110000 lsls  r0, r6, #11
000030b6 0d6a 0000110101101010 lsrs  r2, r5, #21
000030b8 4310 0100001100010000 orrs  r0, r2
000030ba 02ed 0000001011101101 lsls  r5, r5, #11
000030bc 0d0a 0000110100001010 lsrs  r2, r1, #20
000030be d103 1101000100000011 bne.n 30c8 ; PC + 10

000030c0 196d 0001100101101101 adds r5, r5, r5
000030c2 4140 0100000101000000 adc  r0, r0
000030c4 4149 0100000101001001 adc  r1, r1
000030c6 3b01 0011101100000001 subs r3, #1  ; 0x01
000030c8 4e12 0100111000010010 ldr  r6, [pc, #72] ; 0x0048
000030ca 1b9b 0001101110011011 sub r3, r3, r6
000030cc 0076 0000000001110110 lsls  r6, r6, #1
000030ce 42b3 0100001010110011 cmp  r3, r6
000030d0 d20e 1101001000001110 bcs.n 30f0 ; PC + 32

000030d2 006d 0000000001101101 lsls  r5, r5, #1
000030d4 d307 1101001100000111 bcc.n 30e6 ; PC + 18

000030d6 3001 0011000000000001 adds r0, #1  ; 0x01
000030d8 2600 0010011000000000 movs r6, #0  ; 0x00
000030da 4171 0100000101110001 adc  r1, r6
000030dc 4666 0100011001100110 mov  r6, ip
000030de 4335 0100001100110101 orrs  r5, r6
000030e0 d101 1101000100000001 bne.n 30e6 ; PC + 6

000030e2 0840 0000100001000000 lsrs  r0, r0, #1
000030e4 0040 0000000001000000 lsls  r0, r0, #1
000030e6 051b 0000010100011011 lsls  r3, r3, #20
000030e8 18c9 0001100011001001 adds r1, r1, r3
000030ea 07e4 0000011111100100 lsls  r4, r4, #31
000030ec 4421 0100010000100001 adds r1, r4
000030ee bdf0 1011110111110000 pop {r4, r5, r6, r7, pc}
000030f0 da0b 1101101000001011 bge.n 310a ; PC + 26

000030f2 3301 0011001100000001 adds r3, #1  ; 0x01
000030f4 d106 1101000100000110 bne.n 3104 ; PC + 16

000030f6 3001 0011000000000001 adds r0, #1  ; 0x01
000030f8 d104 1101000100000100 bne.n 3104 ; PC + 12

000030fa 3101 0011000100000001 adds r1, #1  ; 0x01
000030fc 0d4f 0000110101001111 lsrs  r7, r1, #21
000030fe d001 1101000000000001 beq.n 3104 ; PC + 6

00003100 0849 0000100001001001 lsrs  r1, r1, #1
00003102 e7f2 1110011111110010 b.n  30ea

00003104 07e1 0000011111100001 lsls  r1, r4, #31
00003106 2000 0010000000000000 movs r0, #0  ; 0x00
00003108 bdf0 1011110111110000 pop {r4, r5, r6, r7, pc}
0000310a 3601 0011011000000001 adds r6, #1  ; 0x01
0000310c 0531 0000010100110001 lsls  r1, r6, #20
0000310e 2000 0010000000000000 movs r0, #0  ; 0x00
00003110 e7eb 1110011111101011 b.n  30ea

00003110 .word 7ff00000
00003114 .word 000003ff

00003118 b5f0 1011010111110000 push {r4, r5, r6, r7, lr}
0000311a 0d1c 0000110100011100 lsrs  r4, r3, #20
0000311c 1e67 0001111001100111 subs  r7, r4, #1   ;0x1
0000311e 053f 0000010100111111 lsls  r7, r7, #20
00003120 1bdb 0001101111011011 sub r3, r3, r7
00003122 0ae7 0000101011100111 lsrs  r7, r4, #11
00003124 0564 0000010101100100 lsls  r4, r4, #21
00003126 0d64 0000110101100100 lsrs  r4, r4, #21
00003128 d002 1101000000000010 beq.n 3130 ; PC + 8

0000312a 1c66 0001110001100110 adds r6, r4, #1   ;0x1
0000312c 0af6 0000101011110110 lsrs  r6, r6, #11
0000312e d004 1101000000000100 beq.n 313a ; PC + 12

00003130 2200 0010001000000000 movs r2, #0  ; 0x00
00003132 2301 0010001100000001 movs r3, #1  ; 0x01
00003134 051b 0000010100011011 lsls  r3, r3, #20
00003136 3c80 0011110010000000 subs r4, #128  ; 0x80
00003138 0324 0000001100100100 lsls  r4, r4, #12
0000313a 25d0 0010010111010000 movs r5, #208  ; 0xd0
0000313c 062d 0000011000101101 lsls  r5, r5, #24
0000313e 2600 0010011000000000 movs r6, #0  ; 0x00
00003140 43f6 0100001111110110 mvns  r6, r6
00003142 662e 0110011000101110 str  r6, [r5, #96] ; 0x60
00003144 091e 0000100100011110 lsrs  r6, r3, #4
00003146 666e 0110011001101110 str  r6, [r5, #100] ; 0x64
00003148 0fce 0000111111001110 lsrs  r6, r1, #31
0000314a 19f6 0001100111110110 adds r6, r6, r7
0000314c 46b4 0100011010110100 mov  ip, r6
0000314e 0049 0000000001001001 lsls  r1, r1, #1
00003150 0d4f 0000110101001111 lsrs  r7, r1, #21
00003152 d002 1101000000000010 beq.n 315a ; PC + 8

00003154 1c7e 0001110001111110 adds r6, r7, #1   ;0x1
00003156 0af6 0000101011110110 lsrs  r6, r6, #11
00003158 d003 1101000000000011 beq.n 3162 ; PC + 10

0000315a 2000 0010000000000000 movs r0, #0  ; 0x00
0000315c 2100 0010000100000000 movs r1, #0  ; 0x00
0000315e 3f40 0011111101000000 subs r7, #64  ; 0x40
00003160 033f 0000001100111111 lsls  r7, r7, #12
00003162 1b3e 0001101100111110 sub r6, r7, r4
00003164 00b6 0000000010110110 lsls  r6, r6, #2
00003166 44b4 0100010010110100 adds r12, r6
00003168 3f01 0011111100000001 subs r7, #1  ; 0x01
0000316a 057f 0000010101111111 lsls  r7, r7, #21
0000316c 1bc9 0001101111001001 sub r1, r1, r7
0000316e 0849 0000100001001001 lsrs  r1, r1, #1
00003170 6f2e 0110111100101110 ldr  r6, [r5, #112] ; 0x70
00003172 3601 0011011000000001 adds r6, #1  ; 0x01
00003174 0876 0000100001110110 lsrs  r6, r6, #1
00003176 029c 0000001010011100 lsls  r4, r3, #10
00003178 0d95 0000110110010101 lsrs  r5, r2, #22
0000317a 4325 0100001100100101 orrs  r5, r4
0000317c 4375 0100001101110101 muls  r5, r6
0000317e 13ed 0001001111101101 asr   r5, r5, #79
00003180 4375 0100001101110101 muls  r5, r6
00003182 13ad 0001001110101101 asr   r5, r5, #78
00003184 3501 0011010100000001 adds r5, #1  ; 0x01
00003186 106d 0001000001101101 asr   r5, r5, #65
00003188 03f6 0000001111110110 lsls  r6, r6, #15
0000318a 1b76 0001101101110110 sub r6, r6, r5
0000318c b40c 1011010000001100 push {r2, r3}
0000318e 02cc 0000001011001100 lsls  r4, r1, #11
00003190 0d45 0000110101000101 lsrs  r5, r0, #21
00003192 432c 0100001100101100 orrs  r4, r5
00003194 b2a2 1011001010100010 uxth
00003196 b2b3 1011001010110011 uxth
00003198 435a 0100001101011010 muls  r2, r3
0000319a 0c27 0000110000100111 lsrs  r7, r4, #16
0000319c 437b 0100001101111011 muls  r3, r7
0000319e 0c35 0000110000110101 lsrs  r5, r6, #16
000031a0 436f 0100001101101111 muls  r7, r5
000031a2 b2a4 1011001010100100 uxth
000031a4 436c 0100001101101100 muls  r4, r5
000031a6 191b 0001100100011011 adds r3, r3, r4
000031a8 d302 1101001100000010 bcc.n 31b0 ; PC + 8

000031aa 2401 0010010000000001 movs r4, #1  ; 0x01
000031ac 0424 0000010000100100 lsls  r4, r4, #16
000031ae 193f 0001100100111111 adds r7, r7, r4
000031b0 041c 0000010000011100 lsls  r4, r3, #16
000031b2 0c1d 0000110000011101 lsrs  r5, r3, #16
000031b4 18a4 0001100010100100 adds r4, r4, r2
000031b6 417d 0100000101111101 adc  r5, r7
000031b8 1924 0001100100100100 adds r4, r4, r4
000031ba 416d 0100000101101101 adc  r5, r5
000031bc 9a00 1001101000000000 ldr r2, [sp, #0]
000031be b291 1011001010010001 uxth
000031c0 b2ac 1011001010101100 uxth
000031c2 4361 0100001101100001 muls  r1, r4
000031c4 0c17 0000110000010111 lsrs  r7, r2, #16
000031c6 437c 0100001101111100 muls  r4, r7
000031c8 0c2b 0000110000101011 lsrs  r3, r5, #16
000031ca 435f 0100001101011111 muls  r7, r3
000031cc b292 1011001010010010 uxth
000031ce 435a 0100001101011010 muls  r2, r3
000031d0 18a4 0001100010100100 adds r4, r4, r2
000031d2 d302 1101001100000010 bcc.n 31da ; PC + 8

000031d4 2201 0010001000000001 movs r2, #1  ; 0x01
000031d6 0412 0000010000010010 lsls  r2, r2, #16
000031d8 18bf 0001100010111111 adds r7, r7, r2
000031da 0422 0000010000100010 lsls  r2, r4, #16
000031dc 0c23 0000110000100011 lsrs  r3, r4, #16
000031de 1852 0001100001010010 adds r2, r2, r1
000031e0 417b 0100000101111011 adc  r3, r7
000031e2 9c01 1001110000000001 ldr r4, [sp, #4]
000031e4 436c 0100001101101100 muls  r4, r5
000031e6 191b 0001100100011011 adds r3, r3, r4
000031e8 0e52 0000111001010010 lsrs  r2, r2, #25
000031ea 01d9 0000000111011001 lsls  r1, r3, #7
000031ec 430a 0100001100001010 orrs  r2, r1
000031ee 0144 0000000101000100 lsls  r4, r0, #5
000031f0 1aa0 0001101010100000 sub r0, r4, r2
000031f2 b281 1011001010000001 uxth
000031f4 b2b2 1011001010110010 uxth
000031f6 4351 0100001101010001 muls  r1, r2
000031f8 1403 0001010000000011 asr   r3, r0, #80
000031fa 435a 0100001101011010 muls  r2, r3
000031fc 0c36 0000110000110110 lsrs  r6, r6, #16
000031fe 4373 0100001101110011 muls  r3, r6
00003200 b287 1011001010000111 uxth
00003202 4377 0100001101110111 muls  r7, r6
00003204 17d6 0001011111010110 asr   r6, r2, #95
00003206 19d2 0001100111010010 adds r2, r2, r7
00003208 2700 0010011100000000 movs r7, #0  ; 0x00
0000320a 417e 0100000101111110 adc  r6, r7
0000320c 0436 0000010000110110 lsls  r6, r6, #16
0000320e 199b 0001100110011011 adds r3, r3, r6
00003210 0417 0000010000010111 lsls  r7, r2, #16
00003212 0c16 0000110000010110 lsrs  r6, r2, #16
00003214 187f 0001100001111111 adds r7, r7, r1
00003216 415e 0100000101011110 adc  r6, r3
00003218 1673 0001011001110011 asr   r3, r6, #89
0000321a 18ed 0001100011101101 adds r5, r5, r3
0000321c 01f3 0000000111110011 lsls  r3, r6, #7
0000321e 2600 0010011000000000 movs r6, #0  ; 0x00
00003220 3380 0011001110000000 adds r3, #128  ; 0x80
00003222 4175 0100000101110101 adc  r5, r6
00003224 0fa9 0000111110101001 lsrs  r1, r5, #30
00003226 d106 1101000100000110 bne.n 3236 ; PC + 16

00003228 0064 0000000001100100 lsls  r4, r4, #1
0000322a 0a69 0000101001101001 lsrs  r1, r5, #9
0000322c 05e8 0000010111101000 lsls  r0, r5, #23
0000322e 0a5b 0000101001011011 lsrs  r3, r3, #9
00003230 4318 0100001100011000 orrs  r0, r3
00003232 d209 1101001000001001 bcs.n 3248 ; PC + 22

00003234 e02f 1110000000101111 b.n  3296

00003236 2204 0010001000000100 movs r2, #4  ; 0x04
00003238 4494 0100010010010100 adds r12, r2
0000323a 3380 0011001110000000 adds r3, #128  ; 0x80
0000323c 4175 0100000101110101 adc  r5, r6
0000323e 0aa9 0000101010101001 lsrs  r1, r5, #10
00003240 05a8 0000010110101000 lsls  r0, r5, #22
00003242 0a9b 0000101010011011 lsrs  r3, r3, #10
00003244 4318 0100001100011000 orrs  r0, r3
00003246 d326 1101001100100110 bcc.n 3296 ; PC + 80

00003248 4140 0100000101000000 adc  r0, r0
0000324a 4149 0100000101001001 adc  r1, r1
0000324c 0424 0000010000100100 lsls  r4, r4, #16
0000324e 9a00 1001101000000000 ldr r2, [sp, #0]
00003250 9b01 1001101100000001 ldr r3, [sp, #4]
00003252 000d 0000000000001101 movs r5, r1
00003254 4355 0100001101010101 muls  r5, r2
00003256 1b64 0001101101100100 sub r4, r4, r5
00003258 4343 0100001101000011 muls  r3, r0
0000325a 1ae4 0001101011100100 sub r4, r4, r3
0000325c b295 1011001010010101 uxth
0000325e b286 1011001010000110 uxth
00003260 4375 0100001101110101 muls  r5, r6
00003262 0c17 0000110000010111 lsrs  r7, r2, #16
00003264 437e 0100001101111110 muls  r6, r7
00003266 0c03 0000110000000011 lsrs  r3, r0, #16
00003268 435f 0100001101011111 muls  r7, r3
0000326a b292 1011001010010010 uxth
0000326c 435a 0100001101011010 muls  r2, r3
0000326e 18b6 0001100010110110 adds r6, r6, r2
00003270 d302 1101001100000010 bcc.n 3278 ; PC + 8

00003272 2201 0010001000000001 movs r2, #1  ; 0x01
00003274 0412 0000010000010010 lsls  r2, r2, #16
00003276 18bf 0001100010111111 adds r7, r7, r2
00003278 0432 0000010000110010 lsls  r2, r6, #16
0000327a 0c33 0000110000110011 lsrs  r3, r6, #16
0000327c 1952 0001100101010010 adds r2, r2, r5
0000327e 417b 0100000101111011 adc  r3, r7
00003280 4252 0100001001010010 rsb  r2, r2
00003282 419c 0100000110011100 sbc  r4, r3
00003284 2c00 0010110000000000 cmp r4, #0  ; 0x00
00003286 d402 1101010000000010 bmi.n 328e ; PC + 8

00003288 2200 0010001000000000 movs r2, #0  ; 0x00
0000328a 3001 0011000000000001 adds r0, #1  ; 0x01
0000328c 4151 0100000101010001 adc  r1, r2
0000328e 0840 0000100001000000 lsrs  r0, r0, #1
00003290 07ca 0000011111001010 lsls  r2, r1, #31
00003292 4310 0100001100010000 orrs  r0, r2
00003294 0849 0000100001001001 lsrs  r1, r1, #1
00003296 b002 1011000000000010 add r0, sp, #8
00003298 4662 0100011001100010 mov  r2, ip
0000329a 07d7 0000011111010111 lsls  r7, r2, #31
0000329c 1092 0001000010010010 asr   r2, r2, #66
0000329e 4b59 0100101101011001 ldr  r3, [pc, #356] ; 0x0164
000032a0 18d2 0001100011010010 adds r2, r2, r3
000032a2 4b59 0100101101011001 ldr  r3, [pc, #356] ; 0x0164
000032a4 429a 0100001010011010 cmp  r2, r3
000032a6 d203 1101001000000011 bcs.n 32b0 ; PC + 10

000032a8 0512 0000010100010010 lsls  r2, r2, #20
000032aa 1889 0001100010001001 adds r1, r1, r2
000032ac 19c9 0001100111001001 adds r1, r1, r7
000032ae bdf0 1011110111110000 pop {r4, r5, r6, r7, pc}
000032b0 2000 0010000000000000 movs r0, #0  ; 0x00
000032b2 2a00 0010101000000000 cmp r2, #0  ; 0x00
000032b4 dc01 1101110000000001 bgt.n 32ba ; PC + 6

000032b6 0039 0000000000111001 movs r1, r7
000032b8 bdf0 1011110111110000 pop {r4, r5, r6, r7, pc}
000032ba 3301 0011001100000001 adds r3, #1  ; 0x01
000032bc 0519 0000010100011001 lsls  r1, r3, #20
000032be e7f5 1110011111110101 b.n  32ac

000032c0 da07 1101101000000111 bge.n 32d2 ; PC + 18

000032c2 2100 0010000100000000 movs r1, #0  ; 0x00
000032c4 e007 1110000000000111 b.n  32d6

000032c6 0fc9 0000111111001001 lsrs  r1, r1, #31
000032c8 07c9 0000011111001001 lsls  r1, r1, #31
000032ca 0d52 0000110101010010 lsrs  r2, r2, #21
000032cc d003 1101000000000011 beq.n 32d6 ; PC + 10

000032ce 12c9 0001001011001001 asr   r1, r1, #75
000032d0 e001 1110000000000001 b.n  32d6

000032d2 494e 0100100101001110 ldr  r1, [pc, #312] ; 0x0138
000032d4 0509 0000010100001001 lsls  r1, r1, #20
000032d6 2000 0010000000000000 movs r0, #0  ; 0x00
000032d8 4770 0100011101110000 bx lr

000032da 46c0 0100011011000000 nop  ; (mov  r8, r8)

000032dc 004a 0000000001001010 lsls  r2, r1, #1
000032de d2f2 1101001011110010 bcs.n 32c6 ; PC + -24

000032e0 0d52 0000110101010010 lsrs  r2, r2, #21
000032e2 3a01 0011101000000001 subs r2, #1  ; 0x01
000032e4 4b48 0100101101001000 ldr  r3, [pc, #288] ; 0x0120
000032e6 429a 0100001010011010 cmp  r2, r3
000032e8 d2ea 1101001011101010 bcs.n 32c0 ; PC + -40

000032ea b5f0 1011010111110000 push {r4, r5, r6, r7, lr}
000032ec 0514 0000010100010100 lsls  r4, r2, #20
000032ee 1b09 0001101100001001 sub r1, r1, r4
000032f0 0852 0000100001010010 lsrs  r2, r2, #1
000032f2 d301 1101001100000001 bcc.n 32f8 ; PC + 6

000032f4 1800 0001100000000000 adds r0, r0, r0
000032f6 4149 0100000101001001 adc  r1, r1
000032f8 089b 0000100010011011 lsrs  r3, r3, #2
000032fa 18d2 0001100011010010 adds r2, r2, r3
000032fc 0512 0000010100010010 lsls  r2, r2, #20
000032fe 4694 0100011010010100 mov  ip, r2
00003300 a441 1010010001000001 add r4, pc, #260
00003302 0c4a 0000110001001010 lsrs  r2, r1, #17
00003304 5ca2 0101110010100010 ldrb r2, [r4, r2]
00003306 090b 0000100100001011 lsrs  r3, r1, #4
00003308 4353 0100001101010011 muls  r3, r2
0000330a 4353 0100001101010011 muls  r3, r2
0000330c 131b 0001001100011011 asr   r3, r3, #76
0000330e 4353 0100001101010011 muls  r3, r2
00003310 135b 0001001101011011 asr   r3, r3, #77
00003312 0212 0000001000010010 lsls  r2, r2, #8
00003314 1ad2 0001101011010010 sub r2, r2, r3
00003316 0013 0000000000010011 movs r3, r2
00003318 435b 0100001101011011 muls  r3, r3
0000331a 0b5b 0000101101011011 lsrs  r3, r3, #13
0000331c 084c 0000100001001100 lsrs  r4, r1, #1
0000331e 4363 0100001101100011 muls  r3, r4
00003320 13db 0001001111011011 asr   r3, r3, #79
00003322 4353 0100001101010011 muls  r3, r2
00003324 15db 0001010111011011 asr   r3, r3, #87
00003326 3301 0011001100000001 adds r3, #1  ; 0x01
00003328 105b 0001000001011011 asr   r3, r3, #65
0000332a 1ad2 0001101011010010 sub r2, r2, r3
0000332c 0c13 0000110000010011 lsrs  r3, r2, #16
0000332e 1ad2 0001101011010010 sub r2, r2, r3
00003330 0013 0000000000010011 movs r3, r2
00003332 435b 0100001101011011 muls  r3, r3
00003334 0289 0000001010001001 lsls  r1, r1, #10
00003336 0d84 0000110110000100 lsrs  r4, r0, #22
00003338 4321 0100001100100001 orrs  r1, r4
0000333a b28d 1011001010001101 uxth
0000333c b29e 1011001010011110 uxth
0000333e 4375 0100001101110101 muls  r5, r6
00003340 0c0f 0000110000001111 lsrs  r7, r1, #16
00003342 437e 0100001101111110 muls  r6, r7
00003344 0c1b 0000110000011011 lsrs  r3, r3, #16
00003346 435f 0100001101011111 muls  r7, r3
00003348 b28c 1011001010001100 uxth
0000334a 435c 0100001101011100 muls  r4, r3
0000334c 1936 0001100100110110 adds r6, r6, r4
0000334e d302 1101001100000010 bcc.n 3356 ; PC + 8

00003350 2401 0010010000000001 movs r4, #1  ; 0x01
00003352 0424 0000010000100100 lsls  r4, r4, #16
00003354 193f 0001100100111111 adds r7, r7, r4
00003356 0434 0000010000110100 lsls  r4, r6, #16
00003358 0c33 0000110000110011 lsrs  r3, r6, #16
0000335a 1964 0001100101100100 adds r4, r4, r5
0000335c 417b 0100000101111011 adc  r3, r7
0000335e 019d 0000000110011101 lsls  r5, r3, #6
00003360 0ea4 0000111010100100 lsrs  r4, r4, #26
00003362 432c 0100001100101100 orrs  r4, r5
00003364 3420 0011010000100000 adds r4, #32  ; 0x20
00003366 b2a5 1011001010100101 uxth
00003368 4355 0100001101010101 muls  r5, r2
0000336a 1424 0001010000100100 asr   r4, r4, #80
0000336c 4354 0100001101010100 muls  r4, r2
0000336e 0c2d 0000110000101101 lsrs  r5, r5, #16
00003370 1964 0001100101100100 adds r4, r4, r5
00003372 11a4 0001000110100100 asr   r4, r4, #70
00003374 03d2 0000001111010010 lsls  r2, r2, #15
00003376 1b12 0001101100010010 sub r2, r2, r4
00003378 b295 1011001010010101 uxth
0000337a b28e 1011001010001110 uxth
0000337c 4375 0100001101110101 muls  r5, r6
0000337e 0c17 0000110000010111 lsrs  r7, r2, #16
00003380 437e 0100001101111110 muls  r6, r7
00003382 0c0c 0000110000001100 lsrs  r4, r1, #16
00003384 4367 0100001101100111 muls  r7, r4
00003386 b293 1011001010010011 uxth
00003388 4363 0100001101100011 muls  r3, r4
0000338a 18f6 0001100011110110 adds r6, r6, r3
0000338c d302 1101001100000010 bcc.n 3394 ; PC + 8

0000338e 2301 0010001100000001 movs r3, #1  ; 0x01
00003390 041b 0000010000011011 lsls  r3, r3, #16
00003392 18ff 0001100011111111 adds r7, r7, r3
00003394 0433 0000010000110011 lsls  r3, r6, #16
00003396 0c34 0000110000110100 lsrs  r4, r6, #16
00003398 195b 0001100101011011 adds r3, r3, r5
0000339a 417c 0100000101111100 adc  r4, r7
0000339c 18db 0001100011011011 adds r3, r3, r3
0000339e 4164 0100000101100100 adc  r4, r4
000033a0 18db 0001100011011011 adds r3, r3, r3
000033a2 2300 0010001100000000 movs r3, #0  ; 0x00
000033a4 4163 0100000101100011 adc  r3, r4
000033a6 b29e 1011001010011110 uxth
000033a8 4376 0100001101110110 muls  r6, r6
000033aa b29d 1011001010011101 uxth
000033ac 0c1f 0000110000011111 lsrs  r7, r3, #16
000033ae 437d 0100001101111101 muls  r5, r7
000033b0 437f 0100001101111111 muls  r7, r7
000033b2 046c 0000010001101100 lsls  r4, r5, #17
000033b4 0bed 0000101111101101 lsrs  r5, r5, #15
000033b6 19a4 0001100110100100 adds r4, r4, r6
000033b8 417d 0100000101111101 adc  r5, r7
000033ba 0206 0000001000000110 lsls  r6, r0, #8
000033bc 088f 0000100010001111 lsrs  r7, r1, #2
000033be 1b36 0001101100110110 sub r6, r6, r4
000033c0 41af 0100000110101111 sbc  r7, r5
000033c2 077d 0000011101111101 lsls  r5, r7, #29
000033c4 08f6 0000100011110110 lsrs  r6, r6, #3
000033c6 416e 0100000101101110 adc  r6, r5
000033c8 b2b4 1011001010110100 uxth
000033ca b295 1011001010010101 uxth
000033cc 436c 0100001101101100 muls  r4, r5
000033ce 1437 0001010000110111 asr   r7, r6, #80
000033d0 437d 0100001101111101 muls  r5, r7
000033d2 0c12 0000110000010010 lsrs  r2, r2, #16
000033d4 4357 0100001101010111 muls  r7, r2
000033d6 b2b6 1011001010110110 uxth
000033d8 4356 0100001101010110 muls  r6, r2
000033da 17ea 0001011111101010 asr   r2, r5, #95
000033dc 19ad 0001100110101101 adds r5, r5, r6
000033de 2600 0010011000000000 movs r6, #0  ; 0x00
000033e0 4172 0100000101110010 adc  r2, r6
000033e2 0412 0000010000010010 lsls  r2, r2, #16
000033e4 18bf 0001100010111111 adds r7, r7, r2
000033e6 042e 0000010000101110 lsls  r6, r5, #16
000033e8 0c2a 0000110000101010 lsrs  r2, r5, #16
000033ea 1936 0001100100110110 adds r6, r6, r4
000033ec 417a 0100000101111010 adc  r2, r7
000033ee 3208 0011001000001000 adds r2, #8  ; 0x08
000033f0 1152 0001000101010010 asr   r2, r2, #69
000033f2 d219 1101001000011001 bcs.n 3428 ; PC + 54

000033f4 0a9d 0000101010011101 lsrs  r5, r3, #10
000033f6 059c 0000010110011100 lsls  r4, r3, #22
000033f8 17d1 0001011111010001 asr   r1, r2, #95
000033fa 1910 0001100100010000 adds r0, r2, r4
000033fc 4169 0100000101101001 adc  r1, r5
000033fe 4461 0100010001100001 adds r1, r4
00003400 bdf0 1011110111110000 pop {r4, r5, r6, r7, pc}
00003400 .word 000003ff
00003404 .word 000003fd
00003408 .word 000007fe
0000340c .word 000007ff
00003410 .word d6dfebf8
00003414 .word b8bec5cd
00003418 .word a4a8adb2
0000341c .word 95999ca0
00003420 .word 8a8d8f92
00003424 .word 81838588

00003428 4152 0100000101010010 adc  r2, r2
0000342a 0a5d 0000101001011101 lsrs  r5, r3, #9
0000342c 05dc 0000010111011100 lsls  r4, r3, #23
0000342e 17d1 0001011111010001 asr   r1, r2, #95
00003430 1914 0001100100010100 adds r4, r2, r4
00003432 414d 0100000101001101 adc  r5, r1
00003434 002b 0000000000101011 movs r3, r5
00003436 4363 0100001101100011 muls  r3, r4
00003438 b2a6 1011001010100110 uxth
0000343a 4376 0100001101110110 muls  r6, r6
0000343c b2a2 1011001010100010 uxth
0000343e 0c27 0000110000100111 lsrs  r7, r4, #16
00003440 437a 0100001101111010 muls  r2, r7
00003442 437f 0100001101111111 muls  r7, r7
00003444 0451 0000010001010001 lsls  r1, r2, #17
00003446 0bd2 0000101111010010 lsrs  r2, r2, #15
00003448 1989 0001100110001001 adds r1, r1, r6
0000344a 417a 0100000101111010 adc  r2, r7
0000344c 18d2 0001100011010010 adds r2, r2, r3
0000344e 18d2 0001100011010010 adds r2, r2, r3
00003450 0580 0000010110000000 lsls  r0, r0, #22
00003452 4249 0100001001001001 rsb  r1, r1
00003454 4190 0100000110010000 sbc  r0, r2
00003456 d402 1101010000000010 bmi.n 345e ; PC + 8

00003458 2300 0010001100000000 movs r3, #0  ; 0x00
0000345a 3401 0011010000000001 adds r4, #1  ; 0x01
0000345c 415d 0100000101011101 adc  r5, r3
0000345e 0860 0000100001100000 lsrs  r0, r4, #1
00003460 0869 0000100001101001 lsrs  r1, r5, #1
00003462 07ed 0000011111101101 lsls  r5, r5, #31
00003464 4328 0100001100101000 orrs  r0, r5
00003466 4461 0100010001100001 adds r1, r4
00003468 bdf0 1011110111110000 pop {r4, r5, r6, r7, pc}
0000346a b5d0 1011010111010000 push {r4, r6, r7, lr}
0000346c e011 1110000000010001 b.n  3492

0000346e b5d0 1011010111010000 push {r4, r6, r7, lr}
00003470 4fb3 0100111110110011 ldr  r7, [pc, #716] ; 0x02cc
00003472 004c 0000000001001100 lsls  r4, r1, #1
00003474 0d64 0000110101100100 lsrs  r4, r4, #21
00003476 d001 1101000000000001 beq.n 347c ; PC + 6

00003478 42bc 0100001010111100 cmp  r4, r7
0000347a d102 1101000100000010 bne.n 3482 ; PC + 8

0000347c 2000 0010000000000000 movs r0, #0  ; 0x00
0000347e 0d09 0000110100001001 lsrs  r1, r1, #20
00003480 0509 0000010100001001 lsls  r1, r1, #20
00003482 005c 0000000001011100 lsls  r4, r3, #1
00003484 0d64 0000110101100100 lsrs  r4, r4, #21
00003486 d001 1101000000000001 beq.n 348c ; PC + 6

00003488 42bc 0100001010111100 cmp  r4, r7
0000348a d102 1101000100000010 bne.n 3492 ; PC + 8

0000348c 2200 0010001000000000 movs r2, #0  ; 0x00
0000348e 0d1b 0000110100011011 lsrs  r3, r3, #20
00003490 051b 0000010100011011 lsls  r3, r3, #20
00003492 2601 0010011000000001 movs r6, #1  ; 0x01
00003494 404b 0100000001001011 eors  r3, r1
00003496 d40c 1101010000001100 bmi.n 34b2 ; PC + 28

00003498 404b 0100000001001011 eors  r3, r1
0000349a d500 1101010100000000 bpl.n 349e ; PC + 4

0000349c 4276 0100001001110110 rsb  r6, r6
0000349e 4299 0100001010011001 cmp  r1, r3
000034a0 d103 1101000100000011 bne.n 34aa ; PC + 10

000034a2 4290 0100001010010000 cmp  r0, r2
000034a4 d803 1101100000000011 bhi.n 34ae ; PC + 10

000034a6 d301 1101001100000001 bcc.n 34ac ; PC + 6

000034a8 2600 0010011000000000 movs r6, #0  ; 0x00
000034aa dc00 1101110000000000 bgt.n 34ae ; PC + 4

000034ac 4276 0100001001110110 rsb  r6, r6
000034ae 1e30 0001111000110000 subs  r0, r6, #0   ;0x0
000034b0 bdd0 1011110111010000 pop {r4, r6, r7, pc}
000034b2 430b 0100001100001011 orrs  r3, r1
000034b4 18db 0001100011011011 adds r3, r3, r3
000034b6 4303 0100001100000011 orrs  r3, r0
000034b8 4313 0100001100010011 orrs  r3, r2
000034ba d0f5 1101000011110101 beq.n 34a8 ; PC + -18

000034bc 2900 0010100100000000 cmp r1, #0  ; 0x00
000034be daf6 1101101011110110 bge.n 34ae ; PC + -16

000034c0 e7f4 1110011111110100 b.n  34ac

000034c2 4644 0100011001000100 mov  r4, r8
000034c4 464d 0100011001001101 mov  r5, r9
000034c6 4656 0100011001010110 mov  r6, r10
000034c8 465f 0100011001011111 mov  r7, r11
000034ca b4f0 1011010011110000 push {r4, r5, r6, r7}
000034cc 4770 0100011101110000 bx lr

000034ce bcf0 1011110011110000 pop {r4, r5, r6, r7}
000034d0 46a0 0100011010100000 mov  r8, r4
000034d2 46a9 0100011010101001 mov  r9, r5
000034d4 46b2 0100011010110010 mov  r10, r6
000034d6 46bb 0100011010111011 mov  r11, r7
000034d8 4770 0100011101110000 bx lr

000034da 4662 0100011001100010 mov  r2, ip
000034dc ca18 1100101000011000 ldmia r2, {r3}
000034de 4694 0100011010010100 mov  ip, r2
000034e0 465a 0100011001011010 mov  r2, r11
000034e2 2a00 0010101000000000 cmp r2, #0  ; 0x00
000034e4 db20 1101101100100000 blt.n 3528 ; PC + 68

000034e6 e004 1110000000000100 b.n  34f2

000034e8 4662 0100011001100010 mov  r2, ip
000034ea ca18 1100101000011000 ldmia r2, {r3}
000034ec 4694 0100011010010100 mov  ip, r2
000034ee 2900 0010100100000000 cmp r1, #0  ; 0x00
000034f0 da1a 1101101000011010 bge.n 3528 ; PC + 56

000034f2 18c0 0001100011000000 adds r0, r0, r3
000034f4 4161 0100000101100001 adc  r1, r4
000034f6 465b 0100011001011011 mov  r3, r11
000034f8 413b 0100000100111011 ars  r3, r7
000034fa 465c 0100011001011100 mov  r4, r11
000034fc 40b4 0100000010110100 lsl  r4, r6
000034fe 4652 0100011001010010 mov  r2, r10
00003500 40fa 0100000011111010 lsr  r2, r7
00003502 4322 0100001100100010 orrs  r2, r4
00003504 4644 0100011001000100 mov  r4, r8
00003506 464d 0100011001001101 mov  r5, r9
00003508 4162 0100000101100010 adc  r2, r4
0000350a 416b 0100000101101011 adc  r3, r5
0000350c 4690 0100011010010000 mov  r8, r2
0000350e 4699 0100011010011001 mov  r9, r3
00003510 462b 0100011000101011 mov  r3, r5
00003512 40b3 0100000010110011 lsl  r3, r6
00003514 413d 0100000100111101 ars  r5, r7
00003516 40fc 0100000011111100 lsr  r4, r7
00003518 431c 0100001100011100 orrs  r4, r3
0000351a 4652 0100011001010010 mov  r2, r10
0000351c 465b 0100011001011011 mov  r3, r11
0000351e 41a2 0100000110100010 sbc  r2, r4
00003520 41ab 0100000110101011 sbc  r3, r5
00003522 4692 0100011010010010 mov  r10, r2
00003524 469b 0100011010011011 mov  r11, r3
00003526 4770 0100011101110000 bx lr

00003528 1ac0 0001101011000000 sub r0, r0, r3
0000352a 41a1 0100000110100001 sbc  r1, r4
0000352c 464b 0100011001001011 mov  r3, r9
0000352e 413b 0100000100111011 ars  r3, r7
00003530 464c 0100011001001100 mov  r4, r9
00003532 40b4 0100000010110100 lsl  r4, r6
00003534 4642 0100011001000010 mov  r2, r8
00003536 40fa 0100000011111010 lsr  r2, r7
00003538 4322 0100001100100010 orrs  r2, r4
0000353a 4654 0100011001010100 mov  r4, r10
0000353c 465d 0100011001011101 mov  r5, r11
0000353e 4162 0100000101100010 adc  r2, r4
00003540 416b 0100000101101011 adc  r3, r5
00003542 4692 0100011010010010 mov  r10, r2
00003544 469b 0100011010011011 mov  r11, r3
00003546 462b 0100011000101011 mov  r3, r5
00003548 40b3 0100000010110011 lsl  r3, r6
0000354a 413d 0100000100111101 ars  r5, r7
0000354c 40fc 0100000011111100 lsr  r4, r7
0000354e 431c 0100001100011100 orrs  r4, r3
00003550 4642 0100011001000010 mov  r2, r8
00003552 464b 0100011001001011 mov  r3, r9
00003554 41a2 0100000110100010 sbc  r2, r4
00003556 41ab 0100000110101011 sbc  r3, r5
00003558 4690 0100011010010000 mov  r8, r2
0000355a 4699 0100011010011001 mov  r9, r3
0000355c 4770 0100011101110000 bx lr

0000355e 2000 0010000000000000 movs r0, #0  ; 0x00
00003560 2100 0010000100000000 movs r1, #0  ; 0x00
00003562 4770 0100011101110000 bx lr

00003564 2200 0010001000000000 movs r2, #0  ; 0x00
00003566 b500 1011010100000000 push {lr}
00003568 3220 0011001000100000 adds r2, #32  ; 0x20
0000356a f000 1111000000000000 (32-bit)
0000356c f82a 1111100000101010 bl   35c2

0000356e 0008 0000000000001000 movs r0, r1
00003570 bd00 1011110100000000 pop {pc}
00003572 2200 0010001000000000 movs r2, #0  ; 0x00
00003574 b500 1011010100000000 push {lr}
00003576 3220 0011001000100000 adds r2, #32  ; 0x20
00003578 f000 1111000000000000 (32-bit)
0000357a f830 1111100000110000 bl   35dc

0000357c 0008 0000000000001000 movs r0, r1
0000357e bd00 1011110100000000 pop {pc}
00003580 2100 0010000100000000 movs r1, #0  ; 0x00
00003582 b500 1011010100000000 push {lr}
00003584 f000 1111000000000000 (32-bit)
00003586 f804 1111100000000100 bl   3590

00003588 e01e 1110000000011110 b.n  35c8

0000358a 2100 0010000100000000 movs r1, #0  ; 0x00
0000358c 15c3 0001010111000011 asr   r3, r0, #87
0000358e d4e6 1101010011100110 bmi.n 355e ; PC + -48

00003590 b510 1011010100010000 push {r4, lr}
00003592 468c 0100011010001100 mov  ip, r1
00003594 17c3 0001011111000011 asr   r3, r0, #95
00003596 0040 0000000001000000 lsls  r0, r0, #1
00003598 0e02 0000111000000010 lsrs  r2, r0, #24
0000359a d00a 1101000000001010 beq.n 35b2 ; PC + 24

0000359c 2aff 0010101011111111 cmp r2, #255  ; 0xff
0000359e d00c 1101000000001100 beq.n 35ba ; PC + 28

000035a0 1e51 0001111001010001 subs  r1, r2, #1   ;0x1
000035a2 3a7f 0011101001111111 subs r2, #127  ; 0x7f
000035a4 0609 0000011000001001 lsls  r1, r1, #24
000035a6 1a40 0001101001000000 sub r0, r0, r1
000035a8 4058 0100000001011000 eors  r0, r3
000035aa 1ac0 0001101011000000 sub r0, r0, r3
000035ac 1101 0001000100000001 asr   r1, r0, #68
000035ae 0700 0000011100000000 lsls  r0, r0, #28
000035b0 e01f 1110000000011111 b.n  35f2

000035b2 2000 0010000000000000 movs r0, #0  ; 0x00
000035b4 0001 0000000000000001 movs r1, r0
000035b6 0003 0000000000000011 movs r3, r0
000035b8 bd10 1011110100010000 pop {r4, pc}
000035ba 43d8 0100001111011000 mvns  r0, r3
000035bc 43d9 0100001111011001 mvns  r1, r3
000035be bd10 1011110100010000 pop {r4, pc}
000035c0 2200 0010001000000000 movs r2, #0  ; 0x00
000035c2 b500 1011010100000000 push {lr}
000035c4 f000 1111000000000000 (32-bit)
000035c6 f80c 1111100000001100 bl   35e0

000035c8 17ca 0001011111001010 asr   r2, r1, #95
000035ca 429a 0100001010011010 cmp  r2, r3
000035cc d100 1101000100000000 bne.n 35d0 ; PC + 4

000035ce bd00 1011110100000000 pop {pc}
000035d0 43d8 0100001111011000 mvns  r0, r3
000035d2 2101 0010000100000001 movs r1, #1  ; 0x01
000035d4 07c9 0000011111001001 lsls  r1, r1, #31
000035d6 4041 0100000001000001 eors  r1, r0
000035d8 bd00 1011110100000000 pop {pc}
000035da 2200 0010001000000000 movs r2, #0  ; 0x00
000035dc 150b 0001010100001011 asr   r3, r1, #84
000035de d4be 1101010010111110 bmi.n 365e ; PC + 128

000035e0 b510 1011010100010000 push {r4, lr}
000035e2 4694 0100011010010100 mov  ip, r2
000035e4 f000 1111000000000000 (32-bit)
000035e6 f8b8 1111100010111000 bl   3758

000035e8 1414 0001010000010100 asr   r4, r2, #80
000035ea 3401 0011010000000001 adds r4, #1  ; 0x01
000035ec da00 1101101000000000 bge.n 35f0 ; PC + 4

000035ee 2100 0010000100000000 movs r1, #0  ; 0x00
000035f0 17cb 0001011111001011 asr   r3, r1, #95
000035f2 4462 0100010001100010 adds r2, r4
000035f4 3a34 0011101000110100 subs r2, #52  ; 0x34
000035f6 d40c 1101010000001100 bmi.n 3612 ; PC + 28

000035f8 2a0c 0010101000001100 cmp r2, #12  ; 0x0c
000035fa da07 1101101000000111 bge.n 360c ; PC + 18

000035fc 0004 0000000000000100 movs r4, r0
000035fe 4091 0100000010010001 lsl  r1, r2
00003600 4090 0100000010010000 lsl  r0, r2
00003602 4252 0100001001010010 rsb  r2, r2
00003604 3220 0011001000100000 adds r2, #32  ; 0x20
00003606 40d4 0100000011010100 lsr  r4, r2
00003608 4321 0100001100100001 orrs  r1, r4
0000360a bd10 1011110100010000 pop {r4, pc}
0000360c 43d8 0100001111011000 mvns  r0, r3
0000360e 43d9 0100001111011001 mvns  r1, r3
00003610 bd10 1011110100010000 pop {r4, pc}
00003612 3220 0011001000100000 adds r2, #32  ; 0x20
00003614 d407 1101010000000111 bmi.n 3626 ; PC + 18

00003616 460c 0100011000001100 mov  r4, r1
00003618 4094 0100000010010100 lsl  r4, r2
0000361a 4252 0100001001010010 rsb  r2, r2
0000361c 3220 0011001000100000 adds r2, #32  ; 0x20
0000361e 4111 0100000100010001 ars  r1, r2
00003620 40d0 0100000011010000 lsr  r0, r2
00003622 4320 0100001100100000 orrs  r0, r4
00003624 bd10 1011110100010000 pop {r4, pc}
00003626 0008 0000000000001000 movs r0, r1
00003628 17c9 0001011111001001 asr   r1, r1, #95
0000362a 3220 0011001000100000 adds r2, #32  ; 0x20
0000362c d403 1101010000000011 bmi.n 3636 ; PC + 10

0000362e 4252 0100001001010010 rsb  r2, r2
00003630 3220 0011001000100000 adds r2, #32  ; 0x20
00003632 4110 0100000100010000 ars  r0, r2
00003634 bd10 1011110100010000 pop {r4, pc}
00003636 0018 0000000000011000 movs r0, r3
00003638 0019 0000000000011001 movs r1, r3
0000363a bd10 1011110100010000 pop {r4, pc}
0000363c 0fc3 0000111111000011 lsrs  r3, r0, #31
0000363e 07db 0000011111011011 lsls  r3, r3, #31
00003640 0041 0000000001000001 lsls  r1, r0, #1
00003642 0e0a 0000111000001010 lsrs  r2, r1, #24
00003644 d007 1101000000000111 beq.n 3656 ; PC + 18

00003646 2aff 0010101011111111 cmp r2, #255  ; 0xff
00003648 d008 1101000000001000 beq.n 365c ; PC + 20

0000364a 0909 0000100100001001 lsrs  r1, r1, #4
0000364c 4a3d 0100101000111101 ldr  r2, [pc, #244] ; 0x00f4
0000364e 1889 0001100010001001 adds r1, r1, r2
00003650 4319 0100001100011001 orrs  r1, r3
00003652 0740 0000011101000000 lsls  r0, r0, #29
00003654 4770 0100011101110000 bx lr

00003656 0019 0000000000011001 movs r1, r3
00003658 2000 0010000000000000 movs r0, #0  ; 0x00
0000365a 4770 0100011101110000 bx lr

0000365c 493a 0100100100111010 ldr  r1, [pc, #232] ; 0x00e8
0000365e 18c9 0001100011001001 adds r1, r1, r3
00003660 e7fa 1110011111111010 b.n  3658

00003662 004a 0000000001001010 lsls  r2, r1, #1
00003664 0d52 0000110101010010 lsrs  r2, r2, #21
00003666 4b39 0100101100111001 ldr  r3, [pc, #228] ; 0x00e4
00003668 1ad2 0001101011010010 sub r2, r2, r3
0000366a dd13 1101110100010011 ble.n 3694 ; PC + 42

0000366c 2aff 0010101011111111 cmp r2, #255  ; 0xff
0000366e da1e 1101101000011110 bge.n 36ae ; PC + 64

00003670 05d2 0000010111010010 lsls  r2, r2, #23
00003672 0fcb 0000111111001011 lsrs  r3, r1, #31
00003674 07db 0000011111011011 lsls  r3, r3, #31
00003676 431a 0100001100011010 orrs  r2, r3
00003678 00c3 0000000011000011 lsls  r3, r0, #3
0000367a 0f40 0000111101000000 lsrs  r0, r0, #29
0000367c 0309 0000001100001001 lsls  r1, r1, #12
0000367e 0a49 0000101001001001 lsrs  r1, r1, #9
00003680 4308 0100001100001000 orrs  r0, r1
00003682 4310 0100001100010000 orrs  r0, r2
00003684 005b 0000000001011011 lsls  r3, r3, #1
00003686 d301 1101001100000001 bcc.n 368c ; PC + 6

00003688 d001 1101000000000001 beq.n 368e ; PC + 6

0000368a 3001 0011000000000001 adds r0, #1  ; 0x01
0000368c 4770 0100011101110000 bx lr

0000368e 0843 0000100001000011 lsrs  r3, r0, #1
00003690 d2fb 1101001011111011 bcs.n 368a ; PC + -6

00003692 4770 0100011101110000 bx lr

00003694 d002 1101000000000010 beq.n 369c ; PC + 8

00003696 0fc8 0000111111001000 lsrs  r0, r1, #31
00003698 07c0 0000011111000000 lsls  r0, r0, #31
0000369a 4770 0100011101110000 bx lr

0000369c 030a 0000001100001010 lsls  r2, r1, #12
0000369e 1312 0001001100010010 asr   r2, r2, #76
000036a0 3201 0011001000000001 adds r2, #1  ; 0x01
000036a2 d1f8 1101000111111000 bne.n 3696 ; PC + -12

000036a4 0f42 0000111101000010 lsrs  r2, r0, #29
000036a6 2a07 0010101000000111 cmp r2, #7  ; 0x07
000036a8 d1f5 1101000111110101 bne.n 3696 ; PC + -18

000036aa 2201 0010001000000001 movs r2, #1  ; 0x01
000036ac e000 1110000000000000 b.n  36b0

000036ae 22ff 0010001011111111 movs r2, #255  ; 0xff
000036b0 0fc8 0000111111001000 lsrs  r0, r1, #31
000036b2 0200 0000001000000000 lsls  r0, r0, #8
000036b4 1880 0001100010000000 adds r0, r0, r2
000036b6 05c0 0000010111000000 lsls  r0, r0, #23
000036b8 4770 0100011101110000 bx lr

000036ba 2100 0010000100000000 movs r1, #0  ; 0x00
000036bc 000a 0000000000001010 movs r2, r1
000036be 2100 0010000100000000 movs r1, #0  ; 0x00
000036c0 e004 1110000000000100 b.n  36cc

000036c2 2100 0010000100000000 movs r1, #0  ; 0x00
000036c4 000a 0000000000001010 movs r2, r1
000036c6 17c1 0001011111000001 asr   r1, r0, #95
000036c8 e003 1110000000000011 b.n  36d2

000036ca 2200 0010001000000000 movs r2, #0  ; 0x00
000036cc 2300 0010001100000000 movs r3, #0  ; 0x00
000036ce e005 1110000000000101 b.n  36dc

000036d0 2200 0010001000000000 movs r2, #0  ; 0x00
000036d2 17cb 0001011111001011 asr   r3, r1, #95
000036d4 4058 0100000001011000 eors  r0, r3
000036d6 4059 0100000001011001 eors  r1, r3
000036d8 1ac0 0001101011000000 sub r0, r0, r3
000036da 4199 0100000110011001 sbc  r1, r3
000036dc b530 1011010100110000 push {r4, r5, lr}
000036de 4c1c 0100110000011100 ldr  r4, [pc, #112] ; 0x0070
000036e0 1aa2 0001101010100010 sub r2, r4, r2
000036e2 2900 0010100100000000 cmp r1, #0  ; 0x00
000036e4 d103 1101000100000011 bne.n 36ee ; PC + 10

000036e6 0001 0000000000000001 movs r1, r0
000036e8 d010 1101000000010000 beq.n 370c ; PC + 36

000036ea 2000 0010000000000000 movs r0, #0  ; 0x00
000036ec 3a20 0011101000100000 subs r2, #32  ; 0x20
000036ee 154c 0001010101001100 asr   r4, r1, #85
000036f0 d112 1101000100010010 bne.n 3718 ; PC + 40

000036f2 d204 1101001000000100 bcs.n 36fe ; PC + 12

000036f4 3a01 0011101000000001 subs r2, #1  ; 0x01
000036f6 1800 0001100000000000 adds r0, r0, r0
000036f8 4149 0100000101001001 adc  r1, r1
000036fa 0d4c 0000110101001100 lsrs  r4, r1, #21
000036fc d3fa 1101001111111010 bcc.n 36f4 ; PC + -8

000036fe 4c15 0100110000010101 ldr  r4, [pc, #84] ; 0x0054
00003700 42a2 0100001010100010 cmp  r2, r4
00003702 d204 1101001000000100 bcs.n 370e ; PC + 12

00003704 0512 0000010100010010 lsls  r2, r2, #20
00003706 1889 0001100010001001 adds r1, r1, r2
00003708 07db 0000011111011011 lsls  r3, r3, #31
0000370a 18c9 0001100011001001 adds r1, r1, r3
0000370c bd30 1011110100110000 pop {r4, r5, pc}
0000370e 43d2 0100001111010010 mvns  r2, r2
00003710 0d52 0000110101010010 lsrs  r2, r2, #21
00003712 2000 0010000000000000 movs r0, #0  ; 0x00
00003714 2100 0010000100000000 movs r1, #0  ; 0x00
00003716 e7f5 1110011111110101 b.n  3704

00003718 d403 1101010000000011 bmi.n 3722 ; PC + 10

0000371a 3a01 0011101000000001 subs r2, #1  ; 0x01
0000371c 1800 0001100000000000 adds r0, r0, r0
0000371e 4149 0100000101001001 adc  r1, r1
00003720 d5fb 1101010111111011 bpl.n 371a ; PC + -6

00003722 320b 0011001000001011 adds r2, #11  ; 0x0b
00003724 0544 0000010101000100 lsls  r4, r0, #21
00003726 0ac0 0000101011000000 lsrs  r0, r0, #11
00003728 054d 0000010101001101 lsls  r5, r1, #21
0000372a 4328 0100001100101000 orrs  r0, r5
0000372c 0ac9 0000101011001001 lsrs  r1, r1, #11
0000372e 0064 0000000001100100 lsls  r4, r4, #1
00003730 d003 1101000000000011 beq.n 373a ; PC + 10

00003732 2400 0010010000000000 movs r4, #0  ; 0x00
00003734 4160 0100000101100000 adc  r0, r4
00003736 4161 0100000101100001 adc  r1, r4
00003738 e7e1 1110011111100001 b.n  36fe

0000373a d3e0 1101001111100000 bcc.n 36fe ; PC + -60

0000373c 0844 0000100001000100 lsrs  r4, r0, #1
0000373e e7f8 1110011111111000 b.n  3732

00003740 07ff 0000011111111111 lsls  r7, r7, #31
00003742 0000 0000000000000000 nop     ; movs r0, r0

00003744 0000 0000000000000000 nop     ; movs r0, r0

00003746 3800 0011100000000000 subs r0, #0  ; 0x00
00003748 0000 0000000000000000 nop     ; movs r0, r0

0000374a 7ff0 0111111111110000 strb r0, [r6, #31]
0000374c 0380 0000001110000000 lsls  r0, r0, #14
0000374e 0000 0000000000000000 nop     ; movs r0, r0

00003750 0432 0000010000110010 lsls  r2, r6, #16
00003752 0000 0000000000000000 nop     ; movs r0, r0

00003754 07fe 0000011111111110 lsls  r6, r7, #31
00003756 0000 0000000000000000 nop     ; movs r0, r0

00003758 0d0a 0000110100001010 lsrs  r2, r1, #20
0000375a 0fcc 0000111111001100 lsrs  r4, r1, #31
0000375c 1e53 0001111001010011 subs  r3, r2, #1   ;0x1
0000375e 051b 0000010100011011 lsls  r3, r3, #20
00003760 1ac9 0001101011001001 sub r1, r1, r3
00003762 0552 0000010101010010 lsls  r2, r2, #21
00003764 d303 1101001100000011 bcc.n 376e ; PC + 10

00003766 43c9 0100001111001001 mvns  r1, r1
00003768 4240 0100001001000000 rsb  r0, r0
0000376a d300 1101001100000000 bcc.n 376e ; PC + 4

0000376c 3101 0011000100000001 adds r1, #1  ; 0x01
0000376e 0d52 0000110101010010 lsrs  r2, r2, #21
00003770 d003 1101000000000011 beq.n 377a ; PC + 10

00003772 1c53 0001110001010011 adds r3, r2, #1   ;0x1
00003774 0adb 0000101011011011 lsrs  r3, r3, #11
00003776 d007 1101000000000111 beq.n 3788 ; PC + 18

00003778 1b12 0001101100010010 sub r2, r2, r4
0000377a 2000 0010000000000000 movs r0, #0  ; 0x00
0000377c 0064 0000000001100100 lsls  r4, r4, #1
0000377e 1c61 0001110001100001 adds r1, r4, #1   ;0x1
00003780 0789 0000011110001001 lsls  r1, r1, #30
00003782 1289 0001001010001001 asr   r1, r1, #74
00003784 3a80 0011101010000000 subs r2, #128  ; 0x80
00003786 0312 0000001100010010 lsls  r2, r2, #12
00003788 4b62 0100101101100010 ldr  r3, [pc, #392] ; 0x0188
0000378a 1ad2 0001101011010010 sub r2, r2, r3
0000378c 4770 0100011101110000 bx lr

0000378e 3202 0011001000000010 adds r2, #2  ; 0x02
00003790 d425 1101010000100101 bmi.n 37de ; PC + 78

00003792 2a0c 0010101000001100 cmp r2, #12  ; 0x0c
00003794 da1c 1101101000011100 bge.n 37d0 ; PC + 60

00003796 2511 0010010100010001 movs r5, #17  ; 0x11
00003798 1aad 0001101010101101 sub r5, r5, r2
0000379a 000b 0000000000001011 movs r3, r1
0000379c 412b 0100000100101011 ars  r3, r5
0000379e 3208 0011001000001000 adds r2, #8  ; 0x08
000037a0 3507 0011010100000111 adds r5, #7  ; 0x07
000037a2 0006 0000000000000110 movs r6, r0
000037a4 40ee 0100000011101110 lsr  r6, r5
000037a6 4090 0100000010010000 lsl  r0, r2
000037a8 4091 0100000010010001 lsl  r1, r2
000037aa 4331 0100001100110001 orrs  r1, r6
000037ac ccf0 1100110011110000 ldmia r4, {r4, r5, r6}
000037ae 4363 0100001101100011 muls  r3, r4
000037b0 151a 0001010100011010 asr   r2, r3, #84
000037b2 2300 0010001100000000 movs r3, #0  ; 0x00
000037b4 415a 0100000101011010 adc  r2, r3
000037b6 4355 0100001101010101 muls  r5, r2
000037b8 4356 0100001101010110 muls  r6, r2
000037ba 4357 0100001101010111 muls  r7, r2
000037bc 02bf 0000001010111111 lsls  r7, r7, #10
000037be 12f4 0001001011110100 asr   r4, r6, #75
000037c0 0576 0000010101110110 lsls  r6, r6, #21
000037c2 1976 0001100101110110 adds r6, r6, r5
000037c4 4167 0100000101100111 adc  r7, r4
000037c6 17ed 0001011111101101 asr   r5, r5, #95
000037c8 197f 0001100101111111 adds r7, r7, r5
000037ca 1b80 0001101110000000 sub r0, r0, r6
000037cc 41b9 0100000110111001 sbc  r1, r7
000037ce 4770 0100011101110000 bx lr

000037d0 220c 0010001000001100 movs r2, #12  ; 0x0c
000037d2 2000 0010000000000000 movs r0, #0  ; 0x00
000037d4 17c9 0001011111001001 asr   r1, r1, #95
000037d6 0049 0000000001001001 lsls  r1, r1, #1
000037d8 3101 0011000100000001 adds r1, #1  ; 0x01
000037da 0509 0000010100001001 lsls  r1, r1, #20
000037dc e7db 1110011111011011 b.n  3796

000037de 0209 0000001000001001 lsls  r1, r1, #8
000037e0 0e03 0000111000000011 lsrs  r3, r0, #24
000037e2 4319 0100001100011001 orrs  r1, r3
000037e4 0200 0000001000000000 lsls  r0, r0, #8
000037e6 4253 0100001001010011 rsb  r3, r2
000037e8 3220 0011001000100000 adds r2, #32  ; 0x20
000037ea d408 1101010000001000 bmi.n 37fe ; PC + 20

000037ec 000c 0000000000001100 movs r4, r1
000037ee 4119 0100000100011001 ars  r1, r3
000037f0 4094 0100000010010100 lsl  r4, r2
000037f2 40d8 0100000011011000 lsr  r0, r3
000037f4 4320 0100001100100000 orrs  r0, r4
000037f6 2200 0010001000000000 movs r2, #0  ; 0x00
000037f8 4150 0100000101010000 adc  r0, r2
000037fa 4151 0100000101010001 adc  r1, r2
000037fc 4770 0100011101110000 bx lr

000037fe 0008 0000000000001000 movs r0, r1
00003800 17c9 0001011111001001 asr   r1, r1, #95
00003802 3b20 0011101100100000 subs r3, #32  ; 0x20
00003804 3220 0011001000100000 adds r2, #32  ; 0x20
00003806 d5f1 1101010111110001 bpl.n 37ec ; PC + -26

00003808 2000 0010000000000000 movs r0, #0  ; 0x00
0000380a 2100 0010000100000000 movs r1, #0  ; 0x00
0000380c 2200 0010001000000000 movs r2, #0  ; 0x00
0000380e 4770 0100011101110000 bx lr

00003810 b5f0 1011010111110000 push {r4, r5, r6, r7, lr}
00003812 f7ff 1111011111111111 (32-bit)
00003814 fe56 1111111001010110 bl   34c2

00003816 f000 1111000000000000 (32-bit)
00003818 f81d 1111100000011101 bl   3854

0000381a 4684 0100011010000100 mov  ip, r0
0000381c f000 1111000000000000 (32-bit)
0000381e f83e 1111100000111110 bl   389c

00003820 b403 1011010000000011 push {r0, r1}
00003822 4660 0100011001100000 mov  r0, ip
00003824 f000 1111000000000000 (32-bit)
00003826 f858 1111100001011000 bl   38d8

00003828 bc0c 1011110000001100 pop {r2, r3}
0000382a f7ff 1111011111111111 (32-bit)
0000382c fe50 1111111001010000 bl   34ce

0000382e e474 1110010001110100 b.n  311a

00003830 b5f0 1011010111110000 push {r4, r5, r6, r7, lr}
00003832 f7ff 1111011111111111 (32-bit)
00003834 fe46 1111111001000110 bl   34c2

00003836 f000 1111000000000000 (32-bit)
00003838 f80d 1111100000001101 bl   3854

0000383a f000 1111000000000000 (32-bit)
0000383c f82f 1111100000101111 bl   389c

0000383e e006 1110000000000110 b.n  384e

00003840 b5f0 1011010111110000 push {r4, r5, r6, r7, lr}
00003842 f7ff 1111011111111111 (32-bit)
00003844 fe3e 1111111000111110 bl   34c2

00003846 f000 1111000000000000 (32-bit)
00003848 f805 1111100000000101 bl   3854

0000384a f000 1111000000000000 (32-bit)
0000384c f845 1111100001000101 bl   38d8

0000384e f7ff 1111011111111111 (32-bit)
00003850 fe3e 1111111000111110 bl   34ce

00003852 bdf0 1011110111110000 pop {r4, r5, r6, r7, pc}
00003854 b500 1011010100000000 push {lr}
00003856 f7ff 1111011111111111 (32-bit)
00003858 ff7f 1111111101111111 bl   3758

0000385a a431 1010010000110001 add r4, pc, #196
0000385c f7ff 1111011111111111 (32-bit)
0000385e ff97 1111111110010111 bl   378e

00003860 2400 0010010000000000 movs r4, #0  ; 0x00
00003862 4d2d 0100110100101101 ldr  r5, [pc, #180] ; 0x00b4
00003864 4e2d 0100111000101101 ldr  r6, [pc, #180] ; 0x00b4
00003866 07d2 0000011111010010 lsls  r2, r2, #31
00003868 d302 1101001100000010 bcc.n 3870 ; PC + 8

0000386a 43f6 0100001111110110 mvns  r6, r6
0000386c 426d 0100001001101101 rsb  r5, r5
0000386e 4166 0100000101100110 adc  r6, r4
00003870 0052 0000000001010010 lsls  r2, r2, #1
00003872 d204 1101001000000100 bcs.n 387e ; PC + 12

00003874 46a2 0100011010100010 mov  r10, r4
00003876 46a3 0100011010100011 mov  r11, r4
00003878 46a8 0100011010101000 mov  r8, r5
0000387a 46b1 0100011010110001 mov  r9, r6
0000387c e003 1110000000000011 b.n  3886

0000387e 46a0 0100011010100000 mov  r8, r4
00003880 46a1 0100011010100001 mov  r9, r4
00003882 46aa 0100011010101010 mov  r10, r5
00003884 46b3 0100011010110011 mov  r11, r6
00003886 a46f 1010010001101111 add r4, pc, #444
00003888 46a4 0100011010100100 mov  ip, r4
0000388a 2701 0010011100000001 movs r7, #1  ; 0x01
0000388c 261f 0010011000011111 movs r6, #31  ; 0x1f
0000388e f7ff 1111011111111111 (32-bit)
00003890 fe2b 1111111000101011 bl   34e8

00003892 3701 0011011100000001 adds r7, #1  ; 0x01
00003894 3e01 0011111000000001 subs r6, #1  ; 0x01
00003896 2f21 0010111100100001 cmp r7, #33  ; 0x21
00003898 d1f9 1101000111111001 bne.n 388e ; PC + -10

0000389a bd00 1011110100000000 pop {pc}
0000389c 4659 0100011001011001 mov  r1, r11
0000389e b284 1011001010000100 uxth
000038a0 b28d 1011001010001101 uxth
000038a2 436c 0100001101101100 muls  r4, r5
000038a4 1406 0001010000000110 asr   r6, r0, #80
000038a6 4375 0100001101110101 muls  r5, r6
000038a8 140b 0001010000001011 asr   r3, r1, #80
000038aa 435e 0100001101011110 muls  r6, r3
000038ac b282 1011001010000010 uxth
000038ae 435a 0100001101011010 muls  r2, r3
000038b0 18ad 0001100010101101 adds r5, r5, r2
000038b2 17ea 0001011111101010 asr   r2, r5, #95
000038b4 d700 1101011100000000 bvc.n 38b8 ; PC + 4

000038b6 43d2 0100001111010010 mvns  r2, r2
000038b8 0412 0000010000010010 lsls  r2, r2, #16
000038ba 18b6 0001100010110110 adds r6, r6, r2
000038bc 042a 0000010000101010 lsls  r2, r5, #16
000038be 0c2b 0000110000101011 lsrs  r3, r5, #16
000038c0 1912 0001100100010010 adds r2, r2, r4
000038c2 4173 0100000101110011 adc  r3, r6
000038c4 4640 0100011001000000 mov  r0, r8
000038c6 4649 0100011001001001 mov  r1, r9
000038c8 009d 0000000010011101 lsls  r5, r3, #2
000038ca 179b 0001011110011011 asr   r3, r3, #94
000038cc 0f92 0000111110010010 lsrs  r2, r2, #30
000038ce 432a 0100001100101010 orrs  r2, r5
000038d0 4190 0100000110010000 sbc  r0, r2
000038d2 4199 0100000110011001 sbc  r1, r3
000038d4 223e 0010001000111110 movs r2, #62  ; 0x3e
000038d6 e6fc 1110011011111100 b.n  36d2

000038d8 4649 0100011001001001 mov  r1, r9
000038da b284 1011001010000100 uxth
000038dc b28d 1011001010001101 uxth
000038de 436c 0100001101101100 muls  r4, r5
000038e0 1406 0001010000000110 asr   r6, r0, #80
000038e2 4375 0100001101110101 muls  r5, r6
000038e4 140b 0001010000001011 asr   r3, r1, #80
000038e6 435e 0100001101011110 muls  r6, r3
000038e8 b282 1011001010000010 uxth
000038ea 435a 0100001101011010 muls  r2, r3
000038ec 18ad 0001100010101101 adds r5, r5, r2
000038ee 17ea 0001011111101010 asr   r2, r5, #95
000038f0 d700 1101011100000000 bvc.n 38f4 ; PC + 4

000038f2 43d2 0100001111010010 mvns  r2, r2
000038f4 0412 0000010000010010 lsls  r2, r2, #16
000038f6 18b6 0001100010110110 adds r6, r6, r2
000038f8 042a 0000010000101010 lsls  r2, r5, #16
000038fa 0c2b 0000110000101011 lsrs  r3, r5, #16
000038fc 1912 0001100100010010 adds r2, r2, r4
000038fe 4173 0100000101110011 adc  r3, r6
00003900 4650 0100011001010000 mov  r0, r10
00003902 4659 0100011001011001 mov  r1, r11
00003904 009d 0000000010011101 lsls  r5, r3, #2
00003906 179b 0001011110011011 asr   r3, r3, #94
00003908 0f92 0000111110010010 lsrs  r2, r2, #30
0000390a 432a 0100001100101010 orrs  r2, r5
0000390c 4150 0100000101010000 adc  r0, r2
0000390e 4159 0100000101011001 adc  r1, r3
00003910 223e 0010001000111110 movs r2, #62  ; 0x3e
00003912 e6de 1110011011011110 b.n  36d2

00003914 03ff 0000001111111111 lsls  r7, r7, #15
00003916 0000 0000000000000000 nop     ; movs r0, r0

00003918 4dbb 0100110110111011 ldr  r5, [pc, #748] ; 0x02ec
0000391a 9df0 1001110111110000 ldr r5, [sp, #960]
0000391c 56c5 0101011011000101 ldrsb r5, [r0, r3]
0000391e 36f6 0011011011110110 adds r6, #246  ; 0xf6
00003920 517d 0101000101111101 str r5, [r7, r5]
00003922 0000 0000000000000000 nop     ; movs r0, r0

00003924 611a 0110000100011010 str  r2, [r3, #16] ; 0x10
00003926 0014 0000000000010100 movs r4, r2
00003928 8885 1000100010000101 ldrh r5, [r0, #4] ; 0x4
0000392a 000a 0000000000001010 movs r2, r1
0000392c 21fb 0010000111111011 movs r1, #251  ; 0xfb
0000392e 0019 0000000000011001 movs r1, r3
00003930 b5f0 1011010111110000 push {r4, r5, r6, r7, lr}
00003932 f7ff 1111011111111111 (32-bit)
00003934 fdc6 1111110111000110 bl   34c2

00003936 4d40 0100110101000000 ldr  r5, [pc, #256] ; 0x0100
00003938 000c 0000000000001100 movs r4, r1
0000393a 402c 0100000000101100 ands  r4, r5
0000393c d001 1101000000000001 beq.n 3942 ; PC + 6

0000393e 42ac 0100001010101100 cmp  r4, r5
00003940 d102 1101000100000010 bne.n 3948 ; PC + 8

00003942 0d09 0000110100001001 lsrs  r1, r1, #20
00003944 0509 0000010100001001 lsls  r1, r1, #20
00003946 2000 0010000000000000 movs r0, #0  ; 0x00
00003948 001c 0000000000011100 movs r4, r3
0000394a 402c 0100000000101100 ands  r4, r5
0000394c d001 1101000000000001 beq.n 3952 ; PC + 6

0000394e 42ac 0100001010101100 cmp  r4, r5
00003950 d102 1101000100000010 bne.n 3958 ; PC + 8

00003952 0d1b 0000110100011011 lsrs  r3, r3, #20
00003954 051b 0000010100011011 lsls  r3, r3, #20
00003956 2200 0010001000000000 movs r2, #0  ; 0x00
00003958 2600 0010011000000000 movs r6, #0  ; 0x00
0000395a 02ed 0000001011101101 lsls  r5, r5, #11
0000395c 2b00 0010101100000000 cmp r3, #0  ; 0x00
0000395e d504 1101010100000100 bpl.n 396a ; PC + 12

00003960 2602 0010011000000010 movs r6, #2  ; 0x02
00003962 406b 0100000001101011 eors  r3, r5
00003964 4069 0100000001101001 eors  r1, r5
00003966 d400 1101010000000000 bmi.n 396a ; PC + 4

00003968 4276 0100001001110110 rsb  r6, r6
0000396a 194f 0001100101001111 adds r7, r1, r5
0000396c d504 1101010100000100 bpl.n 3978 ; PC + 12

0000396e 4299 0100001010011001 cmp  r1, r3
00003970 dd0c 1101110100001100 ble.n 398c ; PC + 28

00003972 3601 0011011000000001 adds r6, #1  ; 0x01
00003974 4069 0100000001101001 eors  r1, r5
00003976 e003 1110000000000011 b.n  3980

00003978 42bb 0100001010111011 cmp  r3, r7
0000397a da07 1101101000000111 bge.n 398c ; PC + 18

0000397c 3e01 0011111000000001 subs r6, #1  ; 0x01
0000397e 406b 0100000001101011 eors  r3, r5
00003980 0007 0000000000000111 movs r7, r0
00003982 0010 0000000000010000 movs r0, r2
00003984 003a 0000000000111010 movs r2, r7
00003986 000f 0000000000001111 movs r7, r1
00003988 0019 0000000000011001 movs r1, r3
0000398a 003b 0000000000111011 movs r3, r7
0000398c b440 1011010001000000 push {r6}
0000398e 2a00 0010101000000000 cmp r2, #0  ; 0x00
00003990 d10f 1101000100001111 bne.n 39b2 ; PC + 34

00003992 2b00 0010101100000000 cmp r3, #0  ; 0x00
00003994 d00a 1101000000001010 beq.n 39ac ; PC + 24

00003996 005c 0000000001011100 lsls  r4, r3, #1
00003998 1564 0001010101100100 asr   r4, r4, #85
0000399a 3401 0011010000000001 adds r4, #1  ; 0x01
0000399c d109 1101000100001001 bne.n 39b2 ; PC + 22

0000399e 004c 0000000001001100 lsls  r4, r1, #1
000039a0 1564 0001010101100100 asr   r4, r4, #85
000039a2 3401 0011010000000001 adds r4, #1  ; 0x01
000039a4 d102 1101000100000010 bne.n 39ac ; PC + 8

000039a6 3901 0011100100000001 subs r1, #1  ; 0x01
000039a8 3b01 0011101100000001 subs r3, #1  ; 0x01
000039aa e002 1110000000000010 b.n  39b2

000039ac 2000 0010000000000000 movs r0, #0  ; 0x00
000039ae 2100 0010000100000000 movs r1, #0  ; 0x00
000039b0 e02e 1110000000101110 b.n  3a10

000039b2 f7ff 1111011111111111 (32-bit)
000039b4 fbb1 1111101110110001 bl   3118

000039b6 223e 0010001000111110 movs r2, #62  ; 0x3e
000039b8 f7ff 1111011111111111 (32-bit)
000039ba fe03 1111111000000011 bl   35c2

000039bc 4682 0100011010000010 mov  r10, r0
000039be 468b 0100011010001011 mov  r11, r1
000039c0 2000 0010000000000000 movs r0, #0  ; 0x00
000039c2 2100 0010000100000000 movs r1, #0  ; 0x00
000039c4 4680 0100011010000000 mov  r8, r0
000039c6 2201 0010001000000001 movs r2, #1  ; 0x01
000039c8 0792 0000011110010010 lsls  r2, r2, #30
000039ca 4691 0100011010010001 mov  r9, r2
000039cc a41d 1010010000011101 add r4, pc, #116
000039ce 46a4 0100011010100100 mov  ip, r4
000039d0 2701 0010011100000001 movs r7, #1  ; 0x01
000039d2 261f 0010011000011111 movs r6, #31  ; 0x1f
000039d4 f7ff 1111011111111111 (32-bit)
000039d6 fd81 1111110110000001 bl   34da

000039d8 3701 0011011100000001 adds r7, #1  ; 0x01
000039da 3e01 0011111000000001 subs r6, #1  ; 0x01
000039dc 2f21 0010111100100001 cmp r7, #33  ; 0x21
000039de d1f9 1101000111111001 bne.n 39d4 ; PC + -10

000039e0 464a 0100011001001010 mov  r2, r9
000039e2 4653 0100011001010011 mov  r3, r10
000039e4 3a0c 0011101000001100 subs r2, #12  ; 0x0c
000039e6 2401 0010010000000001 movs r4, #1  ; 0x01
000039e8 0764 0000011101100100 lsls  r4, r4, #29
000039ea 2700 0010011100000000 movs r7, #0  ; 0x00
000039ec 0852 0000100001010010 lsrs  r2, r2, #1
000039ee 001b 0000000000011011 nop     ; movs r3, r3

000039f0 d405 1101010000000101 bmi.n 39fe ; PC + 14

000039f2 4193 0100000110010011 sbc  r3, r2
000039f4 1900 0001100100000000 adds r0, r0, r4
000039f6 4179 0100000101111001 adc  r1, r7
000039f8 0864 0000100001100100 lsrs  r4, r4, #1
000039fa d1f7 1101000111110111 bne.n 39ec ; PC + -14

000039fc e004 1110000000000100 b.n  3a08

000039fe 4153 0100000101010011 adc  r3, r2
00003a00 1b00 0001101100000000 sub r0, r0, r4
00003a02 41b9 0100000110111001 sbc  r1, r7
00003a04 0864 0000100001100100 lsrs  r4, r4, #1
00003a06 d1f1 1101000111110001 bne.n 39ec ; PC + -26

00003a08 07ce 0000011111001110 lsls  r6, r1, #31
00003a0a 1049 0001000001001001 asr   r1, r1, #65
00003a0c 0840 0000100001000000 lsrs  r0, r0, #1
00003a0e 4330 0100001100110000 orrs  r0, r6
00003a10 bc40 1011110001000000 pop {r6}
00003a12 2e00 0010111000000000 cmp r6, #0  ; 0x00
00003a14 d00a 1101000000001010 beq.n 3a2c ; PC + 24

00003a16 4c09 0100110000001001 ldr  r4, [pc, #36] ; 0x0024
00003a18 4d09 0100110100001001 ldr  r5, [pc, #36] ; 0x0024
00003a1a d501 1101010100000001 bpl.n 3a20 ; PC + 6

00003a1c 43e4 0100001111100100 mvns  r4, r4
00003a1e 43ed 0100001111101101 mvns  r5, r5
00003a20 07f6 0000011111110110 lsls  r6, r6, #31
00003a22 d101 1101000100000001 bne.n 3a28 ; PC + 6

00003a24 1900 0001100100000000 adds r0, r0, r4
00003a26 4169 0100000101101001 adc  r1, r5
00003a28 1900 0001100100000000 adds r0, r0, r4
00003a2a 4169 0100000101101001 adc  r1, r5
00003a2c 223d 0010001000111101 movs r2, #61  ; 0x3d
00003a2e f7ff 1111011111111111 (32-bit)
00003a30 fe50 1111111001010000 bl   36d2

00003a32 f7ff 1111011111111111 (32-bit)
00003a34 fd4c 1111110101001100 bl   34ce

00003a36 bdf0 1011110111110000 pop {r4, r5, r6, r7, pc}
00003a38 0000 0000000000000000 nop     ; movs r0, r0

00003a3a 7ff0 0111111111110000 strb r0, [r6, #31]
00003a3c 308d 0011000010001101 adds r0, #141  ; 0x8d
00003a3e 885a 1000100001011010 ldrh r2, [r3, #2] ; 0x2
00003a40 f6a8 1111011010101000 (32-bit)
00003a42 3243 0011001001000011 To be implemented

00003a44 4f69 0100111101101001 ldr  r7, [pc, #420] ; 0x01a4
00003a46 61bb 0110000110111011 str  r3, [r7, #24] ; 0x18
00003a48 6705 0110011100000101 str  r5, [r0, #112] ; 0x70
00003a4a 1dac 0001110110101100 adds r4, r5, #6   ;0x6
00003a4c 6eb1 0110111010110001 ldr  r1, [r6, #104] ; 0x68
00003a4e 9640 1001011001000000 str r6, [sp, #256]
00003a50 bafc 1011101011111100 Hint instruction code 101011
00003a52 0fad 0000111110101101 lsrs  r5, r5, #30
00003a54 db72 1101101101110010 blt.n 3a3c ; PC + -24

00003a56 ab0b 1010101100001011 add r3, sp, #44 ; #2c
00003a58 6ea6 0110111010100110 ldr  r6, [r4, #104] ; 0x68
00003a5a 07f5 0000011111110101 lsls  r5, r6, #31
00003a5c bd39 1011110100111001 pop {r0, r3, r4, r5, pc}
00003a5e e59f 1110010110011111 b.n  35a0

00003a60 ab76 1010101101110110 add r3, sp, #472 ; #1d8
00003a62 03fe 0000001111111110 lsls  r6, r7, #15
00003a64 624b 0110001001001011 str  r3, [r1, #36] ; 0x24 imm5
00003a66 ba97 1011101010010111 Hint instruction code 101010
00003a68 d55b 1101010101011011 bpl.n 3a22 ; PC + -70

00003a6a 01ff 0000000111111111 lsls  r7, r7, #7
00003a6c 94d6 1001010011010110 str r4, [sp, #856]
00003a6e dddb 1101110111011011 ble.n 3a28 ; PC + -70

00003a70 faaa 1111101010101010 (32-bit)
00003a72 00ff 0000000011111111 To be implemented

00003a74 ea5d 1110101001011101 (32-bit)
00003a76 56ee 0101011011101110 bl   261854

00003a78 ff55 1111111101010101 (32-bit)
00003a7a 007f 0000000001111111 To be implemented

00003a7c 776e 0111011101101110 strb r6, [r5, #29]
00003a7e aab7 1010101010110111 add r2, sp, #732 ; #2dc
00003a80 ffea 1111111111101010 (32-bit)
00003a82 003f 0000000000111111 To be implemented

00003a84 bbbc 1011101110111100 Hint instruction code 101110
00003a86 5555 0101010101010101 strb r5, [r2, r5]
00003a88 fffd 1111111111111101 (32-bit)
00003a8a 001f 0000000000011111 To be implemented

00003a8c adde 1010110111011110 add r5, sp, #888 ; #378
00003a8e aaaa 1010101010101010 add r2, sp, #680 ; #2a8
00003a90 ffff 1111111111111111 (32-bit)
00003a92 000f 0000000000001111 To be implemented

00003a94 556f 0101010101101111 strb r7, [r5, r5]
00003a96 f555 1111010101010101 (32-bit)
00003a98 ffff 1111111111111111 bl   -2a6568

00003a9a 0007 0000000000000111 movs r7, r0
00003a9c aaab 1010101010101011 add r2, sp, #684 ; #2ac
00003a9e feaa 1111111010101010 (32-bit)
00003aa0 ffff 1111111111111111 bl   -151560

00003aa2 0003 0000000000000011 movs r3, r0
00003aa4 5555 0101010101010101 strb r5, [r2, r5]
00003aa6 ffd5 1111111111010101 (32-bit)
00003aa8 ffff 1111111111111111 bl   -26558

00003aaa 0001 0000000000000001 movs r1, r0
00003aac aaab 1010101010101011 add r2, sp, #684 ; #2ac
00003aae fffa 1111111111111010 (32-bit)
00003ab0 ffff 1111111111111111 bl   -1550

00003ab2 0000 0000000000000000 nop     ; movs r0, r0

00003ab4 5555 0101010101010101 strb r5, [r2, r5]
00003ab6 ffff 1111111111111111 (32-bit)
00003ab8 7fff 0111111111111111 bl   3ab8

00003aba 0000 0000000000000000 nop     ; movs r0, r0

00003abc eaab 1110101010101011 (32-bit)
00003abe ffff 1111111111111111 bl   2afabe

00003ac0 3fff 0011111111111111 subs r7, #255  ; 0xff
00003ac2 0000 0000000000000000 nop     ; movs r0, r0

00003ac4 fd55 1111110101010101 (32-bit)
00003ac6 ffff 1111111111111111 bl   -2a653a

00003ac8 1fff 0001111111111111 subs  r7, r7, #7   ;0x7
00003aca 0000 0000000000000000 nop     ; movs r0, r0

00003acc ffab 1111111110101011 (32-bit)
00003ace ffff 1111111111111111 bl   -50532

00003ad0 0fff 0000111111111111 lsrs  r7, r7, #31
00003ad2 0000 0000000000000000 nop     ; movs r0, r0

00003ad4 fff5 1111111111110101 (32-bit)
00003ad6 ffff 1111111111111111 bl   -652a

00003ad8 07ff 0000011111111111 lsls  r7, r7, #31
00003ada 0000 0000000000000000 nop     ; movs r0, r0

00003adc ffff 1111111111111111 (32-bit)
00003ade ffff 1111111111111111 bl   3ade

00003ae0 03ff 0000001111111111 lsls  r7, r7, #15
00003ae2 0000 0000000000000000 nop     ; movs r0, r0

00003ae4 0000 0000000000000000 nop     ; movs r0, r0

00003ae6 0000 0000000000000000 nop     ; movs r0, r0

00003ae8 0200 0000001000000000 lsls  r0, r0, #8
00003aea 0000 0000000000000000 nop     ; movs r0, r0

00003aec 0000 0000000000000000 nop     ; movs r0, r0

00003aee 0000 0000000000000000 nop     ; movs r0, r0

00003af0 0100 0000000100000000 lsls  r0, r0, #4
00003af2 0000 0000000000000000 nop     ; movs r0, r0

00003af4 0000 0000000000000000 nop     ; movs r0, r0

00003af6 0000 0000000000000000 nop     ; movs r0, r0

00003af8 0080 0000000010000000 lsls  r0, r0, #2
00003afa 0000 0000000000000000 nop     ; movs r0, r0

00003afc 0000 0000000000000000 nop     ; movs r0, r0

00003afe 0000 0000000000000000 nop     ; movs r0, r0

00003b00 0040 0000000001000000 lsls  r0, r0, #1
00003b02 0000 0000000000000000 nop     ; movs r0, r0

00003b04 0000 0000000000000000 nop     ; movs r0, r0

00003b06 0000 0000000000000000 nop     ; movs r0, r0

00003b08 0020 0000000000100000 movs r0, r4
00003b0a 0000 0000000000000000 nop     ; movs r0, r0

00003b0c 0000 0000000000000000 nop     ; movs r0, r0

00003b0e 0000 0000000000000000 nop     ; movs r0, r0

00003b10 0010 0000000000010000 movs r0, r2
00003b12 0000 0000000000000000 nop     ; movs r0, r0

00003b14 0000 0000000000000000 nop     ; movs r0, r0

00003b16 0000 0000000000000000 nop     ; movs r0, r0

00003b18 0008 0000000000001000 movs r0, r1
00003b1a 0000 0000000000000000 nop     ; movs r0, r0

00003b1c 0000 0000000000000000 nop     ; movs r0, r0

00003b1e 0000 0000000000000000 nop     ; movs r0, r0

00003b20 0004 0000000000000100 movs r4, r0
00003b22 0000 0000000000000000 nop     ; movs r0, r0

00003b24 0000 0000000000000000 nop     ; movs r0, r0

00003b26 0000 0000000000000000 nop     ; movs r0, r0

00003b28 0002 0000000000000010 movs r2, r0
00003b2a 0000 0000000000000000 nop     ; movs r0, r0

00003b2c 0000 0000000000000000 nop     ; movs r0, r0

00003b2e 0000 0000000000000000 nop     ; movs r0, r0

00003b30 0001 0000000000000001 movs r1, r0
00003b32 0000 0000000000000000 nop     ; movs r0, r0

00003b34 0000 0000000000000000 nop     ; movs r0, r0

00003b36 8000 1000000000000000 strh r0, [r0, #0]
00003b38 0000 0000000000000000 nop     ; movs r0, r0

00003b3a 0000 0000000000000000 nop     ; movs r0, r0

00003b3c 0000 0000000000000000 nop     ; movs r0, r0

00003b3e 4000 0100000000000000 ands  r0, r0
00003b40 0000 0000000000000000 nop     ; movs r0, r0

00003b42 0000 0000000000000000 nop     ; movs r0, r0

00003b44 b5f0 1011010111110000 push {r4, r5, r6, r7, lr}
00003b46 f7ff 1111011111111111 (32-bit)
00003b48 fe07 1111111000000111 bl   3758

00003b4a a454 1010010001010100 add r4, pc, #336
00003b4c f7ff 1111011111111111 (32-bit)
00003b4e fe1f 1111111000011111 bl   378e

00003b50 2900 0010100100000000 cmp r1, #0  ; 0x00
00003b52 da04 1101101000000100 bge.n 3b5e ; PC + 12

00003b54 4c20 0100110000100000 ldr  r4, [pc, #128] ; 0x0080
00003b56 4d21 0100110100100001 ldr  r5, [pc, #132] ; 0x0084
00003b58 1900 0001100100000000 adds r0, r0, r4
00003b5a 4169 0100000101101001 adc  r1, r5
00003b5c 3a01 0011101000000001 subs r2, #1  ; 0x01
00003b5e b404 1011010000000100 push {r2}
00003b60 2701 0010011100000001 movs r7, #1  ; 0x01
00003b62 a652 1010011001010010 add r6, pc, #328
00003b64 2200 0010001000000000 movs r2, #0  ; 0x00
00003b66 2301 0010001100000001 movs r3, #1  ; 0x01
00003b68 079b 0000011110011011 lsls  r3, r3, #30
00003b6a ce30 1100111000110000 ldmia r6, {r4}
00003b6c 46b4 0100011010110100 mov  ip, r6
00003b6e 1b00 0001101100000000 sub r0, r0, r4
00003b70 41a9 0100000110101001 sbc  r1, r5
00003b72 d40b 1101010000001011 bmi.n 3b8c ; PC + 26

00003b74 427e 0100001001111110 rsb  r6, r7
00003b76 3620 0011011000100000 adds r6, #32  ; 0x20
00003b78 001d 0000000000011101 movs r5, r3
00003b7a 413d 0100000100111101 ars  r5, r7
00003b7c 001c 0000000000011100 movs r4, r3
00003b7e 40b4 0100000010110100 lsl  r4, r6
00003b80 0016 0000000000010110 movs r6, r2
00003b82 40fe 0100000011111110 lsr  r6, r7
00003b84 4334 0100001100110100 orrs  r4, r6
00003b86 4162 0100000101100010 adc  r2, r4
00003b88 416b 0100000101101011 adc  r3, r5
00003b8a e001 1110000000000001 b.n  3b90

00003b8c 1900 0001100100000000 adds r0, r0, r4
00003b8e 4169 0100000101101001 adc  r1, r5
00003b90 4666 0100011001100110 mov  r6, ip
00003b92 3701 0011011100000001 adds r7, #1  ; 0x01
00003b94 2f21 0010111100100001 cmp r7, #33  ; 0x21
00003b96 d1e8 1101000111101000 bne.n 3b6a ; PC + -44

00003b98 b285 1011001010000101 uxth
00003b9a b29e 1011001010011110 uxth
00003b9c 4375 0100001101110101 muls  r5, r6
00003b9e 1407 0001010000000111 asr   r7, r0, #80
00003ba0 437e 0100001101111110 muls  r6, r7
00003ba2 0c19 0000110000011001 lsrs  r1, r3, #16
00003ba4 434f 0100001101001111 muls  r7, r1
00003ba6 b284 1011001010000100 uxth
00003ba8 434c 0100001101001100 muls  r4, r1
00003baa 17f1 0001011111110001 asr   r1, r6, #95
00003bac 1936 0001100100110110 adds r6, r6, r4
00003bae 2400 0010010000000000 movs r4, #0  ; 0x00
00003bb0 4161 0100000101100001 adc  r1, r4
00003bb2 0409 0000010000001001 lsls  r1, r1, #16
00003bb4 187f 0001100001111111 adds r7, r7, r1
00003bb6 0434 0000010000110100 lsls  r4, r6, #16
00003bb8 0c31 0000110000110001 lsrs  r1, r6, #16
00003bba 1964 0001100101100100 adds r4, r4, r5
00003bbc 4179 0100000101111001 adc  r1, r7
00003bbe 0fa4 0000111110100100 lsrs  r4, r4, #30
00003bc0 0088 0000000010001000 lsls  r0, r1, #2
00003bc2 4320 0100001100100000 orrs  r0, r4
00003bc4 1789 0001011110001001 asr   r1, r1, #94
00003bc6 1880 0001100010000000 adds r0, r0, r2
00003bc8 4159 0100000101011001 adc  r1, r3
00003bca bc04 1011110000000100 pop {r2}
00003bcc 4252 0100001001010010 rsb  r2, r2
00003bce 323e 0011001000111110 adds r2, #62  ; 0x3e
00003bd0 f7ff 1111011111111111 (32-bit)
00003bd2 fd7f 1111110101111111 bl   36d2

00003bd4 bdf0 1011110111110000 pop {r4, r5, r6, r7, pc}
00003bd6 0000 0000000000000000 nop     ; movs r0, r0

00003bd8 de6b 1101111001101011 b.n 3bb2 ; PC + -38

00003bda f473 1111010001110011 (32-bit)
00003bdc 85fd 1000010111111101 To be implemented

00003bde 2c5c 0010110001011100 cmp r4, #92  ; 0x5c
00003be0 b5f0 1011010111110000 push {r4, r5, r6, r7, lr}
00003be2 004f 0000000001001111 lsls  r7, r1, #1
00003be4 d250 1101001001010000 bcs.n 3b88 ; PC + -92

00003be6 157f 0001010101111111 asr   r7, r7, #85
00003be8 d04e 1101000001001110 beq.n 3b88 ; PC + -96

00003bea 3701 0011011100000001 adds r7, #1  ; 0x01
00003bec d04f 1101000001001111 beq.n 3b8e ; PC + -94

00003bee f7ff 1111011111111111 (32-bit)
00003bf0 fdb3 1111110110110011 bl   3758

00003bf2 b404 1011010000000100 push {r2}
00003bf4 0249 0000001001001001 lsls  r1, r1, #9
00003bf6 0dc2 0000110111000010 lsrs  r2, r0, #23
00003bf8 4311 0100001100010001 orrs  r1, r2
00003bfa 0240 0000001001000000 lsls  r0, r0, #9
00003bfc 2701 0010011100000001 movs r7, #1  ; 0x01
00003bfe a62b 1010011000101011 add r6, pc, #172
00003c00 46b4 0100011010110100 mov  ip, r6
00003c02 2200 0010001000000000 movs r2, #0  ; 0x00
00003c04 2300 0010001100000000 movs r3, #0  ; 0x00
00003c06 427e 0100001001111110 rsb  r6, r7
00003c08 3620 0011011000100000 adds r6, #32  ; 0x20
00003c0a 000d 0000000000001101 movs r5, r1
00003c0c 413d 0100000100111101 ars  r5, r7
00003c0e 000c 0000000000001100 movs r4, r1
00003c10 40b4 0100000010110100 lsl  r4, r6
00003c12 0006 0000000000000110 movs r6, r0
00003c14 40fe 0100000011111110 lsr  r6, r7
00003c16 4334 0100001100110100 orrs  r4, r6
00003c18 4144 0100000101000100 adc  r4, r0
00003c1a 414d 0100000101001101 adc  r5, r1
00003c1c 0fae 0000111110101110 lsrs  r6, r5, #30
00003c1e d105 1101000100000101 bne.n 3c2c ; PC + 14

00003c20 0020 0000000000100000 movs r0, r4
00003c22 0029 0000000000101001 movs r1, r5
00003c24 4666 0100011001100110 mov  r6, ip
00003c26 ce30 1100111000110000 ldmia r6, {r4}
00003c28 1b12 0001101100010010 sub r2, r2, r4
00003c2a 41ab 0100000110101011 sbc  r3, r5
00003c2c 2408 0010010000001000 movs r4, #8  ; 0x08
00003c2e 44a4 0100010010100100 adds r12, r4
00003c30 3701 0011011100000001 adds r7, #1  ; 0x01
00003c32 2f21 0010111100100001 cmp r7, #33  ; 0x21
00003c34 d1e7 1101000111100111 bne.n 3c06 ; PC + -46

00003c36 0089 0000000010001001 lsls  r1, r1, #2
00003c38 1089 0001000010001001 asr   r1, r1, #66
00003c3a 1812 0001100000010010 adds r2, r2, r0
00003c3c 414b 0100000101001011 adc  r3, r1
00003c3e bc80 1011110010000000 pop {r7}
00003c40 a417 1010010000010111 add r4, pc, #92
00003c42 cc13 1100110000010011 ldmia r4, {r0, r1}
00003c44 3701 0011011100000001 adds r7, #1  ; 0x01
00003c46 4378 0100001101111000 muls  r0, r7
00003c48 4379 0100001101111001 muls  r1, r7
00003c4a 437c 0100001101111100 muls  r4, r7
00003c4c 054f 0000010101001111 lsls  r7, r1, #21
00003c4e 12c9 0001001011001001 asr   r1, r1, #75
00003c50 17cd 0001011111001101 asr   r5, r1, #95
00003c52 19c0 0001100111000000 adds r0, r0, r7
00003c54 4169 0100000101101001 adc  r1, r5
00003c56 02a7 0000001010100111 lsls  r7, r4, #10
00003c58 15a4 0001010110100100 asr   r4, r4, #86
00003c5a 17cd 0001011111001101 asr   r5, r1, #95
00003c5c 19c9 0001100111001001 adds r1, r1, r7
00003c5e 416c 0100000101101100 adc  r4, r5
00003c60 17dd 0001011111011101 asr   r5, r3, #95
00003c62 1880 0001100010000000 adds r0, r0, r2
00003c64 4159 0100000101011001 adc  r1, r3
00003c66 416c 0100000101101100 adc  r4, r5
00003c68 223e 0010001000111110 movs r2, #62  ; 0x3e
00003c6a 17cd 0001011111001101 asr   r5, r1, #95
00003c6c 42ac 0100001010101100 cmp  r4, r5
00003c6e d008 1101000000001000 beq.n 3c82 ; PC + 20

00003c70 0900 0000100100000000 lsrs  r0, r0, #4
00003c72 070e 0000011100001110 lsls  r6, r1, #28
00003c74 4330 0100001100110000 orrs  r0, r6
00003c76 0909 0000100100001001 lsrs  r1, r1, #4
00003c78 0726 0000011100100110 lsls  r6, r4, #28
00003c7a 4331 0100001100110001 orrs  r1, r6
00003c7c 1124 0001000100100100 asr   r4, r4, #68
00003c7e 3a04 0011101000000100 subs r2, #4  ; 0x04
00003c80 e7f3 1110011111110011 b.n  3c6a

00003c82 f7ff 1111011111111111 (32-bit)
00003c84 fd26 1111110100100110 bl   36d2

00003c86 bdf0 1011110111110000 pop {r4, r5, r6, r7, pc}
00003c88 4902 0100100100000010 ldr  r1, [pc, #8] ; 0x0008
00003c8a 2000 0010000000000000 movs r0, #0  ; 0x00
00003c8c bdf0 1011110111110000 pop {r4, r5, r6, r7, pc}
00003c8e 4902 0100100100000010 ldr  r1, [pc, #8] ; 0x0008
00003c90 2000 0010000000000000 movs r0, #0  ; 0x00
00003c92 bdf0 1011110111110000 pop {r4, r5, r6, r7, pc}
00003c94 .word fff00000
00003c98 .word 7ff00000
00003c9c .word 0000b8aa
00003ca0 .word 0013de6b
00003ca4 .word 000fefa3
00003ca8 .word 000b1721
00003cac .word bf984bf3
00003cb0 .word 19f323ec
00003cb4 .word cd4d10d6
00003cb8 .word 0e47fbe3
00003cbc .word 8abcb97a
00003cc0 .word 0789c1db
00003cc4 .word 022c54cc
00003cc8 .word 03e14618
00003ccc .word e7833005
00003cd0 .word 01f829b0
00003cd4 .word 87e01f1e
00003cd8 .word 00fe0545
00003cdc .word ac419e24
00003ce0 .word 007f80a9
00003ce4 .word 45621781
00003ce8 .word 003fe015
00003cec .word a9ab10e6
00003cf0 .word 001ff802
00003cf4 .word 55455888
00003cf8 .word 000ffe00
00003cfc .word 0aa9aac4
00003d00 .word 0007ff80
00003d04 .word 01554556
00003d08 .word 0003ffe0
00003d0c .word 002aa9ab
00003d10 .word 0001fff8
00003d14 .word 00055545
00003d18 .word 0000fffe
00003d1c .word 8000aaaa
00003d20 .word 00007fff
00003d24 .word e0001555
00003d28 .word 00003fff
00003d2c .word f80002ab
00003d30 .word 00001fff
00003d34 .word fe000055
00003d38 .word 00000fff
00003d3c .word ff80000b
00003d40 .word 000007ff
00003d44 .word ffe00001
00003d48 .word 000003ff
00003d4c .word fff80000
00003d50 .word 000001ff
00003d54 .word fffe0000
00003d58 .word 000000ff
00003d5c .word ffff8000
00003d60 .word 0000007f
00003d64 .word ffffe000
00003d68 .word 0000003f
00003d6c .word fffff800
00003d70 .word 0000001f
00003d74 .word fffffe00
00003d78 .word 0000000f
00003d7c .word ffffff80
00003d80 .word 00000007
00003d84 .word ffffffe0
00003d88 .word 00000003
00003d8c .word fffffff8
00003d90 .word 00000001
00003d94 .word fffffffe
00003d98 .word 00000000
00003d9c .word 80000000
00003da0 .word 00000000
00003da4 .word 40000000
00003da8 .word 00000000
00003dac .word 45444e49
00003db0 .word 20202058
00003db4 .word 004d5448
00003db8 .word 4f464e49
00003dbc .word 3246555f
00003dc0 .word 00545854
00003dc4 .word 70736152
00003dc8 .word 72726562
00003dcc .word 69502079
00003dd0 .word 32505200
00003dd4 .word 6f6f4220
00003dd8 .word 01060074
00003ddc .word 50100dc0
00003de0 .word 50100dec
00003de4 .word 0000044d
00003de8 .word 0000000a
00003dec .word be000104
00003df0 .word 0000004f
00003df4 .word 0000000c
00003df8 .word 0000000e
00003dfc .word 00000001
00003e00 .word 0003ffff
00003e04 .word 00ffff03
00003e08 .word 00000200
00003e0c .word 00000000
00003e10 .word 02ffff03
00003e14 .word 08000200
00003e18 .word 37020900
00003e1c .word 00010200
00003e20 .word 0409fa80
00003e24 .word 08020000
00003e28 .word 07005006
00003e2c .word 40028105
00003e30 .word 05070000
00003e34 .word 00400202
00003e38 .word 01040900
00003e3c .word 00ff0200
00003e40 .word 05070000
00003e44 .word 00400203
00003e48 .word 84050700
00003e4c .word 00004002
00003e50 .word 01100112
00003e54 .word 40000000
00003e58 .word 00032e8a
00003e5c .word 02010100
00003e60 .word be000103
00003e64 .word 50100e18
00003e68 .word 50100e50
00003e6c .word 4d903ceb
00003e70 .word 4e495753
00003e74 .word 00312e34
00003e78 .word 00010802
00003e7c .word 00020002
00003e80 .word 0081f800
00003e84 .word 00010001
00003e88 .word 00000001
00003e8c .word 0003ffff
00003e90 .word 00290000
00003e94 .word 52000000
00003e98 .word 522d4950
00003e9c .word 20203250
00003ea0 .word 41462020
00003ea4 .word 20363154
00003ea8 .word feeb2020
00003eac .word 01000000
00003eb0 .word 000c1000
00003eb4 .word 02000800
00003eb8 .word 08048008
00003ebc .word 00000880
00003ec0 .word 20000001
00003ec4 .word 04400004
00003ec8 .word be008000
00003ecc .word 0000001c
00003ed0 .word 00002355
00003ed4 .word 000024c9
00003ed8 .word 0000188d
00003edc .word 00000aa9
00003ee0 .word 000018c5
00003ee4 .word 000017fd
00003ee8 .word 00003dc4
00003eec .word 00003dd1
00003ef0 .word 50100eb5
00003ef4 .word 20324655
00003ef8 .word 746f6f42
00003efc .word 64616f6c
00003f00 .word 76207265
00003f04 .word 0a302e32
00003f08 .word 65646f4d
00003f0c .word 52203a6c
00003f10 .word 62707361
00003f14 .word 79727265
00003f18 .word 20695020
00003f1c .word 0a325052
00003f20 .word 72616f42
00003f24 .word 44492d64
00003f28 .word 5052203a
00003f2c .word 50522d49
00003f30 .word 03040a32
00003f34 .word be000409
00003f38 .word 50100e58
00003f3c .word 50100e24
00003f40 .word 02020000
00003f44 .word 00000020
00003f48 .word 20495052
00003f4c .word 505201fc
00003f50 .word 2008fb32
00003f54 .word fd3206f9
00003f58 .word 3c010216
00003f5c .word 6c6d7468
00003f60 .word 65683c3e
00003f64 .word 3c3e6461
00003f68 .word 6174656d
00003f6c .word 74746820
00003f70 .word 71652d70
00003f74 .word 3d766975
00003f78 .word 66657222
00003f7c .word 68736572
00003f80 .word 6f632022
00003f84 .word 6e65746e
00003f88 .word 30223d74
00003f8c .word 4c52553b
00003f90 .word 25fc273d
00003f94 .word 2f2f3a73
00003f98 .word 70736172
00003f9c .word 72726562
00003fa0 .word 2e697079
00003fa4 .word 2f6d6f63
00003fa8 .word 69766564
00003fac .word 522f6563
00003fb0 .word 763f3250
00003fb4 .word 69737265
00003fb8 .word 613d6e6f
00003fbc .word 63626261
00003fc0 .word 65646463
00003fc4 .word 27666665
00003fc8 .word 3c3e2f22
00003fcc .word 626dfa2f
00003fd0 .word 3e79646f
00003fd4 .word 69646552
00003fd8 .word 74636572
00003fdc .word 20676e69
00003fe0 .word 3c206f74
00003fe4 .word 65727ffd
00003fe8 .word 3e60c666
00003fec .word 2f3c91f1
00003ff0 .word 6271fd61
00003ff4 .word 2f3c6bfc
00003ff8 .word be00ebfb
00003ffc .word be00be00
